SF:/app/memory-core/src/constants.rs
FN:155,_RNvNtNtCs46cA19QElOV_14do_memory_core9constants5testss_19test_default_values
FN:164,_RNvNtNtCs46cA19QElOV_14do_memory_core9constants5testss_26test_similarity_thresholds
FN:173,_RNvNtNtCs46cA19QElOV_14do_memory_core9constants5testss_29test_error_messages_not_empty
FNDA:1,_RNvNtNtCs46cA19QElOV_14do_memory_core9constants5testss_19test_default_values
FNDA:1,_RNvNtNtCs46cA19QElOV_14do_memory_core9constants5testss_26test_similarity_thresholds
FNDA:1,_RNvNtNtCs46cA19QElOV_14do_memory_core9constants5testss_29test_error_messages_not_empty
FNF:3
FNH:3
DA:155,1
DA:156,1
DA:157,1
DA:158,1
DA:159,1
DA:160,1
DA:164,1
DA:165,1
DA:166,1
DA:167,1
DA:168,1
DA:169,1
DA:173,1
DA:174,1
DA:175,1
DA:176,1
DA:177,1
BRF:0
BRH:0
LF:17
LH:17
end_of_record
SF:/app/memory-core/src/embeddings/circuit_breaker.rs
FN:89,_RNvMs_NtNtCsl8fXSKtwgoJ_14do_memory_core10embeddings15circuit_breakerNtB4_14CircuitBreaker13allow_request
FN:168,_RNvMs_NtNtCsl8fXSKtwgoJ_14do_memory_core10embeddings15circuit_breakerNtB4_14CircuitBreaker14record_failure
FN:130,_RNvMs_NtNtCsl8fXSKtwgoJ_14do_memory_core10embeddings15circuit_breakerNtB4_14CircuitBreaker14record_success
FN:70,_RNvMs_NtNtCsl8fXSKtwgoJ_14do_memory_core10embeddings15circuit_breakerNtB4_14CircuitBreaker3new
FN:220,_RNvMs_NtNtCsl8fXSKtwgoJ_14do_memory_core10embeddings15circuit_breakerNtB4_14CircuitBreaker5reset
FN:208,_RNvMs_NtNtCsl8fXSKtwgoJ_14do_memory_core10embeddings15circuit_breakerNtB4_14CircuitBreaker5state
FN:232,_RNvMs_NtNtCsl8fXSKtwgoJ_14do_memory_core10embeddings15circuit_breakerNtB4_14CircuitBreaker5stats
FN:82,_RNvMs_NtNtCsl8fXSKtwgoJ_14do_memory_core10embeddings15circuit_breakerNtB4_14CircuitBreaker7default
FN:27,_RNvXNtNtCsl8fXSKtwgoJ_14do_memory_core10embeddings15circuit_breakerNtB2_20CircuitBreakerConfigNtNtCs4kUJL3MZFFz_4core7default7Default7default
FN:232,_RNvMs_NtNtCs46cA19QElOV_14do_memory_core10embeddings15circuit_breakerNtB4_14CircuitBreaker5stats
FN:82,_RNvMs_NtNtCs46cA19QElOV_14do_memory_core10embeddings15circuit_breakerNtB4_14CircuitBreaker7default
FN:367,_RNvNtNtNtCs46cA19QElOV_14do_memory_core10embeddings15circuit_breaker5testss_18test_circuit_reset
FN:321,_RNvNtNtNtCs46cA19QElOV_14do_memory_core10embeddings15circuit_breaker5testss_27test_success_closes_circuit
FN:303,_RNvNtNtNtCs46cA19QElOV_14do_memory_core10embeddings15circuit_breaker5testss_28test_half_open_after_timeout
FN:341,_RNvNtNtNtCs46cA19QElOV_14do_memory_core10embeddings15circuit_breaker5testss_30test_half_open_limits_attempts
FN:278,_RNvNtNtNtCs46cA19QElOV_14do_memory_core10embeddings15circuit_breaker5testss_34test_circuit_breaker_starts_closed
FN:287,_RNvNtNtNtCs46cA19QElOV_14do_memory_core10embeddings15circuit_breaker5testss_34test_circuit_opens_after_threshold
FN:89,_RNvMs_NtNtCs46cA19QElOV_14do_memory_core10embeddings15circuit_breakerNtB4_14CircuitBreaker13allow_request
FN:168,_RNvMs_NtNtCs46cA19QElOV_14do_memory_core10embeddings15circuit_breakerNtB4_14CircuitBreaker14record_failure
FN:130,_RNvMs_NtNtCs46cA19QElOV_14do_memory_core10embeddings15circuit_breakerNtB4_14CircuitBreaker14record_success
FN:70,_RNvMs_NtNtCs46cA19QElOV_14do_memory_core10embeddings15circuit_breakerNtB4_14CircuitBreaker3new
FN:220,_RNvMs_NtNtCs46cA19QElOV_14do_memory_core10embeddings15circuit_breakerNtB4_14CircuitBreaker5reset
FN:208,_RNvMs_NtNtCs46cA19QElOV_14do_memory_core10embeddings15circuit_breakerNtB4_14CircuitBreaker5state
FN:27,_RNvXNtNtCs46cA19QElOV_14do_memory_core10embeddings15circuit_breakerNtB2_20CircuitBreakerConfigNtNtCs4kUJL3MZFFz_4core7default7Default7default
FNDA:0,_RNvMs_NtNtCsl8fXSKtwgoJ_14do_memory_core10embeddings15circuit_breakerNtB4_14CircuitBreaker13allow_request
FNDA:0,_RNvMs_NtNtCsl8fXSKtwgoJ_14do_memory_core10embeddings15circuit_breakerNtB4_14CircuitBreaker14record_failure
FNDA:0,_RNvMs_NtNtCsl8fXSKtwgoJ_14do_memory_core10embeddings15circuit_breakerNtB4_14CircuitBreaker14record_success
FNDA:0,_RNvMs_NtNtCsl8fXSKtwgoJ_14do_memory_core10embeddings15circuit_breakerNtB4_14CircuitBreaker3new
FNDA:0,_RNvMs_NtNtCsl8fXSKtwgoJ_14do_memory_core10embeddings15circuit_breakerNtB4_14CircuitBreaker5reset
FNDA:0,_RNvMs_NtNtCsl8fXSKtwgoJ_14do_memory_core10embeddings15circuit_breakerNtB4_14CircuitBreaker5state
FNDA:0,_RNvMs_NtNtCsl8fXSKtwgoJ_14do_memory_core10embeddings15circuit_breakerNtB4_14CircuitBreaker5stats
FNDA:0,_RNvMs_NtNtCsl8fXSKtwgoJ_14do_memory_core10embeddings15circuit_breakerNtB4_14CircuitBreaker7default
FNDA:0,_RNvXNtNtCsl8fXSKtwgoJ_14do_memory_core10embeddings15circuit_breakerNtB2_20CircuitBreakerConfigNtNtCs4kUJL3MZFFz_4core7default7Default7default
FNDA:0,_RNvMs_NtNtCs46cA19QElOV_14do_memory_core10embeddings15circuit_breakerNtB4_14CircuitBreaker5stats
FNDA:0,_RNvMs_NtNtCs46cA19QElOV_14do_memory_core10embeddings15circuit_breakerNtB4_14CircuitBreaker7default
FNDA:1,_RNvNtNtNtCs46cA19QElOV_14do_memory_core10embeddings15circuit_breaker5testss_18test_circuit_reset
FNDA:1,_RNvNtNtNtCs46cA19QElOV_14do_memory_core10embeddings15circuit_breaker5testss_27test_success_closes_circuit
FNDA:1,_RNvNtNtNtCs46cA19QElOV_14do_memory_core10embeddings15circuit_breaker5testss_28test_half_open_after_timeout
FNDA:1,_RNvNtNtNtCs46cA19QElOV_14do_memory_core10embeddings15circuit_breaker5testss_30test_half_open_limits_attempts
FNDA:1,_RNvNtNtNtCs46cA19QElOV_14do_memory_core10embeddings15circuit_breaker5testss_34test_circuit_breaker_starts_closed
FNDA:1,_RNvNtNtNtCs46cA19QElOV_14do_memory_core10embeddings15circuit_breaker5testss_34test_circuit_opens_after_threshold
FNDA:9,_RNvMs_NtNtCs46cA19QElOV_14do_memory_core10embeddings15circuit_breakerNtB4_14CircuitBreaker13allow_request
FNDA:10,_RNvMs_NtNtCs46cA19QElOV_14do_memory_core10embeddings15circuit_breakerNtB4_14CircuitBreaker14record_failure
FNDA:1,_RNvMs_NtNtCs46cA19QElOV_14do_memory_core10embeddings15circuit_breakerNtB4_14CircuitBreaker14record_success
FNDA:6,_RNvMs_NtNtCs46cA19QElOV_14do_memory_core10embeddings15circuit_breakerNtB4_14CircuitBreaker3new
FNDA:1,_RNvMs_NtNtCs46cA19QElOV_14do_memory_core10embeddings15circuit_breakerNtB4_14CircuitBreaker5reset
FNDA:8,_RNvMs_NtNtCs46cA19QElOV_14do_memory_core10embeddings15circuit_breakerNtB4_14CircuitBreaker5state
FNDA:8,_RNvXNtNtCs46cA19QElOV_14do_memory_core10embeddings15circuit_breakerNtB2_20CircuitBreakerConfigNtNtCs4kUJL3MZFFz_4core7default7Default7default
FNF:15
FNH:13
DA:27,8
DA:28,8
DA:29,8
DA:30,8
DA:31,8
DA:32,8
DA:33,8
DA:34,8
DA:70,6
DA:71,6
DA:72,6
DA:73,6
DA:74,6
DA:75,6
DA:76,6
DA:77,6
DA:82,0
DA:83,0
DA:84,0
DA:89,9
DA:90,9
DA:91,9
DA:94,9
DA:95,2
DA:96,4
DA:98,4
DA:99,4
DA:101,3
DA:102,3
DA:103,3
DA:104,3
DA:105,3
DA:106,3
DA:108,1
DA:112,3
DA:113,3
DA:115,3
DA:117,2
DA:118,2
DA:119,2
DA:120,2
DA:121,2
DA:123,1
DA:127,9
DA:130,1
DA:131,1
DA:132,1
DA:135,1
DA:136,0
DA:137,0
DA:138,0
DA:139,0
DA:140,0
DA:141,0
DA:143,1
DA:144,1
DA:146,1
DA:147,1
DA:149,1
DA:150,1
DA:151,1
DA:152,1
DA:153,0
DA:154,0
DA:155,0
DA:156,0
DA:157,0
DA:158,0
DA:162,0
DA:165,1
DA:168,10
DA:169,10
DA:170,10
DA:173,10
DA:175,10
DA:177,10
DA:178,10
DA:180,5
DA:181,5
DA:182,5
DA:183,5
DA:184,5
DA:185,5
DA:186,5
DA:187,5
DA:188,5
DA:195,0
DA:196,0
DA:197,0
DA:198,0
DA:200,0
DA:201,0
DA:202,0
DA:204,10
DA:208,8
DA:209,8
DA:210,8
DA:212,8
DA:213,4
DA:214,3
DA:215,1
DA:217,8
DA:220,1
DA:221,1
DA:222,1
DA:224,1
DA:225,1
DA:226,1
DA:227,1
DA:228,1
DA:232,0
DA:233,0
DA:234,0
DA:236,0
DA:238,0
DA:239,0
DA:240,0
DA:241,0
DA:242,0
DA:243,0
DA:244,0
DA:245,0
DA:246,0
DA:247,0
DA:248,0
DA:249,0
DA:250,0
DA:253,0
DA:254,0
DA:255,0
DA:256,0
DA:257,0
DA:258,0
DA:259,0
DA:261,0
DA:278,1
DA:279,1
DA:280,1
DA:282,1
DA:283,1
DA:284,1
DA:287,1
DA:288,1
DA:289,1
DA:290,1
DA:291,1
DA:292,1
DA:294,1
DA:295,1
DA:297,1
DA:298,1
DA:299,1
DA:300,1
DA:303,1
DA:304,1
DA:305,1
DA:306,1
DA:307,1
DA:308,1
DA:309,1
DA:311,1
DA:312,1
DA:313,1
DA:315,1
DA:316,1
DA:317,1
DA:318,1
DA:321,1
DA:322,1
DA:323,1
DA:324,1
DA:325,1
DA:326,1
DA:327,1
DA:328,1
DA:330,1
DA:331,1
DA:332,1
DA:334,1
DA:335,1
DA:336,1
DA:337,1
DA:338,1
DA:341,1
DA:342,1
DA:343,1
DA:344,1
DA:345,1
DA:346,1
DA:347,1
DA:348,1
DA:351,1
DA:352,1
DA:353,1
DA:354,1
DA:357,1
DA:360,1
DA:363,1
DA:364,1
DA:367,1
DA:368,1
DA:369,1
DA:370,1
DA:371,1
DA:372,1
DA:375,1
DA:376,1
DA:377,1
DA:380,1
DA:381,1
DA:382,1
DA:383,1
BRF:0
BRH:0
LF:212
LH:164
end_of_record
SF:/app/memory-core/src/embeddings/config/embedding_config.rs
FN:23,_RNvXNtNtNtCsl8fXSKtwgoJ_14do_memory_core10embeddings6config16embedding_configNtB2_15EmbeddingConfigNtNtCs4kUJL3MZFFz_4core7default7Default7default
FN:23,_RNvXNtNtNtCs46cA19QElOV_14do_memory_core10embeddings6config16embedding_configNtB2_15EmbeddingConfigNtNtCs4kUJL3MZFFz_4core7default7Default7default
FN:39,_RNvNtNtNtNtCs46cA19QElOV_14do_memory_core10embeddings6config16embedding_config5testss_29test_default_embedding_config
FN:64,_RNvNtNtNtNtCs46cA19QElOV_14do_memory_core10embeddings6config16embedding_config5testss_33test_embedding_config_with_openai
FNDA:166,_RNvXNtNtNtCsl8fXSKtwgoJ_14do_memory_core10embeddings6config16embedding_configNtB2_15EmbeddingConfigNtNtCs4kUJL3MZFFz_4core7default7Default7default
FNDA:58,_RNvXNtNtNtCs46cA19QElOV_14do_memory_core10embeddings6config16embedding_configNtB2_15EmbeddingConfigNtNtCs4kUJL3MZFFz_4core7default7Default7default
FNDA:1,_RNvNtNtNtNtCs46cA19QElOV_14do_memory_core10embeddings6config16embedding_config5testss_29test_default_embedding_config
FNDA:1,_RNvNtNtNtNtCs46cA19QElOV_14do_memory_core10embeddings6config16embedding_config5testss_33test_embedding_config_with_openai
FNF:3
FNH:3
DA:23,224
DA:24,224
DA:25,224
DA:26,224
DA:27,224
DA:28,224
DA:29,224
DA:30,224
DA:31,224
DA:39,1
DA:40,1
DA:43,1
DA:44,1
DA:45,1
DA:49,1
DA:51,0
DA:55,1
DA:56,1
DA:59,1
DA:60,1
DA:61,1
DA:64,1
DA:65,1
DA:66,1
DA:67,1
DA:68,1
DA:69,1
DA:70,1
DA:71,1
DA:73,1
DA:74,1
DA:75,1
DA:76,1
DA:77,1
BRF:0
BRH:0
LF:34
LH:33
end_of_record
SF:/app/memory-core/src/embeddings/config/mistral/config.rs
FN:186,_RINvMs0_NtNtNtNtCsl8fXSKtwgoJ_14do_memory_core10embeddings6config7mistral6configNtB6_13MistralConfig13with_base_urlpEBe_
FN:20,_RNvMNtNtNtNtCsl8fXSKtwgoJ_14do_memory_core10embeddings6config7mistral6configNtB2_12MistralModel10model_name
FN:38,_RNvMNtNtNtNtCsl8fXSKtwgoJ_14do_memory_core10embeddings6config7mistral6configNtB2_12MistralModel13max_dimension
FN:29,_RNvMNtNtNtNtCsl8fXSKtwgoJ_14do_memory_core10embeddings6config7mistral6configNtB2_12MistralModel17default_dimension
FN:59,_RNvMNtNtNtNtCsl8fXSKtwgoJ_14do_memory_core10embeddings6config7mistral6configNtB2_12MistralModel20default_output_dtype
FN:53,_RNvMNtNtNtNtCsl8fXSKtwgoJ_14do_memory_core10embeddings6config7mistral6configNtB2_12MistralModel21supports_output_dtype
FN:47,_RNvMNtNtNtNtCsl8fXSKtwgoJ_14do_memory_core10embeddings6config7mistral6configNtB2_12MistralModel25supports_output_dimension
FN:157,_RNvMs0_NtNtNtNtCsl8fXSKtwgoJ_14do_memory_core10embeddings6config7mistral6configNtB5_13MistralConfig13mistral_embed
FN:206,_RNvMs0_NtNtNtNtCsl8fXSKtwgoJ_14do_memory_core10embeddings6config7mistral6configNtB5_13MistralConfig14embeddings_url
FN:163,_RNvMs0_NtNtNtNtCsl8fXSKtwgoJ_14do_memory_core10embeddings6config7mistral6configNtB5_13MistralConfig15codestral_embed
FN:245,_RNvMs0_NtNtNtNtCsl8fXSKtwgoJ_14do_memory_core10embeddings6config7mistral6configNtB5_13MistralConfig16codestral_binary
FN:251,_RNvMs0_NtNtNtNtCsl8fXSKtwgoJ_14do_memory_core10embeddings6config7mistral6configNtB5_13MistralConfig17codestral_compact
FN:179,_RNvMs0_NtNtNtNtCsl8fXSKtwgoJ_14do_memory_core10embeddings6config7mistral6configNtB5_13MistralConfig17with_output_dtype
FN:193,_RNvMs0_NtNtNtNtCsl8fXSKtwgoJ_14do_memory_core10embeddings6config7mistral6configNtB5_13MistralConfig19effective_dimension
FN:172,_RNvMs0_NtNtNtNtCsl8fXSKtwgoJ_14do_memory_core10embeddings6config7mistral6configNtB5_13MistralConfig21with_output_dimension
FN:200,_RNvMs0_NtNtNtNtCsl8fXSKtwgoJ_14do_memory_core10embeddings6config7mistral6configNtB5_13MistralConfig22expected_response_size
FN:145,_RNvMs0_NtNtNtNtCsl8fXSKtwgoJ_14do_memory_core10embeddings6config7mistral6configNtB5_13MistralConfig3new
FN:214,_RNvMs0_NtNtNtNtCsl8fXSKtwgoJ_14do_memory_core10embeddings6config7mistral6configNtB5_13MistralConfig8validate
FN:101,_RNvMs_NtNtNtNtCsl8fXSKtwgoJ_14do_memory_core10embeddings6config7mistral6configNtB4_11OutputDtype13is_bit_packed
FN:107,_RNvMs_NtNtNtNtCsl8fXSKtwgoJ_14do_memory_core10embeddings6config7mistral6configNtB4_11OutputDtype13response_size
FN:89,_RNvMs_NtNtNtNtCsl8fXSKtwgoJ_14do_memory_core10embeddings6config7mistral6configNtB4_11OutputDtype6as_str
FN:138,_RNvNtNtNtNtCsl8fXSKtwgoJ_14do_memory_core10embeddings6config7mistral6config24default_mistral_base_url
FN:257,_RNvXs1_NtNtNtNtCsl8fXSKtwgoJ_14do_memory_core10embeddings6config7mistral6configNtB5_13MistralConfigNtNtCs4kUJL3MZFFz_4core7default7Default7default
FN:195,_RNCNvMs0_NtNtNtNtCsl8fXSKtwgoJ_14do_memory_core10embeddings6config7mistral6configNtB7_13MistralConfig19effective_dimension0Bf_
FN:186,_RINvMs0_NtNtNtNtCs46cA19QElOV_14do_memory_core10embeddings6config7mistral6configNtB6_13MistralConfig13with_base_urlpEBe_
FN:59,_RNvMNtNtNtNtCs46cA19QElOV_14do_memory_core10embeddings6config7mistral6configNtB2_12MistralModel20default_output_dtype
FN:206,_RNvMs0_NtNtNtNtCs46cA19QElOV_14do_memory_core10embeddings6config7mistral6configNtB5_13MistralConfig14embeddings_url
FN:251,_RNvMs0_NtNtNtNtCs46cA19QElOV_14do_memory_core10embeddings6config7mistral6configNtB5_13MistralConfig17codestral_compact
FN:89,_RNvMs_NtNtNtNtCs46cA19QElOV_14do_memory_core10embeddings6config7mistral6configNtB4_11OutputDtype6as_str
FN:257,_RNvXs1_NtNtNtNtCs46cA19QElOV_14do_memory_core10embeddings6config7mistral6configNtB5_13MistralConfigNtNtCs4kUJL3MZFFz_4core7default7Default7default
FN:296,_RNvNtNtNtNtNtCs46cA19QElOV_14do_memory_core10embeddings6config7mistral6config5testss_27test_mistral_config_builder
FN:309,_RNvNtNtNtNtNtCs46cA19QElOV_14do_memory_core10embeddings6config7mistral6config5testss_28test_codestral_binary_config
FN:282,_RNvNtNtNtNtNtCs46cA19QElOV_14do_memory_core10embeddings6config7mistral6config5testss_28test_output_dtype_properties
FN:267,_RNvNtNtNtNtNtCs46cA19QElOV_14do_memory_core10embeddings6config7mistral6config5testss_29test_mistral_model_properties
FN:317,_RNvNtNtNtNtNtCs46cA19QElOV_14do_memory_core10embeddings6config7mistral6config5testss_30test_mistral_config_validation
FN:332,_RNvNtNtNtNtNtCs46cA19QElOV_14do_memory_core10embeddings6config7mistral6config5testss_33test_mistral_config_serialization
FN:195,_RNCNvMs0_NtNtNtNtCs46cA19QElOV_14do_memory_core10embeddings6config7mistral6configNtB7_13MistralConfig19effective_dimension0Bf_
FN:20,_RNvMNtNtNtNtCs46cA19QElOV_14do_memory_core10embeddings6config7mistral6configNtB2_12MistralModel10model_name
FN:38,_RNvMNtNtNtNtCs46cA19QElOV_14do_memory_core10embeddings6config7mistral6configNtB2_12MistralModel13max_dimension
FN:29,_RNvMNtNtNtNtCs46cA19QElOV_14do_memory_core10embeddings6config7mistral6configNtB2_12MistralModel17default_dimension
FN:53,_RNvMNtNtNtNtCs46cA19QElOV_14do_memory_core10embeddings6config7mistral6configNtB2_12MistralModel21supports_output_dtype
FN:47,_RNvMNtNtNtNtCs46cA19QElOV_14do_memory_core10embeddings6config7mistral6configNtB2_12MistralModel25supports_output_dimension
FN:157,_RNvMs0_NtNtNtNtCs46cA19QElOV_14do_memory_core10embeddings6config7mistral6configNtB5_13MistralConfig13mistral_embed
FN:163,_RNvMs0_NtNtNtNtCs46cA19QElOV_14do_memory_core10embeddings6config7mistral6configNtB5_13MistralConfig15codestral_embed
FN:245,_RNvMs0_NtNtNtNtCs46cA19QElOV_14do_memory_core10embeddings6config7mistral6configNtB5_13MistralConfig16codestral_binary
FN:179,_RNvMs0_NtNtNtNtCs46cA19QElOV_14do_memory_core10embeddings6config7mistral6configNtB5_13MistralConfig17with_output_dtype
FN:193,_RNvMs0_NtNtNtNtCs46cA19QElOV_14do_memory_core10embeddings6config7mistral6configNtB5_13MistralConfig19effective_dimension
FN:172,_RNvMs0_NtNtNtNtCs46cA19QElOV_14do_memory_core10embeddings6config7mistral6configNtB5_13MistralConfig21with_output_dimension
FN:200,_RNvMs0_NtNtNtNtCs46cA19QElOV_14do_memory_core10embeddings6config7mistral6configNtB5_13MistralConfig22expected_response_size
FN:145,_RNvMs0_NtNtNtNtCs46cA19QElOV_14do_memory_core10embeddings6config7mistral6configNtB5_13MistralConfig3new
FN:214,_RNvMs0_NtNtNtNtCs46cA19QElOV_14do_memory_core10embeddings6config7mistral6configNtB5_13MistralConfig8validate
FN:101,_RNvMs_NtNtNtNtCs46cA19QElOV_14do_memory_core10embeddings6config7mistral6configNtB4_11OutputDtype13is_bit_packed
FN:107,_RNvMs_NtNtNtNtCs46cA19QElOV_14do_memory_core10embeddings6config7mistral6configNtB4_11OutputDtype13response_size
FN:138,_RNvNtNtNtNtCs46cA19QElOV_14do_memory_core10embeddings6config7mistral6config24default_mistral_base_url
FNDA:0,_RINvMs0_NtNtNtNtCsl8fXSKtwgoJ_14do_memory_core10embeddings6config7mistral6configNtB6_13MistralConfig13with_base_urlpEBe_
FNDA:0,_RNvMNtNtNtNtCsl8fXSKtwgoJ_14do_memory_core10embeddings6config7mistral6configNtB2_12MistralModel10model_name
FNDA:0,_RNvMNtNtNtNtCsl8fXSKtwgoJ_14do_memory_core10embeddings6config7mistral6configNtB2_12MistralModel13max_dimension
FNDA:0,_RNvMNtNtNtNtCsl8fXSKtwgoJ_14do_memory_core10embeddings6config7mistral6configNtB2_12MistralModel17default_dimension
FNDA:0,_RNvMNtNtNtNtCsl8fXSKtwgoJ_14do_memory_core10embeddings6config7mistral6configNtB2_12MistralModel20default_output_dtype
FNDA:0,_RNvMNtNtNtNtCsl8fXSKtwgoJ_14do_memory_core10embeddings6config7mistral6configNtB2_12MistralModel21supports_output_dtype
FNDA:0,_RNvMNtNtNtNtCsl8fXSKtwgoJ_14do_memory_core10embeddings6config7mistral6configNtB2_12MistralModel25supports_output_dimension
FNDA:0,_RNvMs0_NtNtNtNtCsl8fXSKtwgoJ_14do_memory_core10embeddings6config7mistral6configNtB5_13MistralConfig13mistral_embed
FNDA:0,_RNvMs0_NtNtNtNtCsl8fXSKtwgoJ_14do_memory_core10embeddings6config7mistral6configNtB5_13MistralConfig14embeddings_url
FNDA:0,_RNvMs0_NtNtNtNtCsl8fXSKtwgoJ_14do_memory_core10embeddings6config7mistral6configNtB5_13MistralConfig15codestral_embed
FNDA:0,_RNvMs0_NtNtNtNtCsl8fXSKtwgoJ_14do_memory_core10embeddings6config7mistral6configNtB5_13MistralConfig16codestral_binary
FNDA:0,_RNvMs0_NtNtNtNtCsl8fXSKtwgoJ_14do_memory_core10embeddings6config7mistral6configNtB5_13MistralConfig17codestral_compact
FNDA:0,_RNvMs0_NtNtNtNtCsl8fXSKtwgoJ_14do_memory_core10embeddings6config7mistral6configNtB5_13MistralConfig17with_output_dtype
FNDA:0,_RNvMs0_NtNtNtNtCsl8fXSKtwgoJ_14do_memory_core10embeddings6config7mistral6configNtB5_13MistralConfig19effective_dimension
FNDA:0,_RNvMs0_NtNtNtNtCsl8fXSKtwgoJ_14do_memory_core10embeddings6config7mistral6configNtB5_13MistralConfig21with_output_dimension
FNDA:0,_RNvMs0_NtNtNtNtCsl8fXSKtwgoJ_14do_memory_core10embeddings6config7mistral6configNtB5_13MistralConfig22expected_response_size
FNDA:0,_RNvMs0_NtNtNtNtCsl8fXSKtwgoJ_14do_memory_core10embeddings6config7mistral6configNtB5_13MistralConfig3new
FNDA:0,_RNvMs0_NtNtNtNtCsl8fXSKtwgoJ_14do_memory_core10embeddings6config7mistral6configNtB5_13MistralConfig8validate
FNDA:0,_RNvMs_NtNtNtNtCsl8fXSKtwgoJ_14do_memory_core10embeddings6config7mistral6configNtB4_11OutputDtype13is_bit_packed
FNDA:0,_RNvMs_NtNtNtNtCsl8fXSKtwgoJ_14do_memory_core10embeddings6config7mistral6configNtB4_11OutputDtype13response_size
FNDA:0,_RNvMs_NtNtNtNtCsl8fXSKtwgoJ_14do_memory_core10embeddings6config7mistral6configNtB4_11OutputDtype6as_str
FNDA:0,_RNvNtNtNtNtCsl8fXSKtwgoJ_14do_memory_core10embeddings6config7mistral6config24default_mistral_base_url
FNDA:0,_RNvXs1_NtNtNtNtCsl8fXSKtwgoJ_14do_memory_core10embeddings6config7mistral6configNtB5_13MistralConfigNtNtCs4kUJL3MZFFz_4core7default7Default7default
FNDA:0,_RNCNvMs0_NtNtNtNtCsl8fXSKtwgoJ_14do_memory_core10embeddings6config7mistral6configNtB7_13MistralConfig19effective_dimension0Bf_
FNDA:0,_RINvMs0_NtNtNtNtCs46cA19QElOV_14do_memory_core10embeddings6config7mistral6configNtB6_13MistralConfig13with_base_urlpEBe_
FNDA:0,_RNvMNtNtNtNtCs46cA19QElOV_14do_memory_core10embeddings6config7mistral6configNtB2_12MistralModel20default_output_dtype
FNDA:0,_RNvMs0_NtNtNtNtCs46cA19QElOV_14do_memory_core10embeddings6config7mistral6configNtB5_13MistralConfig14embeddings_url
FNDA:0,_RNvMs0_NtNtNtNtCs46cA19QElOV_14do_memory_core10embeddings6config7mistral6configNtB5_13MistralConfig17codestral_compact
FNDA:0,_RNvMs_NtNtNtNtCs46cA19QElOV_14do_memory_core10embeddings6config7mistral6configNtB4_11OutputDtype6as_str
FNDA:0,_RNvXs1_NtNtNtNtCs46cA19QElOV_14do_memory_core10embeddings6config7mistral6configNtB5_13MistralConfigNtNtCs4kUJL3MZFFz_4core7default7Default7default
FNDA:1,_RNvNtNtNtNtNtCs46cA19QElOV_14do_memory_core10embeddings6config7mistral6config5testss_27test_mistral_config_builder
FNDA:1,_RNvNtNtNtNtNtCs46cA19QElOV_14do_memory_core10embeddings6config7mistral6config5testss_28test_codestral_binary_config
FNDA:1,_RNvNtNtNtNtNtCs46cA19QElOV_14do_memory_core10embeddings6config7mistral6config5testss_28test_output_dtype_properties
FNDA:1,_RNvNtNtNtNtNtCs46cA19QElOV_14do_memory_core10embeddings6config7mistral6config5testss_29test_mistral_model_properties
FNDA:1,_RNvNtNtNtNtNtCs46cA19QElOV_14do_memory_core10embeddings6config7mistral6config5testss_30test_mistral_config_validation
FNDA:1,_RNvNtNtNtNtNtCs46cA19QElOV_14do_memory_core10embeddings6config7mistral6config5testss_33test_mistral_config_serialization
FNDA:4,_RNCNvMs0_NtNtNtNtCs46cA19QElOV_14do_memory_core10embeddings6config7mistral6configNtB7_13MistralConfig19effective_dimension0Bf_
FNDA:2,_RNvMNtNtNtNtCs46cA19QElOV_14do_memory_core10embeddings6config7mistral6configNtB2_12MistralModel10model_name
FNDA:5,_RNvMNtNtNtNtCs46cA19QElOV_14do_memory_core10embeddings6config7mistral6configNtB2_12MistralModel13max_dimension
FNDA:6,_RNvMNtNtNtNtCs46cA19QElOV_14do_memory_core10embeddings6config7mistral6configNtB2_12MistralModel17default_dimension
FNDA:2,_RNvMNtNtNtNtCs46cA19QElOV_14do_memory_core10embeddings6config7mistral6configNtB2_12MistralModel21supports_output_dtype
FNDA:5,_RNvMNtNtNtNtCs46cA19QElOV_14do_memory_core10embeddings6config7mistral6configNtB2_12MistralModel25supports_output_dimension
FNDA:3,_RNvMs0_NtNtNtNtCs46cA19QElOV_14do_memory_core10embeddings6config7mistral6configNtB5_13MistralConfig13mistral_embed
FNDA:8,_RNvMs0_NtNtNtNtCs46cA19QElOV_14do_memory_core10embeddings6config7mistral6configNtB5_13MistralConfig15codestral_embed
FNDA:1,_RNvMs0_NtNtNtNtCs46cA19QElOV_14do_memory_core10embeddings6config7mistral6configNtB5_13MistralConfig16codestral_binary
FNDA:4,_RNvMs0_NtNtNtNtCs46cA19QElOV_14do_memory_core10embeddings6config7mistral6configNtB5_13MistralConfig17with_output_dtype
FNDA:6,_RNvMs0_NtNtNtNtCs46cA19QElOV_14do_memory_core10embeddings6config7mistral6configNtB5_13MistralConfig19effective_dimension
FNDA:6,_RNvMs0_NtNtNtNtCs46cA19QElOV_14do_memory_core10embeddings6config7mistral6configNtB5_13MistralConfig21with_output_dimension
FNDA:2,_RNvMs0_NtNtNtNtCs46cA19QElOV_14do_memory_core10embeddings6config7mistral6configNtB5_13MistralConfig22expected_response_size
FNDA:11,_RNvMs0_NtNtNtNtCs46cA19QElOV_14do_memory_core10embeddings6config7mistral6configNtB5_13MistralConfig3new
FNDA:3,_RNvMs0_NtNtNtNtCs46cA19QElOV_14do_memory_core10embeddings6config7mistral6configNtB5_13MistralConfig8validate
FNDA:10,_RNvMs_NtNtNtNtCs46cA19QElOV_14do_memory_core10embeddings6config7mistral6configNtB4_11OutputDtype13is_bit_packed
FNDA:5,_RNvMs_NtNtNtNtCs46cA19QElOV_14do_memory_core10embeddings6config7mistral6configNtB4_11OutputDtype13response_size
FNDA:11,_RNvNtNtNtNtCs46cA19QElOV_14do_memory_core10embeddings6config7mistral6config24default_mistral_base_url
FNF:30
FNH:24
DA:20,2
DA:21,2
DA:22,1
DA:23,1
DA:25,2
DA:29,6
DA:30,6
DA:31,2
DA:32,4
DA:34,6
DA:38,5
DA:39,5
DA:40,1
DA:41,4
DA:43,5
DA:47,5
DA:48,5
DA:49,5
DA:53,2
DA:54,2
DA:55,2
DA:59,0
DA:60,0
DA:61,0
DA:89,0
DA:90,0
DA:91,0
DA:92,0
DA:93,0
DA:94,0
DA:95,0
DA:97,0
DA:101,10
DA:102,10
DA:103,10
DA:107,5
DA:108,5
DA:110,3
DA:112,2
DA:114,5
DA:138,11
DA:139,11
DA:140,11
DA:145,11
DA:146,11
DA:147,11
DA:148,11
DA:149,11
DA:150,11
DA:151,11
DA:152,11
DA:153,11
DA:157,3
DA:158,3
DA:159,3
DA:163,8
DA:164,8
DA:165,8
DA:172,6
DA:173,6
DA:174,6
DA:175,6
DA:179,4
DA:180,4
DA:181,4
DA:182,4
DA:186,0
DA:187,0
DA:188,0
DA:189,0
DA:193,6
DA:194,6
DA:195,6
DA:196,6
DA:200,2
DA:201,2
DA:202,2
DA:206,0
DA:207,0
DA:208,0
DA:214,3
DA:215,3
DA:216,3
DA:217,1
DA:221,2
DA:222,2
DA:223,1
DA:225,1
DA:228,1
DA:229,0
DA:231,1
DA:232,0
DA:236,1
DA:238,1
DA:239,3
DA:245,1
DA:246,1
DA:247,1
DA:251,0
DA:252,0
DA:253,0
DA:257,0
DA:258,0
DA:259,0
DA:267,1
DA:268,1
DA:269,1
DA:271,1
DA:272,1
DA:274,1
DA:275,1
DA:277,1
DA:278,1
DA:279,1
DA:282,1
DA:283,1
DA:284,1
DA:285,1
DA:286,1
DA:287,1
DA:290,1
DA:291,1
DA:292,1
DA:293,1
DA:296,1
DA:297,1
DA:298,1
DA:299,1
DA:301,1
DA:302,1
DA:303,1
DA:304,1
DA:305,1
DA:306,1
DA:309,1
DA:310,1
DA:311,1
DA:312,1
DA:313,1
DA:314,1
DA:317,1
DA:319,1
DA:320,1
DA:323,1
DA:324,1
DA:327,1
DA:328,1
DA:329,1
DA:332,1
DA:333,1
DA:334,1
DA:335,1
DA:337,1
DA:338,1
DA:340,1
DA:341,1
DA:342,1
DA:343,1
BRF:0
BRH:0
LF:159
LH:133
end_of_record
SF:/app/memory-core/src/embeddings/config/mistral/types.rs
FN:16,_RNvXNtNtNtNtCsl8fXSKtwgoJ_14do_memory_core10embeddings6config7mistral5typesNtB2_21MistralEmbeddingInputINtNtCs4kUJL3MZFFz_4core7convert4FromNtNtCsauO83Ko6oyK_5alloc6string6StringE4from
FN:28,_RNvXs0_NtNtNtNtCsl8fXSKtwgoJ_14do_memory_core10embeddings6config7mistral5typesNtB5_21MistralEmbeddingInputINtNtCs4kUJL3MZFFz_4core7convert4FromReE4from
FN:34,_RNvXs1_NtNtNtNtCsl8fXSKtwgoJ_14do_memory_core10embeddings6config7mistral5typesNtB5_21MistralEmbeddingInputINtNtCs4kUJL3MZFFz_4core7convert4FromINtNtCsauO83Ko6oyK_5alloc3vec3VecReEE4from
FN:22,_RNvXs_NtNtNtNtCsl8fXSKtwgoJ_14do_memory_core10embeddings6config7mistral5typesNtB4_21MistralEmbeddingInputINtNtCs4kUJL3MZFFz_4core7convert4FromINtNtCsauO83Ko6oyK_5alloc3vec3VecNtNtB2l_6string6StringEE4from
FN:16,_RNvXNtNtNtNtCs46cA19QElOV_14do_memory_core10embeddings6config7mistral5typesNtB2_21MistralEmbeddingInputINtNtCs4kUJL3MZFFz_4core7convert4FromNtNtCsauO83Ko6oyK_5alloc6string6StringE4from
FN:22,_RNvXs_NtNtNtNtCs46cA19QElOV_14do_memory_core10embeddings6config7mistral5typesNtB4_21MistralEmbeddingInputINtNtCs4kUJL3MZFFz_4core7convert4FromINtNtCsauO83Ko6oyK_5alloc3vec3VecNtNtB2l_6string6StringEE4from
FN:28,_RNvXs0_NtNtNtNtCs46cA19QElOV_14do_memory_core10embeddings6config7mistral5typesNtB5_21MistralEmbeddingInputINtNtCs4kUJL3MZFFz_4core7convert4FromReE4from
FN:34,_RNvXs1_NtNtNtNtCs46cA19QElOV_14do_memory_core10embeddings6config7mistral5typesNtB5_21MistralEmbeddingInputINtNtCs4kUJL3MZFFz_4core7convert4FromINtNtCsauO83Ko6oyK_5alloc3vec3VecReEE4from
FN:105,_RNvNtNtNtNtNtCs46cA19QElOV_14do_memory_core10embeddings6config7mistral5types5testss_34test_mistral_request_serialization
FN:96,_RNvNtNtNtNtNtCs46cA19QElOV_14do_memory_core10embeddings6config7mistral5types5testss_40test_mistral_embedding_input_conversions
FN:120,_RNvNtNtNtNtNtCs46cA19QElOV_14do_memory_core10embeddings6config7mistral5types5testss_51test_mistral_request_serialization_without_optional
FNDA:0,_RNvXNtNtNtNtCsl8fXSKtwgoJ_14do_memory_core10embeddings6config7mistral5typesNtB2_21MistralEmbeddingInputINtNtCs4kUJL3MZFFz_4core7convert4FromNtNtCsauO83Ko6oyK_5alloc6string6StringE4from
FNDA:0,_RNvXs0_NtNtNtNtCsl8fXSKtwgoJ_14do_memory_core10embeddings6config7mistral5typesNtB5_21MistralEmbeddingInputINtNtCs4kUJL3MZFFz_4core7convert4FromReE4from
FNDA:0,_RNvXs1_NtNtNtNtCsl8fXSKtwgoJ_14do_memory_core10embeddings6config7mistral5typesNtB5_21MistralEmbeddingInputINtNtCs4kUJL3MZFFz_4core7convert4FromINtNtCsauO83Ko6oyK_5alloc3vec3VecReEE4from
FNDA:0,_RNvXs_NtNtNtNtCsl8fXSKtwgoJ_14do_memory_core10embeddings6config7mistral5typesNtB4_21MistralEmbeddingInputINtNtCs4kUJL3MZFFz_4core7convert4FromINtNtCsauO83Ko6oyK_5alloc3vec3VecNtNtB2l_6string6StringEE4from
FNDA:0,_RNvXNtNtNtNtCs46cA19QElOV_14do_memory_core10embeddings6config7mistral5typesNtB2_21MistralEmbeddingInputINtNtCs4kUJL3MZFFz_4core7convert4FromNtNtCsauO83Ko6oyK_5alloc6string6StringE4from
FNDA:0,_RNvXs_NtNtNtNtCs46cA19QElOV_14do_memory_core10embeddings6config7mistral5typesNtB4_21MistralEmbeddingInputINtNtCs4kUJL3MZFFz_4core7convert4FromINtNtCsauO83Ko6oyK_5alloc3vec3VecNtNtB2l_6string6StringEE4from
FNDA:1,_RNvXs0_NtNtNtNtCs46cA19QElOV_14do_memory_core10embeddings6config7mistral5typesNtB5_21MistralEmbeddingInputINtNtCs4kUJL3MZFFz_4core7convert4FromReE4from
FNDA:1,_RNvXs1_NtNtNtNtCs46cA19QElOV_14do_memory_core10embeddings6config7mistral5typesNtB5_21MistralEmbeddingInputINtNtCs4kUJL3MZFFz_4core7convert4FromINtNtCsauO83Ko6oyK_5alloc3vec3VecReEE4from
FNDA:1,_RNvNtNtNtNtNtCs46cA19QElOV_14do_memory_core10embeddings6config7mistral5types5testss_34test_mistral_request_serialization
FNDA:1,_RNvNtNtNtNtNtCs46cA19QElOV_14do_memory_core10embeddings6config7mistral5types5testss_40test_mistral_embedding_input_conversions
FNDA:1,_RNvNtNtNtNtNtCs46cA19QElOV_14do_memory_core10embeddings6config7mistral5types5testss_51test_mistral_request_serialization_without_optional
FNF:7
FNH:5
DA:16,0
DA:17,0
DA:18,0
DA:22,0
DA:23,0
DA:24,0
DA:28,1
DA:29,1
DA:30,1
DA:34,1
DA:35,1
DA:36,1
DA:96,1
DA:97,1
DA:98,1
DA:100,1
DA:101,1
DA:102,1
DA:105,1
DA:106,1
DA:107,1
DA:108,1
DA:109,1
DA:110,1
DA:111,1
DA:113,1
DA:114,1
DA:115,1
DA:116,1
DA:117,1
DA:120,1
DA:121,1
DA:122,1
DA:123,1
DA:124,1
DA:125,1
DA:126,1
DA:128,1
DA:129,1
DA:130,1
DA:131,1
DA:132,1
BRF:0
BRH:0
LF:42
LH:36
end_of_record
SF:/app/memory-core/src/embeddings/config/openai/config.rs
FN:150,_RINvMs_NtNtNtNtCsl8fXSKtwgoJ_14do_memory_core10embeddings6config6openai6configNtB5_12OpenAIConfig13with_base_urlpEBd_
FN:159,_RNCNvMs_NtNtNtNtCsl8fXSKtwgoJ_14do_memory_core10embeddings6config6openai6configNtB6_12OpenAIConfig19effective_dimension0Be_
FN:22,_RNvMNtNtNtNtCsl8fXSKtwgoJ_14do_memory_core10embeddings6config6openai6configNtB2_11OpenAIModel10model_name
FN:48,_RNvMNtNtNtNtCsl8fXSKtwgoJ_14do_memory_core10embeddings6config6openai6configNtB2_11OpenAIModel13max_dimension
FN:32,_RNvMNtNtNtNtCsl8fXSKtwgoJ_14do_memory_core10embeddings6config6openai6configNtB2_11OpenAIModel17default_dimension
FN:42,_RNvMNtNtNtNtCsl8fXSKtwgoJ_14do_memory_core10embeddings6config6openai6configNtB2_11OpenAIModel19supports_dimensions
FN:164,_RNvMs_NtNtNtNtCsl8fXSKtwgoJ_14do_memory_core10embeddings6config6openai6configNtB4_12OpenAIConfig14embeddings_url
FN:129,_RNvMs_NtNtNtNtCsl8fXSKtwgoJ_14do_memory_core10embeddings6config6openai6configNtB4_12OpenAIConfig15with_dimensions
FN:157,_RNvMs_NtNtNtNtCsl8fXSKtwgoJ_14do_memory_core10embeddings6config6openai6configNtB4_12OpenAIConfig19effective_dimension
FN:143,_RNvMs_NtNtNtNtCsl8fXSKtwgoJ_14do_memory_core10embeddings6config6openai6configNtB4_12OpenAIConfig20with_encoding_format
FN:120,_RNvMs_NtNtNtNtCsl8fXSKtwgoJ_14do_memory_core10embeddings6config6openai6configNtB4_12OpenAIConfig22text_embedding_3_large
FN:114,_RNvMs_NtNtNtNtCsl8fXSKtwgoJ_14do_memory_core10embeddings6config6openai6configNtB4_12OpenAIConfig22text_embedding_3_small
FN:96,_RNvMs_NtNtNtNtCsl8fXSKtwgoJ_14do_memory_core10embeddings6config6openai6configNtB4_12OpenAIConfig3new
FN:108,_RNvMs_NtNtNtNtCsl8fXSKtwgoJ_14do_memory_core10embeddings6config6openai6configNtB4_12OpenAIConfig7ada_002
FN:172,_RNvMs_NtNtNtNtCsl8fXSKtwgoJ_14do_memory_core10embeddings6config6openai6configNtB4_12OpenAIConfig8validate
FN:89,_RNvNtNtNtNtCsl8fXSKtwgoJ_14do_memory_core10embeddings6config6openai6config23default_openai_base_url
FN:190,_RNvXs0_NtNtNtNtCsl8fXSKtwgoJ_14do_memory_core10embeddings6config6openai6configNtB5_12OpenAIConfigNtNtCs4kUJL3MZFFz_4core7default7Default7default
FN:159,_RNCNvMs_NtNtNtNtCs46cA19QElOV_14do_memory_core10embeddings6config6openai6configNtB6_12OpenAIConfig19effective_dimension0Be_
FN:150,_RINvMs_NtNtNtNtCs46cA19QElOV_14do_memory_core10embeddings6config6openai6configNtB5_12OpenAIConfig13with_base_urlpEBd_
FN:164,_RNvMs_NtNtNtNtCs46cA19QElOV_14do_memory_core10embeddings6config6openai6configNtB4_12OpenAIConfig14embeddings_url
FN:190,_RNvXs0_NtNtNtNtCs46cA19QElOV_14do_memory_core10embeddings6config6openai6configNtB5_12OpenAIConfigNtNtCs4kUJL3MZFFz_4core7default7Default7default
FN:214,_RNvNtNtNtNtNtCs46cA19QElOV_14do_memory_core10embeddings6config6openai6config5testss_26test_openai_config_builder
FN:200,_RNvNtNtNtNtNtCs46cA19QElOV_14do_memory_core10embeddings6config6openai6config5testss_26test_openai_model_defaults
FN:232,_RNvNtNtNtNtNtCs46cA19QElOV_14do_memory_core10embeddings6config6openai6config5testss_29test_openai_config_validation
FN:241,_RNvNtNtNtNtNtCs46cA19QElOV_14do_memory_core10embeddings6config6openai6config5testss_32test_openai_config_serialization
FN:226,_RNvNtNtNtNtNtCs46cA19QElOV_14do_memory_core10embeddings6config6openai6config5testss_36test_openai_config_default_dimension
FN:207,_RNvNtNtNtNtNtCs46cA19QElOV_14do_memory_core10embeddings6config6openai6config5testss_37test_openai_model_supports_dimensions
FN:22,_RNvMNtNtNtNtCs46cA19QElOV_14do_memory_core10embeddings6config6openai6configNtB2_11OpenAIModel10model_name
FN:48,_RNvMNtNtNtNtCs46cA19QElOV_14do_memory_core10embeddings6config6openai6configNtB2_11OpenAIModel13max_dimension
FN:32,_RNvMNtNtNtNtCs46cA19QElOV_14do_memory_core10embeddings6config6openai6configNtB2_11OpenAIModel17default_dimension
FN:42,_RNvMNtNtNtNtCs46cA19QElOV_14do_memory_core10embeddings6config6openai6configNtB2_11OpenAIModel19supports_dimensions
FN:129,_RNvMs_NtNtNtNtCs46cA19QElOV_14do_memory_core10embeddings6config6openai6configNtB4_12OpenAIConfig15with_dimensions
FN:157,_RNvMs_NtNtNtNtCs46cA19QElOV_14do_memory_core10embeddings6config6openai6configNtB4_12OpenAIConfig19effective_dimension
FN:143,_RNvMs_NtNtNtNtCs46cA19QElOV_14do_memory_core10embeddings6config6openai6configNtB4_12OpenAIConfig20with_encoding_format
FN:120,_RNvMs_NtNtNtNtCs46cA19QElOV_14do_memory_core10embeddings6config6openai6configNtB4_12OpenAIConfig22text_embedding_3_large
FN:114,_RNvMs_NtNtNtNtCs46cA19QElOV_14do_memory_core10embeddings6config6openai6configNtB4_12OpenAIConfig22text_embedding_3_small
FN:96,_RNvMs_NtNtNtNtCs46cA19QElOV_14do_memory_core10embeddings6config6openai6configNtB4_12OpenAIConfig3new
FN:108,_RNvMs_NtNtNtNtCs46cA19QElOV_14do_memory_core10embeddings6config6openai6configNtB4_12OpenAIConfig7ada_002
FN:172,_RNvMs_NtNtNtNtCs46cA19QElOV_14do_memory_core10embeddings6config6openai6configNtB4_12OpenAIConfig8validate
FN:89,_RNvNtNtNtNtCs46cA19QElOV_14do_memory_core10embeddings6config6openai6config23default_openai_base_url
FN:150,_RINvMs_NtNtNtNtCsl8fXSKtwgoJ_14do_memory_core10embeddings6config6openai6configNtB5_12OpenAIConfig13with_base_urlReECs3rP8tMilkZA_25openai_config_phase2_test
FNDA:0,_RINvMs_NtNtNtNtCsl8fXSKtwgoJ_14do_memory_core10embeddings6config6openai6configNtB5_12OpenAIConfig13with_base_urlpEBd_
FNDA:3,_RNCNvMs_NtNtNtNtCsl8fXSKtwgoJ_14do_memory_core10embeddings6config6openai6configNtB6_12OpenAIConfig19effective_dimension0Be_
FNDA:0,_RNvMNtNtNtNtCsl8fXSKtwgoJ_14do_memory_core10embeddings6config6openai6configNtB2_11OpenAIModel10model_name
FNDA:5,_RNvMNtNtNtNtCsl8fXSKtwgoJ_14do_memory_core10embeddings6config6openai6configNtB2_11OpenAIModel13max_dimension
FNDA:3,_RNvMNtNtNtNtCsl8fXSKtwgoJ_14do_memory_core10embeddings6config6openai6configNtB2_11OpenAIModel17default_dimension
FNDA:2,_RNvMNtNtNtNtCsl8fXSKtwgoJ_14do_memory_core10embeddings6config6openai6configNtB2_11OpenAIModel19supports_dimensions
FNDA:2,_RNvMs_NtNtNtNtCsl8fXSKtwgoJ_14do_memory_core10embeddings6config6openai6configNtB4_12OpenAIConfig14embeddings_url
FNDA:4,_RNvMs_NtNtNtNtCsl8fXSKtwgoJ_14do_memory_core10embeddings6config6openai6configNtB4_12OpenAIConfig15with_dimensions
FNDA:4,_RNvMs_NtNtNtNtCsl8fXSKtwgoJ_14do_memory_core10embeddings6config6openai6configNtB4_12OpenAIConfig19effective_dimension
FNDA:3,_RNvMs_NtNtNtNtCsl8fXSKtwgoJ_14do_memory_core10embeddings6config6openai6configNtB4_12OpenAIConfig20with_encoding_format
FNDA:1,_RNvMs_NtNtNtNtCsl8fXSKtwgoJ_14do_memory_core10embeddings6config6openai6configNtB4_12OpenAIConfig22text_embedding_3_large
FNDA:10,_RNvMs_NtNtNtNtCsl8fXSKtwgoJ_14do_memory_core10embeddings6config6openai6configNtB4_12OpenAIConfig22text_embedding_3_small
FNDA:13,_RNvMs_NtNtNtNtCsl8fXSKtwgoJ_14do_memory_core10embeddings6config6openai6configNtB4_12OpenAIConfig3new
FNDA:2,_RNvMs_NtNtNtNtCsl8fXSKtwgoJ_14do_memory_core10embeddings6config6openai6configNtB4_12OpenAIConfig7ada_002
FNDA:2,_RNvMs_NtNtNtNtCsl8fXSKtwgoJ_14do_memory_core10embeddings6config6openai6configNtB4_12OpenAIConfig8validate
FNDA:13,_RNvNtNtNtNtCsl8fXSKtwgoJ_14do_memory_core10embeddings6config6openai6config23default_openai_base_url
FNDA:0,_RNvXs0_NtNtNtNtCsl8fXSKtwgoJ_14do_memory_core10embeddings6config6openai6configNtB5_12OpenAIConfigNtNtCs4kUJL3MZFFz_4core7default7Default7default
FNDA:5,_RNCNvMs_NtNtNtNtCs46cA19QElOV_14do_memory_core10embeddings6config6openai6configNtB6_12OpenAIConfig19effective_dimension0Be_
FNDA:0,_RINvMs_NtNtNtNtCs46cA19QElOV_14do_memory_core10embeddings6config6openai6configNtB5_12OpenAIConfig13with_base_urlpEBd_
FNDA:0,_RNvMs_NtNtNtNtCs46cA19QElOV_14do_memory_core10embeddings6config6openai6configNtB4_12OpenAIConfig14embeddings_url
FNDA:0,_RNvXs0_NtNtNtNtCs46cA19QElOV_14do_memory_core10embeddings6config6openai6configNtB5_12OpenAIConfigNtNtCs4kUJL3MZFFz_4core7default7Default7default
FNDA:1,_RNvNtNtNtNtNtCs46cA19QElOV_14do_memory_core10embeddings6config6openai6config5testss_26test_openai_config_builder
FNDA:1,_RNvNtNtNtNtNtCs46cA19QElOV_14do_memory_core10embeddings6config6openai6config5testss_26test_openai_model_defaults
FNDA:1,_RNvNtNtNtNtNtCs46cA19QElOV_14do_memory_core10embeddings6config6openai6config5testss_29test_openai_config_validation
FNDA:1,_RNvNtNtNtNtNtCs46cA19QElOV_14do_memory_core10embeddings6config6openai6config5testss_32test_openai_config_serialization
FNDA:1,_RNvNtNtNtNtNtCs46cA19QElOV_14do_memory_core10embeddings6config6openai6config5testss_36test_openai_config_default_dimension
FNDA:1,_RNvNtNtNtNtNtCs46cA19QElOV_14do_memory_core10embeddings6config6openai6config5testss_37test_openai_model_supports_dimensions
FNDA:1,_RNvMNtNtNtNtCs46cA19QElOV_14do_memory_core10embeddings6config6openai6configNtB2_11OpenAIModel10model_name
FNDA:5,_RNvMNtNtNtNtCs46cA19QElOV_14do_memory_core10embeddings6config6openai6configNtB2_11OpenAIModel13max_dimension
FNDA:8,_RNvMNtNtNtNtCs46cA19QElOV_14do_memory_core10embeddings6config6openai6configNtB2_11OpenAIModel17default_dimension
FNDA:5,_RNvMNtNtNtNtCs46cA19QElOV_14do_memory_core10embeddings6config6openai6configNtB2_11OpenAIModel19supports_dimensions
FNDA:4,_RNvMs_NtNtNtNtCs46cA19QElOV_14do_memory_core10embeddings6config6openai6configNtB4_12OpenAIConfig15with_dimensions
FNDA:6,_RNvMs_NtNtNtNtCs46cA19QElOV_14do_memory_core10embeddings6config6openai6configNtB4_12OpenAIConfig19effective_dimension
FNDA:1,_RNvMs_NtNtNtNtCs46cA19QElOV_14do_memory_core10embeddings6config6openai6configNtB4_12OpenAIConfig20with_encoding_format
FNDA:1,_RNvMs_NtNtNtNtCs46cA19QElOV_14do_memory_core10embeddings6config6openai6configNtB4_12OpenAIConfig22text_embedding_3_large
FNDA:8,_RNvMs_NtNtNtNtCs46cA19QElOV_14do_memory_core10embeddings6config6openai6configNtB4_12OpenAIConfig22text_embedding_3_small
FNDA:10,_RNvMs_NtNtNtNtCs46cA19QElOV_14do_memory_core10embeddings6config6openai6configNtB4_12OpenAIConfig3new
FNDA:1,_RNvMs_NtNtNtNtCs46cA19QElOV_14do_memory_core10embeddings6config6openai6configNtB4_12OpenAIConfig7ada_002
FNDA:2,_RNvMs_NtNtNtNtCs46cA19QElOV_14do_memory_core10embeddings6config6openai6configNtB4_12OpenAIConfig8validate
FNDA:10,_RNvNtNtNtNtCs46cA19QElOV_14do_memory_core10embeddings6config6openai6config23default_openai_base_url
FNDA:3,_RINvMs_NtNtNtNtCsl8fXSKtwgoJ_14do_memory_core10embeddings6config6openai6configNtB5_12OpenAIConfig13with_base_urlReECs3rP8tMilkZA_25openai_config_phase2_test
FNF:23
FNH:22
DA:22,1
DA:23,1
DA:24,0
DA:25,1
DA:26,0
DA:28,1
DA:32,11
DA:33,11
DA:34,2
DA:35,6
DA:36,3
DA:38,11
DA:42,7
DA:43,7
DA:44,7
DA:48,10
DA:49,10
DA:50,2
DA:51,8
DA:52,0
DA:54,10
DA:89,23
DA:90,23
DA:91,23
DA:96,23
DA:97,23
DA:98,23
DA:99,23
DA:100,23
DA:101,23
DA:102,23
DA:103,23
DA:104,23
DA:108,3
DA:109,3
DA:110,3
DA:114,18
DA:115,18
DA:116,18
DA:120,2
DA:121,2
DA:122,2
DA:129,8
DA:130,8
DA:131,8
DA:134,0
DA:137,8
DA:138,8
DA:139,8
DA:143,4
DA:144,4
DA:145,4
DA:146,4
DA:150,3
DA:151,3
DA:152,3
DA:153,3
DA:157,10
DA:158,10
DA:159,10
DA:160,10
DA:164,2
DA:165,2
DA:166,2
DA:172,4
DA:173,4
DA:174,4
DA:175,2
DA:176,2
DA:177,2
DA:178,0
DA:180,0
DA:183,2
DA:184,0
DA:185,2
DA:186,4
DA:190,0
DA:191,0
DA:192,0
DA:200,1
DA:201,1
DA:202,1
DA:203,1
DA:204,1
DA:207,1
DA:208,1
DA:209,1
DA:210,1
DA:211,1
DA:214,1
DA:215,1
DA:216,1
DA:217,1
DA:219,1
DA:220,1
DA:221,1
DA:222,1
DA:223,1
DA:226,1
DA:227,1
DA:228,1
DA:229,1
DA:232,1
DA:233,1
DA:234,1
DA:236,1
DA:237,1
DA:238,1
DA:241,1
DA:242,1
DA:244,1
DA:245,1
DA:247,1
DA:248,1
DA:249,1
BRF:0
BRH:0
LF:116
LH:106
end_of_record
SF:/app/memory-core/src/embeddings/config/openai/types.rs
FN:16,_RNvXNtNtNtNtCsl8fXSKtwgoJ_14do_memory_core10embeddings6config6openai5typesNtB2_20OpenAIEmbeddingInputINtNtCs4kUJL3MZFFz_4core7convert4FromNtNtCsauO83Ko6oyK_5alloc6string6StringE4from
FN:28,_RNvXs0_NtNtNtNtCsl8fXSKtwgoJ_14do_memory_core10embeddings6config6openai5typesNtB5_20OpenAIEmbeddingInputINtNtCs4kUJL3MZFFz_4core7convert4FromReE4from
FN:34,_RNvXs1_NtNtNtNtCsl8fXSKtwgoJ_14do_memory_core10embeddings6config6openai5typesNtB5_20OpenAIEmbeddingInputINtNtCs4kUJL3MZFFz_4core7convert4FromINtNtCsauO83Ko6oyK_5alloc3vec3VecReEE4from
FN:22,_RNvXs_NtNtNtNtCsl8fXSKtwgoJ_14do_memory_core10embeddings6config6openai5typesNtB4_20OpenAIEmbeddingInputINtNtCs4kUJL3MZFFz_4core7convert4FromINtNtCsauO83Ko6oyK_5alloc3vec3VecNtNtB2j_6string6StringEE4from
FN:16,_RNvXNtNtNtNtCs46cA19QElOV_14do_memory_core10embeddings6config6openai5typesNtB2_20OpenAIEmbeddingInputINtNtCs4kUJL3MZFFz_4core7convert4FromNtNtCsauO83Ko6oyK_5alloc6string6StringE4from
FN:22,_RNvXs_NtNtNtNtCs46cA19QElOV_14do_memory_core10embeddings6config6openai5typesNtB4_20OpenAIEmbeddingInputINtNtCs4kUJL3MZFFz_4core7convert4FromINtNtCsauO83Ko6oyK_5alloc3vec3VecNtNtB2j_6string6StringEE4from
FN:101,_RNvNtNtNtNtNtCs46cA19QElOV_14do_memory_core10embeddings6config6openai5types5testss_26test_request_serialization
FN:92,_RNvNtNtNtNtNtCs46cA19QElOV_14do_memory_core10embeddings6config6openai5types5testss_32test_embedding_input_conversions
FN:28,_RNvXs0_NtNtNtNtCs46cA19QElOV_14do_memory_core10embeddings6config6openai5typesNtB5_20OpenAIEmbeddingInputINtNtCs4kUJL3MZFFz_4core7convert4FromReE4from
FN:34,_RNvXs1_NtNtNtNtCs46cA19QElOV_14do_memory_core10embeddings6config6openai5typesNtB5_20OpenAIEmbeddingInputINtNtCs4kUJL3MZFFz_4core7convert4FromINtNtCsauO83Ko6oyK_5alloc3vec3VecReEE4from
FNDA:0,_RNvXNtNtNtNtCsl8fXSKtwgoJ_14do_memory_core10embeddings6config6openai5typesNtB2_20OpenAIEmbeddingInputINtNtCs4kUJL3MZFFz_4core7convert4FromNtNtCsauO83Ko6oyK_5alloc6string6StringE4from
FNDA:0,_RNvXs0_NtNtNtNtCsl8fXSKtwgoJ_14do_memory_core10embeddings6config6openai5typesNtB5_20OpenAIEmbeddingInputINtNtCs4kUJL3MZFFz_4core7convert4FromReE4from
FNDA:0,_RNvXs1_NtNtNtNtCsl8fXSKtwgoJ_14do_memory_core10embeddings6config6openai5typesNtB5_20OpenAIEmbeddingInputINtNtCs4kUJL3MZFFz_4core7convert4FromINtNtCsauO83Ko6oyK_5alloc3vec3VecReEE4from
FNDA:0,_RNvXs_NtNtNtNtCsl8fXSKtwgoJ_14do_memory_core10embeddings6config6openai5typesNtB4_20OpenAIEmbeddingInputINtNtCs4kUJL3MZFFz_4core7convert4FromINtNtCsauO83Ko6oyK_5alloc3vec3VecNtNtB2j_6string6StringEE4from
FNDA:0,_RNvXNtNtNtNtCs46cA19QElOV_14do_memory_core10embeddings6config6openai5typesNtB2_20OpenAIEmbeddingInputINtNtCs4kUJL3MZFFz_4core7convert4FromNtNtCsauO83Ko6oyK_5alloc6string6StringE4from
FNDA:0,_RNvXs_NtNtNtNtCs46cA19QElOV_14do_memory_core10embeddings6config6openai5typesNtB4_20OpenAIEmbeddingInputINtNtCs4kUJL3MZFFz_4core7convert4FromINtNtCsauO83Ko6oyK_5alloc3vec3VecNtNtB2j_6string6StringEE4from
FNDA:1,_RNvNtNtNtNtNtCs46cA19QElOV_14do_memory_core10embeddings6config6openai5types5testss_26test_request_serialization
FNDA:1,_RNvNtNtNtNtNtCs46cA19QElOV_14do_memory_core10embeddings6config6openai5types5testss_32test_embedding_input_conversions
FNDA:1,_RNvXs0_NtNtNtNtCs46cA19QElOV_14do_memory_core10embeddings6config6openai5typesNtB5_20OpenAIEmbeddingInputINtNtCs4kUJL3MZFFz_4core7convert4FromReE4from
FNDA:1,_RNvXs1_NtNtNtNtCs46cA19QElOV_14do_memory_core10embeddings6config6openai5typesNtB5_20OpenAIEmbeddingInputINtNtCs4kUJL3MZFFz_4core7convert4FromINtNtCsauO83Ko6oyK_5alloc3vec3VecReEE4from
FNF:6
FNH:4
DA:16,0
DA:17,0
DA:18,0
DA:22,0
DA:23,0
DA:24,0
DA:28,1
DA:29,1
DA:30,1
DA:34,1
DA:35,1
DA:36,1
DA:92,1
DA:93,1
DA:94,1
DA:96,1
DA:97,1
DA:98,1
DA:101,1
DA:102,1
DA:103,1
DA:104,1
DA:105,1
DA:106,1
DA:107,1
DA:109,1
DA:110,1
DA:111,1
DA:112,1
BRF:0
BRH:0
LF:29
LH:23
end_of_record
SF:/app/memory-core/src/embeddings/config/optimization_config.rs
FN:191,_RNvMs_NtNtNtCsl8fXSKtwgoJ_14do_memory_core10embeddings6config19optimization_configNtB4_18OptimizationConfig18get_max_batch_size
FN:185,_RNvMs_NtNtNtCsl8fXSKtwgoJ_14do_memory_core10embeddings6config19optimization_configNtB4_18OptimizationConfig19get_timeout_seconds
FN:142,_RNvMs_NtNtNtCsl8fXSKtwgoJ_14do_memory_core10embeddings6config19optimization_configNtB4_18OptimizationConfig5azure
FN:166,_RNvMs_NtNtNtCsl8fXSKtwgoJ_14do_memory_core10embeddings6config19optimization_configNtB4_18OptimizationConfig5local
FN:94,_RNvMs_NtNtNtCsl8fXSKtwgoJ_14do_memory_core10embeddings6config19optimization_configNtB4_18OptimizationConfig6openai
FN:118,_RNvMs_NtNtNtCsl8fXSKtwgoJ_14do_memory_core10embeddings6config19optimization_configNtB4_18OptimizationConfig7mistral
FN:60,_RNvNtNtNtCsl8fXSKtwgoJ_14do_memory_core10embeddings6config19optimization_config17default_pool_size
FN:56,_RNvNtNtNtCsl8fXSKtwgoJ_14do_memory_core10embeddings6config19optimization_config19default_compression
FN:48,_RNvNtNtNtCsl8fXSKtwgoJ_14do_memory_core10embeddings6config19optimization_config19default_max_retries
FN:68,_RNvNtNtNtCsl8fXSKtwgoJ_14do_memory_core10embeddings6config19optimization_config22default_enable_metrics
FN:52,_RNvNtNtNtCsl8fXSKtwgoJ_14do_memory_core10embeddings6config19optimization_config22default_retry_delay_ms
FN:64,_RNvNtNtNtCsl8fXSKtwgoJ_14do_memory_core10embeddings6config19optimization_config29default_compression_threshold
FN:73,_RNvXNtNtNtCsl8fXSKtwgoJ_14do_memory_core10embeddings6config19optimization_configNtB2_18OptimizationConfigNtNtCs4kUJL3MZFFz_4core7default7Default7default
FN:191,_RNvMs_NtNtNtCs46cA19QElOV_14do_memory_core10embeddings6config19optimization_configNtB4_18OptimizationConfig18get_max_batch_size
FN:185,_RNvMs_NtNtNtCs46cA19QElOV_14do_memory_core10embeddings6config19optimization_configNtB4_18OptimizationConfig19get_timeout_seconds
FN:142,_RNvMs_NtNtNtCs46cA19QElOV_14do_memory_core10embeddings6config19optimization_configNtB4_18OptimizationConfig5azure
FN:166,_RNvMs_NtNtNtCs46cA19QElOV_14do_memory_core10embeddings6config19optimization_configNtB4_18OptimizationConfig5local
FN:94,_RNvMs_NtNtNtCs46cA19QElOV_14do_memory_core10embeddings6config19optimization_configNtB4_18OptimizationConfig6openai
FN:118,_RNvMs_NtNtNtCs46cA19QElOV_14do_memory_core10embeddings6config19optimization_configNtB4_18OptimizationConfig7mistral
FN:60,_RNvNtNtNtCs46cA19QElOV_14do_memory_core10embeddings6config19optimization_config17default_pool_size
FN:56,_RNvNtNtNtCs46cA19QElOV_14do_memory_core10embeddings6config19optimization_config19default_compression
FN:48,_RNvNtNtNtCs46cA19QElOV_14do_memory_core10embeddings6config19optimization_config19default_max_retries
FN:68,_RNvNtNtNtCs46cA19QElOV_14do_memory_core10embeddings6config19optimization_config22default_enable_metrics
FN:52,_RNvNtNtNtCs46cA19QElOV_14do_memory_core10embeddings6config19optimization_config22default_retry_delay_ms
FN:64,_RNvNtNtNtCs46cA19QElOV_14do_memory_core10embeddings6config19optimization_config29default_compression_threshold
FN:73,_RNvXNtNtNtCs46cA19QElOV_14do_memory_core10embeddings6config19optimization_configNtB2_18OptimizationConfigNtNtCs4kUJL3MZFFz_4core7default7Default7default
FN:201,_RNvNtNtNtNtCs46cA19QElOV_14do_memory_core10embeddings6config19optimization_config5testss_33test_optimization_config_profiles
FN:237,_RNvNtNtNtNtCs46cA19QElOV_14do_memory_core10embeddings6config19optimization_config5testss_38test_optimization_config_serialization
FN:221,_RNvNtNtNtNtCs46cA19QElOV_14do_memory_core10embeddings6config19optimization_config5testss_39test_optimization_config_helper_methods
FNDA:0,_RNvMs_NtNtNtCsl8fXSKtwgoJ_14do_memory_core10embeddings6config19optimization_configNtB4_18OptimizationConfig18get_max_batch_size
FNDA:0,_RNvMs_NtNtNtCsl8fXSKtwgoJ_14do_memory_core10embeddings6config19optimization_configNtB4_18OptimizationConfig19get_timeout_seconds
FNDA:0,_RNvMs_NtNtNtCsl8fXSKtwgoJ_14do_memory_core10embeddings6config19optimization_configNtB4_18OptimizationConfig5azure
FNDA:182,_RNvMs_NtNtNtCsl8fXSKtwgoJ_14do_memory_core10embeddings6config19optimization_configNtB4_18OptimizationConfig5local
FNDA:13,_RNvMs_NtNtNtCsl8fXSKtwgoJ_14do_memory_core10embeddings6config19optimization_configNtB4_18OptimizationConfig6openai
FNDA:0,_RNvMs_NtNtNtCsl8fXSKtwgoJ_14do_memory_core10embeddings6config19optimization_configNtB4_18OptimizationConfig7mistral
FNDA:0,_RNvNtNtNtCsl8fXSKtwgoJ_14do_memory_core10embeddings6config19optimization_config17default_pool_size
FNDA:0,_RNvNtNtNtCsl8fXSKtwgoJ_14do_memory_core10embeddings6config19optimization_config19default_compression
FNDA:0,_RNvNtNtNtCsl8fXSKtwgoJ_14do_memory_core10embeddings6config19optimization_config19default_max_retries
FNDA:0,_RNvNtNtNtCsl8fXSKtwgoJ_14do_memory_core10embeddings6config19optimization_config22default_enable_metrics
FNDA:0,_RNvNtNtNtCsl8fXSKtwgoJ_14do_memory_core10embeddings6config19optimization_config22default_retry_delay_ms
FNDA:0,_RNvNtNtNtCsl8fXSKtwgoJ_14do_memory_core10embeddings6config19optimization_config29default_compression_threshold
FNDA:0,_RNvXNtNtNtCsl8fXSKtwgoJ_14do_memory_core10embeddings6config19optimization_configNtB2_18OptimizationConfigNtNtCs4kUJL3MZFFz_4core7default7Default7default
FNDA:2,_RNvMs_NtNtNtCs46cA19QElOV_14do_memory_core10embeddings6config19optimization_configNtB4_18OptimizationConfig18get_max_batch_size
FNDA:2,_RNvMs_NtNtNtCs46cA19QElOV_14do_memory_core10embeddings6config19optimization_configNtB4_18OptimizationConfig19get_timeout_seconds
FNDA:2,_RNvMs_NtNtNtCs46cA19QElOV_14do_memory_core10embeddings6config19optimization_configNtB4_18OptimizationConfig5azure
FNDA:80,_RNvMs_NtNtNtCs46cA19QElOV_14do_memory_core10embeddings6config19optimization_configNtB4_18OptimizationConfig5local
FNDA:11,_RNvMs_NtNtNtCs46cA19QElOV_14do_memory_core10embeddings6config19optimization_configNtB4_18OptimizationConfig6openai
FNDA:12,_RNvMs_NtNtNtCs46cA19QElOV_14do_memory_core10embeddings6config19optimization_configNtB4_18OptimizationConfig7mistral
FNDA:2,_RNvNtNtNtCs46cA19QElOV_14do_memory_core10embeddings6config19optimization_config17default_pool_size
FNDA:2,_RNvNtNtNtCs46cA19QElOV_14do_memory_core10embeddings6config19optimization_config19default_compression
FNDA:2,_RNvNtNtNtCs46cA19QElOV_14do_memory_core10embeddings6config19optimization_config19default_max_retries
FNDA:2,_RNvNtNtNtCs46cA19QElOV_14do_memory_core10embeddings6config19optimization_config22default_enable_metrics
FNDA:2,_RNvNtNtNtCs46cA19QElOV_14do_memory_core10embeddings6config19optimization_config22default_retry_delay_ms
FNDA:2,_RNvNtNtNtCs46cA19QElOV_14do_memory_core10embeddings6config19optimization_config29default_compression_threshold
FNDA:2,_RNvXNtNtNtCs46cA19QElOV_14do_memory_core10embeddings6config19optimization_configNtB2_18OptimizationConfigNtNtCs4kUJL3MZFFz_4core7default7Default7default
FNDA:1,_RNvNtNtNtNtCs46cA19QElOV_14do_memory_core10embeddings6config19optimization_config5testss_33test_optimization_config_profiles
FNDA:1,_RNvNtNtNtNtCs46cA19QElOV_14do_memory_core10embeddings6config19optimization_config5testss_38test_optimization_config_serialization
FNDA:1,_RNvNtNtNtNtCs46cA19QElOV_14do_memory_core10embeddings6config19optimization_config5testss_39test_optimization_config_helper_methods
FNF:16
FNH:16
DA:48,2
DA:49,2
DA:50,2
DA:52,2
DA:53,2
DA:54,2
DA:56,2
DA:57,2
DA:58,2
DA:60,2
DA:61,2
DA:62,2
DA:64,2
DA:65,2
DA:66,2
DA:68,2
DA:69,2
DA:70,2
DA:73,2
DA:74,2
DA:75,2
DA:76,2
DA:77,2
DA:78,2
DA:79,2
DA:80,2
DA:81,2
DA:82,2
DA:83,2
DA:84,2
DA:85,2
DA:86,2
DA:87,2
DA:88,2
DA:94,24
DA:95,24
DA:96,24
DA:97,24
DA:98,24
DA:99,24
DA:100,24
DA:101,24
DA:102,24
DA:103,24
DA:104,24
DA:105,24
DA:106,24
DA:107,24
DA:108,24
DA:109,24
DA:110,24
DA:111,24
DA:112,24
DA:113,24
DA:114,24
DA:118,12
DA:119,12
DA:120,12
DA:121,12
DA:122,12
DA:123,12
DA:124,12
DA:125,12
DA:126,12
DA:127,12
DA:128,12
DA:129,12
DA:130,12
DA:131,12
DA:132,12
DA:133,12
DA:134,12
DA:135,12
DA:136,12
DA:137,12
DA:138,12
DA:142,2
DA:143,2
DA:144,2
DA:145,2
DA:146,2
DA:147,2
DA:148,2
DA:149,2
DA:150,2
DA:151,2
DA:152,2
DA:153,2
DA:154,2
DA:155,2
DA:156,2
DA:157,2
DA:158,2
DA:159,2
DA:160,2
DA:161,2
DA:162,2
DA:166,262
DA:167,262
DA:168,262
DA:169,262
DA:170,262
DA:171,262
DA:172,262
DA:173,262
DA:174,262
DA:175,262
DA:176,262
DA:177,262
DA:178,262
DA:179,262
DA:180,262
DA:181,262
DA:185,2
DA:186,2
DA:187,2
DA:191,2
DA:192,2
DA:193,2
DA:201,1
DA:202,1
DA:203,1
DA:204,1
DA:205,1
DA:207,1
DA:208,1
DA:209,1
DA:211,1
DA:212,1
DA:213,1
DA:215,1
DA:216,1
DA:217,1
DA:218,1
DA:221,1
DA:222,1
DA:223,1
DA:224,1
DA:226,1
DA:227,1
DA:229,1
DA:230,1
DA:232,1
DA:233,1
DA:234,1
DA:237,1
DA:238,1
DA:239,1
DA:240,1
DA:241,1
DA:242,1
DA:244,1
DA:245,1
DA:246,1
BRF:0
BRH:0
LF:154
LH:154
end_of_record
SF:/app/memory-core/src/embeddings/config/provider_config.rs
FN:89,_RINvMs0_NtNtNtCsl8fXSKtwgoJ_14do_memory_core10embeddings6config15provider_configNtB6_17AzureOpenAIConfig3newpppEBc_
FN:156,_RINvMs1_NtNtNtCsl8fXSKtwgoJ_14do_memory_core10embeddings6config15provider_configNtB6_12CustomConfig13with_endpointpEBc_
FN:140,_RINvMs1_NtNtNtCsl8fXSKtwgoJ_14do_memory_core10embeddings6config15provider_configNtB6_12CustomConfig3newppEBc_
FN:295,_RINvMs4_NtNtNtCsl8fXSKtwgoJ_14do_memory_core10embeddings6config15provider_configNtB6_14ProviderConfig26local_sentence_transformerpEBc_
FN:49,_RINvMNtNtNtCsl8fXSKtwgoJ_14do_memory_core10embeddings6config15provider_configNtB3_11LocalConfig3newReEB9_
FN:59,_RNvMNtNtNtCsl8fXSKtwgoJ_14do_memory_core10embeddings6config15provider_configNtB2_11LocalConfig19effective_dimension
FN:106,_RNvMs0_NtNtNtCsl8fXSKtwgoJ_14do_memory_core10embeddings6config15provider_configNtB5_17AzureOpenAIConfig12endpoint_url
FN:115,_RNvMs0_NtNtNtCsl8fXSKtwgoJ_14do_memory_core10embeddings6config15provider_configNtB5_17AzureOpenAIConfig19effective_dimension
FN:163,_RNvMs1_NtNtNtCsl8fXSKtwgoJ_14do_memory_core10embeddings6config15provider_configNtB5_12CustomConfig14embeddings_url
FN:176,_RNvMs1_NtNtNtCsl8fXSKtwgoJ_14do_memory_core10embeddings6config15provider_configNtB5_12CustomConfig19effective_dimension
FN:208,_RNvMs2_NtNtNtCsl8fXSKtwgoJ_14do_memory_core10embeddings6config15provider_configNtB5_14ProviderConfig10model_name
FN:196,_RNvMs2_NtNtNtCsl8fXSKtwgoJ_14do_memory_core10embeddings6config15provider_configNtB5_14ProviderConfig12optimization
FN:244,_RNvMs2_NtNtNtCsl8fXSKtwgoJ_14do_memory_core10embeddings6config15provider_configNtB5_14ProviderConfig13local_default
FN:232,_RNvMs2_NtNtNtCsl8fXSKtwgoJ_14do_memory_core10embeddings6config15provider_configNtB5_14ProviderConfig14openai_default
FN:238,_RNvMs2_NtNtNtCsl8fXSKtwgoJ_14do_memory_core10embeddings6config15provider_configNtB5_14ProviderConfig15mistral_default
FN:184,_RNvMs2_NtNtNtCsl8fXSKtwgoJ_14do_memory_core10embeddings6config15provider_configNtB5_14ProviderConfig19effective_dimension
FN:222,_RNvMs2_NtNtNtCsl8fXSKtwgoJ_14do_memory_core10embeddings6config15provider_configNtB5_14ProviderConfig8validate
FN:277,_RNvMs4_NtNtNtCsl8fXSKtwgoJ_14do_memory_core10embeddings6config15provider_configNtB5_14ProviderConfig13mistral_embed
FN:265,_RNvMs4_NtNtNtCsl8fXSKtwgoJ_14do_memory_core10embeddings6config15provider_configNtB5_14ProviderConfig14openai_3_large
FN:259,_RNvMs4_NtNtNtCsl8fXSKtwgoJ_14do_memory_core10embeddings6config15provider_configNtB5_14ProviderConfig14openai_3_small
FN:271,_RNvMs4_NtNtNtCsl8fXSKtwgoJ_14do_memory_core10embeddings6config15provider_configNtB5_14ProviderConfig14openai_ada_002
FN:283,_RNvMs4_NtNtNtCsl8fXSKtwgoJ_14do_memory_core10embeddings6config15provider_configNtB5_14ProviderConfig15codestral_embed
FN:289,_RNvMs4_NtNtNtCsl8fXSKtwgoJ_14do_memory_core10embeddings6config15provider_configNtB5_14ProviderConfig16codestral_binary
FN:250,_RNvXs3_NtNtNtCsl8fXSKtwgoJ_14do_memory_core10embeddings6config15provider_configNtB5_14ProviderConfigNtNtCs4kUJL3MZFFz_4core7default7Default7default
FN:65,_RNvXs_NtNtNtCsl8fXSKtwgoJ_14do_memory_core10embeddings6config15provider_configNtB4_11LocalConfigNtNtCs4kUJL3MZFFz_4core7default7Default7default
FN:295,_RINvMs4_NtNtNtCs46cA19QElOV_14do_memory_core10embeddings6config15provider_configNtB6_14ProviderConfig26local_sentence_transformerpEBc_
FN:196,_RNvMs2_NtNtNtCs46cA19QElOV_14do_memory_core10embeddings6config15provider_configNtB5_14ProviderConfig12optimization
FN:232,_RNvMs2_NtNtNtCs46cA19QElOV_14do_memory_core10embeddings6config15provider_configNtB5_14ProviderConfig14openai_default
FN:238,_RNvMs2_NtNtNtCs46cA19QElOV_14do_memory_core10embeddings6config15provider_configNtB5_14ProviderConfig15mistral_default
FN:222,_RNvMs2_NtNtNtCs46cA19QElOV_14do_memory_core10embeddings6config15provider_configNtB5_14ProviderConfig8validate
FN:265,_RNvMs4_NtNtNtCs46cA19QElOV_14do_memory_core10embeddings6config15provider_configNtB5_14ProviderConfig14openai_3_large
FN:271,_RNvMs4_NtNtNtCs46cA19QElOV_14do_memory_core10embeddings6config15provider_configNtB5_14ProviderConfig14openai_ada_002
FN:289,_RNvMs4_NtNtNtCs46cA19QElOV_14do_memory_core10embeddings6config15provider_configNtB5_14ProviderConfig16codestral_binary
FN:49,_RINvMNtNtNtCs46cA19QElOV_14do_memory_core10embeddings6config15provider_configNtB3_11LocalConfig3newReEB9_
FN:89,_RINvMs0_NtNtNtCs46cA19QElOV_14do_memory_core10embeddings6config15provider_configNtB6_17AzureOpenAIConfig3newReB1I_B1I_EBc_
FN:156,_RINvMs1_NtNtNtCs46cA19QElOV_14do_memory_core10embeddings6config15provider_configNtB6_12CustomConfig13with_endpointReEBc_
FN:140,_RINvMs1_NtNtNtCs46cA19QElOV_14do_memory_core10embeddings6config15provider_configNtB6_12CustomConfig3newReB1D_EBc_
FN:341,_RNvNtNtNtNtCs46cA19QElOV_14do_memory_core10embeddings6config15provider_config5testss_22test_custom_config_url
FN:332,_RNvNtNtNtNtCs46cA19QElOV_14do_memory_core10embeddings6config15provider_config5testss_26test_azure_openai_endpoint
FN:305,_RNvNtNtNtNtCs46cA19QElOV_14do_memory_core10embeddings6config15provider_config5testss_31test_provider_config_dimensions
FN:320,_RNvNtNtNtNtCs46cA19QElOV_14do_memory_core10embeddings6config15provider_config5testss_32test_provider_config_model_names
FN:369,_RNvNtNtNtNtCs46cA19QElOV_14do_memory_core10embeddings6config15provider_config5testss_33test_mistral_config_serialization
FN:351,_RNvNtNtNtNtCs46cA19QElOV_14do_memory_core10embeddings6config15provider_config5testss_34test_provider_config_serialization
FN:59,_RNvMNtNtNtCs46cA19QElOV_14do_memory_core10embeddings6config15provider_configNtB2_11LocalConfig19effective_dimension
FN:106,_RNvMs0_NtNtNtCs46cA19QElOV_14do_memory_core10embeddings6config15provider_configNtB5_17AzureOpenAIConfig12endpoint_url
FN:115,_RNvMs0_NtNtNtCs46cA19QElOV_14do_memory_core10embeddings6config15provider_configNtB5_17AzureOpenAIConfig19effective_dimension
FN:163,_RNvMs1_NtNtNtCs46cA19QElOV_14do_memory_core10embeddings6config15provider_configNtB5_12CustomConfig14embeddings_url
FN:176,_RNvMs1_NtNtNtCs46cA19QElOV_14do_memory_core10embeddings6config15provider_configNtB5_12CustomConfig19effective_dimension
FN:208,_RNvMs2_NtNtNtCs46cA19QElOV_14do_memory_core10embeddings6config15provider_configNtB5_14ProviderConfig10model_name
FN:244,_RNvMs2_NtNtNtCs46cA19QElOV_14do_memory_core10embeddings6config15provider_configNtB5_14ProviderConfig13local_default
FN:184,_RNvMs2_NtNtNtCs46cA19QElOV_14do_memory_core10embeddings6config15provider_configNtB5_14ProviderConfig19effective_dimension
FN:277,_RNvMs4_NtNtNtCs46cA19QElOV_14do_memory_core10embeddings6config15provider_configNtB5_14ProviderConfig13mistral_embed
FN:259,_RNvMs4_NtNtNtCs46cA19QElOV_14do_memory_core10embeddings6config15provider_configNtB5_14ProviderConfig14openai_3_small
FN:283,_RNvMs4_NtNtNtCs46cA19QElOV_14do_memory_core10embeddings6config15provider_configNtB5_14ProviderConfig15codestral_embed
FN:250,_RNvXs3_NtNtNtCs46cA19QElOV_14do_memory_core10embeddings6config15provider_configNtB5_14ProviderConfigNtNtCs4kUJL3MZFFz_4core7default7Default7default
FN:65,_RNvXs_NtNtNtCs46cA19QElOV_14do_memory_core10embeddings6config15provider_configNtB4_11LocalConfigNtNtCs4kUJL3MZFFz_4core7default7Default7default
FNDA:0,_RINvMs0_NtNtNtCsl8fXSKtwgoJ_14do_memory_core10embeddings6config15provider_configNtB6_17AzureOpenAIConfig3newpppEBc_
FNDA:0,_RINvMs1_NtNtNtCsl8fXSKtwgoJ_14do_memory_core10embeddings6config15provider_configNtB6_12CustomConfig13with_endpointpEBc_
FNDA:0,_RINvMs1_NtNtNtCsl8fXSKtwgoJ_14do_memory_core10embeddings6config15provider_configNtB6_12CustomConfig3newppEBc_
FNDA:0,_RINvMs4_NtNtNtCsl8fXSKtwgoJ_14do_memory_core10embeddings6config15provider_configNtB6_14ProviderConfig26local_sentence_transformerpEBc_
FNDA:182,_RINvMNtNtNtCsl8fXSKtwgoJ_14do_memory_core10embeddings6config15provider_configNtB3_11LocalConfig3newReEB9_
FNDA:14,_RNvMNtNtNtCsl8fXSKtwgoJ_14do_memory_core10embeddings6config15provider_configNtB2_11LocalConfig19effective_dimension
FNDA:0,_RNvMs0_NtNtNtCsl8fXSKtwgoJ_14do_memory_core10embeddings6config15provider_configNtB5_17AzureOpenAIConfig12endpoint_url
FNDA:0,_RNvMs0_NtNtNtCsl8fXSKtwgoJ_14do_memory_core10embeddings6config15provider_configNtB5_17AzureOpenAIConfig19effective_dimension
FNDA:0,_RNvMs1_NtNtNtCsl8fXSKtwgoJ_14do_memory_core10embeddings6config15provider_configNtB5_12CustomConfig14embeddings_url
FNDA:0,_RNvMs1_NtNtNtCsl8fXSKtwgoJ_14do_memory_core10embeddings6config15provider_configNtB5_12CustomConfig19effective_dimension
FNDA:0,_RNvMs2_NtNtNtCsl8fXSKtwgoJ_14do_memory_core10embeddings6config15provider_configNtB5_14ProviderConfig10model_name
FNDA:0,_RNvMs2_NtNtNtCsl8fXSKtwgoJ_14do_memory_core10embeddings6config15provider_configNtB5_14ProviderConfig12optimization
FNDA:166,_RNvMs2_NtNtNtCsl8fXSKtwgoJ_14do_memory_core10embeddings6config15provider_configNtB5_14ProviderConfig13local_default
FNDA:0,_RNvMs2_NtNtNtCsl8fXSKtwgoJ_14do_memory_core10embeddings6config15provider_configNtB5_14ProviderConfig14openai_default
FNDA:0,_RNvMs2_NtNtNtCsl8fXSKtwgoJ_14do_memory_core10embeddings6config15provider_configNtB5_14ProviderConfig15mistral_default
FNDA:14,_RNvMs2_NtNtNtCsl8fXSKtwgoJ_14do_memory_core10embeddings6config15provider_configNtB5_14ProviderConfig19effective_dimension
FNDA:0,_RNvMs2_NtNtNtCsl8fXSKtwgoJ_14do_memory_core10embeddings6config15provider_configNtB5_14ProviderConfig8validate
FNDA:0,_RNvMs4_NtNtNtCsl8fXSKtwgoJ_14do_memory_core10embeddings6config15provider_configNtB5_14ProviderConfig13mistral_embed
FNDA:0,_RNvMs4_NtNtNtCsl8fXSKtwgoJ_14do_memory_core10embeddings6config15provider_configNtB5_14ProviderConfig14openai_3_large
FNDA:0,_RNvMs4_NtNtNtCsl8fXSKtwgoJ_14do_memory_core10embeddings6config15provider_configNtB5_14ProviderConfig14openai_3_small
FNDA:0,_RNvMs4_NtNtNtCsl8fXSKtwgoJ_14do_memory_core10embeddings6config15provider_configNtB5_14ProviderConfig14openai_ada_002
FNDA:0,_RNvMs4_NtNtNtCsl8fXSKtwgoJ_14do_memory_core10embeddings6config15provider_configNtB5_14ProviderConfig15codestral_embed
FNDA:0,_RNvMs4_NtNtNtCsl8fXSKtwgoJ_14do_memory_core10embeddings6config15provider_configNtB5_14ProviderConfig16codestral_binary
FNDA:166,_RNvXs3_NtNtNtCsl8fXSKtwgoJ_14do_memory_core10embeddings6config15provider_configNtB5_14ProviderConfigNtNtCs4kUJL3MZFFz_4core7default7Default7default
FNDA:166,_RNvXs_NtNtNtCsl8fXSKtwgoJ_14do_memory_core10embeddings6config15provider_configNtB4_11LocalConfigNtNtCs4kUJL3MZFFz_4core7default7Default7default
FNDA:0,_RINvMs4_NtNtNtCs46cA19QElOV_14do_memory_core10embeddings6config15provider_configNtB6_14ProviderConfig26local_sentence_transformerpEBc_
FNDA:0,_RNvMs2_NtNtNtCs46cA19QElOV_14do_memory_core10embeddings6config15provider_configNtB5_14ProviderConfig12optimization
FNDA:0,_RNvMs2_NtNtNtCs46cA19QElOV_14do_memory_core10embeddings6config15provider_configNtB5_14ProviderConfig14openai_default
FNDA:0,_RNvMs2_NtNtNtCs46cA19QElOV_14do_memory_core10embeddings6config15provider_configNtB5_14ProviderConfig15mistral_default
FNDA:0,_RNvMs2_NtNtNtCs46cA19QElOV_14do_memory_core10embeddings6config15provider_configNtB5_14ProviderConfig8validate
FNDA:0,_RNvMs4_NtNtNtCs46cA19QElOV_14do_memory_core10embeddings6config15provider_configNtB5_14ProviderConfig14openai_3_large
FNDA:0,_RNvMs4_NtNtNtCs46cA19QElOV_14do_memory_core10embeddings6config15provider_configNtB5_14ProviderConfig14openai_ada_002
FNDA:0,_RNvMs4_NtNtNtCs46cA19QElOV_14do_memory_core10embeddings6config15provider_configNtB5_14ProviderConfig16codestral_binary
FNDA:78,_RINvMNtNtNtCs46cA19QElOV_14do_memory_core10embeddings6config15provider_configNtB3_11LocalConfig3newReEB9_
FNDA:1,_RINvMs0_NtNtNtCs46cA19QElOV_14do_memory_core10embeddings6config15provider_configNtB6_17AzureOpenAIConfig3newReB1I_B1I_EBc_
FNDA:1,_RINvMs1_NtNtNtCs46cA19QElOV_14do_memory_core10embeddings6config15provider_configNtB6_12CustomConfig13with_endpointReEBc_
FNDA:1,_RINvMs1_NtNtNtCs46cA19QElOV_14do_memory_core10embeddings6config15provider_configNtB6_12CustomConfig3newReB1D_EBc_
FNDA:1,_RNvNtNtNtNtCs46cA19QElOV_14do_memory_core10embeddings6config15provider_config5testss_22test_custom_config_url
FNDA:1,_RNvNtNtNtNtCs46cA19QElOV_14do_memory_core10embeddings6config15provider_config5testss_26test_azure_openai_endpoint
FNDA:1,_RNvNtNtNtNtCs46cA19QElOV_14do_memory_core10embeddings6config15provider_config5testss_31test_provider_config_dimensions
FNDA:1,_RNvNtNtNtNtCs46cA19QElOV_14do_memory_core10embeddings6config15provider_config5testss_32test_provider_config_model_names
FNDA:1,_RNvNtNtNtNtCs46cA19QElOV_14do_memory_core10embeddings6config15provider_config5testss_33test_mistral_config_serialization
FNDA:1,_RNvNtNtNtNtCs46cA19QElOV_14do_memory_core10embeddings6config15provider_config5testss_34test_provider_config_serialization
FNDA:3,_RNvMNtNtNtCs46cA19QElOV_14do_memory_core10embeddings6config15provider_configNtB2_11LocalConfig19effective_dimension
FNDA:1,_RNvMs0_NtNtNtCs46cA19QElOV_14do_memory_core10embeddings6config15provider_configNtB5_17AzureOpenAIConfig12endpoint_url
FNDA:0,_RNvMs0_NtNtNtCs46cA19QElOV_14do_memory_core10embeddings6config15provider_configNtB5_17AzureOpenAIConfig19effective_dimension
FNDA:1,_RNvMs1_NtNtNtCs46cA19QElOV_14do_memory_core10embeddings6config15provider_configNtB5_12CustomConfig14embeddings_url
FNDA:0,_RNvMs1_NtNtNtCs46cA19QElOV_14do_memory_core10embeddings6config15provider_configNtB5_12CustomConfig19effective_dimension
FNDA:3,_RNvMs2_NtNtNtCs46cA19QElOV_14do_memory_core10embeddings6config15provider_configNtB5_14ProviderConfig10model_name
FNDA:60,_RNvMs2_NtNtNtCs46cA19QElOV_14do_memory_core10embeddings6config15provider_configNtB5_14ProviderConfig13local_default
FNDA:9,_RNvMs2_NtNtNtCs46cA19QElOV_14do_memory_core10embeddings6config15provider_configNtB5_14ProviderConfig19effective_dimension
FNDA:2,_RNvMs4_NtNtNtCs46cA19QElOV_14do_memory_core10embeddings6config15provider_configNtB5_14ProviderConfig13mistral_embed
FNDA:5,_RNvMs4_NtNtNtCs46cA19QElOV_14do_memory_core10embeddings6config15provider_configNtB5_14ProviderConfig14openai_3_small
FNDA:2,_RNvMs4_NtNtNtCs46cA19QElOV_14do_memory_core10embeddings6config15provider_configNtB5_14ProviderConfig15codestral_embed
FNDA:58,_RNvXs3_NtNtNtCs46cA19QElOV_14do_memory_core10embeddings6config15provider_configNtB5_14ProviderConfigNtNtCs4kUJL3MZFFz_4core7default7Default7default
FNDA:60,_RNvXs_NtNtNtCs46cA19QElOV_14do_memory_core10embeddings6config15provider_configNtB4_11LocalConfigNtNtCs4kUJL3MZFFz_4core7default7Default7default
FNF:31
FNH:21
DA:49,260
DA:50,260
DA:51,260
DA:52,260
DA:53,260
DA:54,260
DA:55,260
DA:59,17
DA:60,17
DA:61,17
DA:65,226
DA:66,226
DA:67,226
DA:89,1
DA:90,1
DA:91,1
DA:92,1
DA:93,1
DA:94,1
DA:95,1
DA:96,1
DA:97,1
DA:98,1
DA:99,1
DA:100,1
DA:101,1
DA:102,1
DA:106,1
DA:107,1
DA:111,1
DA:115,0
DA:116,0
DA:117,0
DA:140,1
DA:141,1
DA:142,1
DA:143,1
DA:144,1
DA:145,1
DA:146,1
DA:147,1
DA:148,1
DA:149,1
DA:150,1
DA:151,1
DA:152,1
DA:156,1
DA:157,1
DA:158,1
DA:159,1
DA:163,1
DA:164,1
DA:165,1
DA:167,1
DA:168,1
DA:170,0
DA:172,1
DA:176,0
DA:177,0
DA:178,0
DA:184,23
DA:185,23
DA:186,17
DA:187,4
DA:188,2
DA:189,0
DA:190,0
DA:192,23
DA:196,0
DA:197,0
DA:198,0
DA:199,0
DA:200,0
DA:201,0
DA:202,0
DA:204,0
DA:208,3
DA:209,3
DA:210,0
DA:211,1
DA:212,2
DA:213,0
DA:214,0
DA:216,3
DA:222,0
DA:223,0
DA:224,0
DA:225,0
DA:226,0
DA:228,0
DA:232,0
DA:233,0
DA:234,0
DA:238,0
DA:239,0
DA:240,0
DA:244,226
DA:245,226
DA:246,226
DA:250,224
DA:251,224
DA:252,224
DA:259,5
DA:260,5
DA:261,5
DA:265,0
DA:266,0
DA:267,0
DA:271,0
DA:272,0
DA:273,0
DA:277,2
DA:278,2
DA:279,2
DA:283,2
DA:284,2
DA:285,2
DA:289,0
DA:290,0
DA:291,0
DA:295,0
DA:296,0
DA:297,0
DA:305,1
DA:306,1
DA:307,1
DA:309,1
DA:310,1
DA:312,1
DA:313,1
DA:315,1
DA:316,1
DA:317,1
DA:320,1
DA:321,1
DA:322,1
DA:324,1
DA:325,1
DA:327,1
DA:328,1
DA:329,1
DA:332,1
DA:333,1
DA:334,1
DA:335,1
DA:338,1
DA:341,1
DA:342,1
DA:343,1
DA:344,1
DA:345,1
DA:348,1
DA:351,1
DA:352,1
DA:353,1
DA:356,1
DA:357,1
DA:361,1
DA:362,1
DA:363,1
DA:364,1
DA:366,1
DA:369,1
DA:370,1
DA:371,1
DA:372,1
DA:373,1
DA:374,1
DA:376,1
DA:377,1
DA:379,1
DA:380,1
DA:381,1
DA:382,1
DA:384,0
DA:386,1
BRF:0
BRH:0
LF:176
LH:131
end_of_record
SF:/app/memory-core/src/embeddings/config/provider_enum.rs
FN:25,_RNvNtNtNtNtCs46cA19QElOV_14do_memory_core10embeddings6config13provider_enum5testss_32test_embedding_provider_variants
FNDA:1,_RNvNtNtNtNtCs46cA19QElOV_14do_memory_core10embeddings6config13provider_enum5testss_32test_embedding_provider_variants
FNF:1
FNH:1
DA:25,1
DA:27,1
DA:28,1
DA:31,1
DA:32,1
DA:35,1
DA:36,1
DA:39,1
DA:40,1
DA:43,1
DA:44,1
DA:46,1
DA:50,1
DA:51,1
DA:52,1
BRF:0
BRH:0
LF:15
LH:15
end_of_record
SF:/app/memory-core/src/embeddings/local.rs
FN:73,_RNCNvMNtNtCsl8fXSKtwgoJ_14do_memory_core10embeddings5localNtB4_22LocalEmbeddingProvider10load_model0B8_
FN:57,_RNCNvMNtNtCsl8fXSKtwgoJ_14do_memory_core10embeddings5localNtB4_22LocalEmbeddingProvider3new0B8_
FN:144,_RNCNvMNtNtCsl8fXSKtwgoJ_14do_memory_core10embeddings5localNtB4_22LocalEmbeddingProvider13get_cache_dir0B8_
FN:158,_RNCNvMNtNtCsl8fXSKtwgoJ_14do_memory_core10embeddings5localNtB4_22LocalEmbeddingProvider9is_loaded0B8_
FN:73,_RNvMNtNtCsl8fXSKtwgoJ_14do_memory_core10embeddings5localNtB2_22LocalEmbeddingProvider10load_model
FN:165,_RNvMNtNtCsl8fXSKtwgoJ_14do_memory_core10embeddings5localNtB2_22LocalEmbeddingProvider10model_info
FN:142,_RNvMNtNtCsl8fXSKtwgoJ_14do_memory_core10embeddings5localNtB2_22LocalEmbeddingProvider13get_cache_dir
FN:57,_RNvMNtNtCsl8fXSKtwgoJ_14do_memory_core10embeddings5localNtB2_22LocalEmbeddingProvider3new
FN:158,_RNvMNtNtCsl8fXSKtwgoJ_14do_memory_core10embeddings5localNtB2_22LocalEmbeddingProvider9is_loaded
FN:177,_RNvXs_NtNtCsl8fXSKtwgoJ_14do_memory_core10embeddings5localNtB4_22LocalEmbeddingProviderNtNtB6_8provider17EmbeddingProvider10embed_text
FN:195,_RNvXs_NtNtCsl8fXSKtwgoJ_14do_memory_core10embeddings5localNtB4_22LocalEmbeddingProviderNtNtB6_8provider17EmbeddingProvider10model_name
FN:184,_RNvXs_NtNtCsl8fXSKtwgoJ_14do_memory_core10embeddings5localNtB4_22LocalEmbeddingProviderNtNtB6_8provider17EmbeddingProvider11embed_batch
FN:199,_RNvXs_NtNtCsl8fXSKtwgoJ_14do_memory_core10embeddings5localNtB4_22LocalEmbeddingProviderNtNtB6_8provider17EmbeddingProvider12is_available
FN:191,_RNvXs_NtNtCsl8fXSKtwgoJ_14do_memory_core10embeddings5localNtB4_22LocalEmbeddingProviderNtNtB6_8provider17EmbeddingProvider19embedding_dimension
FN:203,_RNvXs_NtNtCsl8fXSKtwgoJ_14do_memory_core10embeddings5localNtB4_22LocalEmbeddingProviderNtNtB6_8provider17EmbeddingProvider6warmup
FN:209,_RNvXs_NtNtCsl8fXSKtwgoJ_14do_memory_core10embeddings5localNtB4_22LocalEmbeddingProviderNtNtB6_8provider17EmbeddingProvider8metadata
FN:73,_RNCNvMNtNtCsl8fXSKtwgoJ_14do_memory_core10embeddings5localNtB4_22LocalEmbeddingProvider10load_model0Cs1dgE7K7X3r2_29context_aware_embeddings_test
FN:57,_RNCNvMNtNtCsl8fXSKtwgoJ_14do_memory_core10embeddings5localNtB4_22LocalEmbeddingProvider3new0Cs1dgE7K7X3r2_29context_aware_embeddings_test
FN:269,_RNvNtNtNtCs46cA19QElOV_14do_memory_core10embeddings5local5testss_15test_embed_text
FN:287,_RNvNtNtNtCs46cA19QElOV_14do_memory_core10embeddings5local5testss_16test_embed_batch
FN:427,_RNvNtNtNtCs46cA19QElOV_14do_memory_core10embeddings5local5testss_19test_error_handling
FN:410,_RNvNtNtNtCs46cA19QElOV_14do_memory_core10embeddings5local5testss_19test_model_metadata
FN:459,_RNvNtNtNtCs46cA19QElOV_14do_memory_core10embeddings5local5testss_22test_utils_list_models
FN:448,_RNvNtNtNtCs46cA19QElOV_14do_memory_core10embeddings5local5testss_25test_warmup_functionality
FN:307,_RNvNtNtNtCs46cA19QElOV_14do_memory_core10embeddings5local5testss_27test_similarity_calculation
FN:259,_RNvNtNtNtCs46cA19QElOV_14do_memory_core10embeddings5local5testss_28test_local_provider_creation
FN:470,_RNvNtNtNtCs46cA19QElOV_14do_memory_core10embeddings5local5testss_29test_utils_recommended_models
FN:389,_RNvNtNtNtCs46cA19QElOV_14do_memory_core10embeddings5local5testss_32test_embedding_vector_properties
FN:482,_RNvNtNtNtCs46cA19QElOV_14do_memory_core10embeddings5local5testss_32test_production_warning_behavior
FN:397,_RNCNCNvNtNtNtCs46cA19QElOV_14do_memory_core10embeddings5local5testss_32test_embedding_vector_properties00Bb_
FN:269,_RNCNvNtNtNtCs46cA19QElOV_14do_memory_core10embeddings5local5testss_15test_embed_text0B9_
FN:287,_RNCNvNtNtNtCs46cA19QElOV_14do_memory_core10embeddings5local5testss_16test_embed_batch0B9_
FN:427,_RNCNvNtNtNtCs46cA19QElOV_14do_memory_core10embeddings5local5testss_19test_error_handling0B9_
FN:410,_RNCNvNtNtNtCs46cA19QElOV_14do_memory_core10embeddings5local5testss_19test_model_metadata0B9_
FN:448,_RNCNvNtNtNtCs46cA19QElOV_14do_memory_core10embeddings5local5testss_25test_warmup_functionality0B9_
FN:307,_RNCNvNtNtNtCs46cA19QElOV_14do_memory_core10embeddings5local5testss_27test_similarity_calculation0B9_
FN:259,_RNCNvNtNtNtCs46cA19QElOV_14do_memory_core10embeddings5local5testss_28test_local_provider_creation0B9_
FN:389,_RNCNvNtNtNtCs46cA19QElOV_14do_memory_core10embeddings5local5testss_32test_embedding_vector_properties0B9_
FN:482,_RNCNvNtNtNtCs46cA19QElOV_14do_memory_core10embeddings5local5testss_32test_production_warning_behavior0B9_
FN:73,_RNvMNtNtCs46cA19QElOV_14do_memory_core10embeddings5localNtB2_22LocalEmbeddingProvider10load_model
FN:165,_RNvMNtNtCs46cA19QElOV_14do_memory_core10embeddings5localNtB2_22LocalEmbeddingProvider10model_info
FN:142,_RNvMNtNtCs46cA19QElOV_14do_memory_core10embeddings5localNtB2_22LocalEmbeddingProvider13get_cache_dir
FN:57,_RNvMNtNtCs46cA19QElOV_14do_memory_core10embeddings5localNtB2_22LocalEmbeddingProvider3new
FN:158,_RNvMNtNtCs46cA19QElOV_14do_memory_core10embeddings5localNtB2_22LocalEmbeddingProvider9is_loaded
FN:177,_RNvXs_NtNtCs46cA19QElOV_14do_memory_core10embeddings5localNtB4_22LocalEmbeddingProviderNtNtB6_8provider17EmbeddingProvider10embed_text
FN:195,_RNvXs_NtNtCs46cA19QElOV_14do_memory_core10embeddings5localNtB4_22LocalEmbeddingProviderNtNtB6_8provider17EmbeddingProvider10model_name
FN:184,_RNvXs_NtNtCs46cA19QElOV_14do_memory_core10embeddings5localNtB4_22LocalEmbeddingProviderNtNtB6_8provider17EmbeddingProvider11embed_batch
FN:199,_RNvXs_NtNtCs46cA19QElOV_14do_memory_core10embeddings5localNtB4_22LocalEmbeddingProviderNtNtB6_8provider17EmbeddingProvider12is_available
FN:191,_RNvXs_NtNtCs46cA19QElOV_14do_memory_core10embeddings5localNtB4_22LocalEmbeddingProviderNtNtB6_8provider17EmbeddingProvider19embedding_dimension
FN:203,_RNvXs_NtNtCs46cA19QElOV_14do_memory_core10embeddings5localNtB4_22LocalEmbeddingProviderNtNtB6_8provider17EmbeddingProvider6warmup
FN:209,_RNvXs_NtNtCs46cA19QElOV_14do_memory_core10embeddings5localNtB4_22LocalEmbeddingProviderNtNtB6_8provider17EmbeddingProvider8metadata
FN:73,_RNCNvMNtNtCs46cA19QElOV_14do_memory_core10embeddings5localNtB4_22LocalEmbeddingProvider10load_model0B8_
FN:144,_RNCNvMNtNtCs46cA19QElOV_14do_memory_core10embeddings5localNtB4_22LocalEmbeddingProvider13get_cache_dir0B8_
FN:57,_RNCNvMNtNtCs46cA19QElOV_14do_memory_core10embeddings5localNtB4_22LocalEmbeddingProvider3new0B8_
FN:158,_RNCNvMNtNtCs46cA19QElOV_14do_memory_core10embeddings5localNtB4_22LocalEmbeddingProvider9is_loaded0B8_
FN:73,_RNCNvMNtNtCsl8fXSKtwgoJ_14do_memory_core10embeddings5localNtB4_22LocalEmbeddingProvider10load_model0CsgrBw30QCVrl_26embedding_integration_test
FN:57,_RNCNvMNtNtCsl8fXSKtwgoJ_14do_memory_core10embeddings5localNtB4_22LocalEmbeddingProvider3new0CsgrBw30QCVrl_26embedding_integration_test
FN:73,_RNCNvMNtNtCsl8fXSKtwgoJ_14do_memory_core10embeddings5localNtB4_22LocalEmbeddingProvider10load_model0CsaoCCEImll0o_36semantic_hierarchical_retrieval_test
FN:57,_RNCNvMNtNtCsl8fXSKtwgoJ_14do_memory_core10embeddings5localNtB4_22LocalEmbeddingProvider3new0CsaoCCEImll0o_36semantic_hierarchical_retrieval_test
FNDA:0,_RNCNvMNtNtCsl8fXSKtwgoJ_14do_memory_core10embeddings5localNtB4_22LocalEmbeddingProvider10load_model0B8_
FNDA:0,_RNCNvMNtNtCsl8fXSKtwgoJ_14do_memory_core10embeddings5localNtB4_22LocalEmbeddingProvider3new0B8_
FNDA:0,_RNCNvMNtNtCsl8fXSKtwgoJ_14do_memory_core10embeddings5localNtB4_22LocalEmbeddingProvider13get_cache_dir0B8_
FNDA:2,_RNCNvMNtNtCsl8fXSKtwgoJ_14do_memory_core10embeddings5localNtB4_22LocalEmbeddingProvider9is_loaded0B8_
FNDA:21,_RNvMNtNtCsl8fXSKtwgoJ_14do_memory_core10embeddings5localNtB2_22LocalEmbeddingProvider10load_model
FNDA:0,_RNvMNtNtCsl8fXSKtwgoJ_14do_memory_core10embeddings5localNtB2_22LocalEmbeddingProvider10model_info
FNDA:21,_RNvMNtNtCsl8fXSKtwgoJ_14do_memory_core10embeddings5localNtB2_22LocalEmbeddingProvider13get_cache_dir
FNDA:21,_RNvMNtNtCsl8fXSKtwgoJ_14do_memory_core10embeddings5localNtB2_22LocalEmbeddingProvider3new
FNDA:2,_RNvMNtNtCsl8fXSKtwgoJ_14do_memory_core10embeddings5localNtB2_22LocalEmbeddingProvider9is_loaded
FNDA:50,_RNvXs_NtNtCsl8fXSKtwgoJ_14do_memory_core10embeddings5localNtB4_22LocalEmbeddingProviderNtNtB6_8provider17EmbeddingProvider10embed_text
FNDA:0,_RNvXs_NtNtCsl8fXSKtwgoJ_14do_memory_core10embeddings5localNtB4_22LocalEmbeddingProviderNtNtB6_8provider17EmbeddingProvider10model_name
FNDA:2,_RNvXs_NtNtCsl8fXSKtwgoJ_14do_memory_core10embeddings5localNtB4_22LocalEmbeddingProviderNtNtB6_8provider17EmbeddingProvider11embed_batch
FNDA:1,_RNvXs_NtNtCsl8fXSKtwgoJ_14do_memory_core10embeddings5localNtB4_22LocalEmbeddingProviderNtNtB6_8provider17EmbeddingProvider12is_available
FNDA:22,_RNvXs_NtNtCsl8fXSKtwgoJ_14do_memory_core10embeddings5localNtB4_22LocalEmbeddingProviderNtNtB6_8provider17EmbeddingProvider19embedding_dimension
FNDA:1,_RNvXs_NtNtCsl8fXSKtwgoJ_14do_memory_core10embeddings5localNtB4_22LocalEmbeddingProviderNtNtB6_8provider17EmbeddingProvider6warmup
FNDA:0,_RNvXs_NtNtCsl8fXSKtwgoJ_14do_memory_core10embeddings5localNtB4_22LocalEmbeddingProviderNtNtB6_8provider17EmbeddingProvider8metadata
FNDA:3,_RNCNvMNtNtCsl8fXSKtwgoJ_14do_memory_core10embeddings5localNtB4_22LocalEmbeddingProvider10load_model0Cs1dgE7K7X3r2_29context_aware_embeddings_test
FNDA:3,_RNCNvMNtNtCsl8fXSKtwgoJ_14do_memory_core10embeddings5localNtB4_22LocalEmbeddingProvider3new0Cs1dgE7K7X3r2_29context_aware_embeddings_test
FNDA:1,_RNvNtNtNtCs46cA19QElOV_14do_memory_core10embeddings5local5testss_15test_embed_text
FNDA:1,_RNvNtNtNtCs46cA19QElOV_14do_memory_core10embeddings5local5testss_16test_embed_batch
FNDA:1,_RNvNtNtNtCs46cA19QElOV_14do_memory_core10embeddings5local5testss_19test_error_handling
FNDA:1,_RNvNtNtNtCs46cA19QElOV_14do_memory_core10embeddings5local5testss_19test_model_metadata
FNDA:1,_RNvNtNtNtCs46cA19QElOV_14do_memory_core10embeddings5local5testss_22test_utils_list_models
FNDA:1,_RNvNtNtNtCs46cA19QElOV_14do_memory_core10embeddings5local5testss_25test_warmup_functionality
FNDA:1,_RNvNtNtNtCs46cA19QElOV_14do_memory_core10embeddings5local5testss_27test_similarity_calculation
FNDA:1,_RNvNtNtNtCs46cA19QElOV_14do_memory_core10embeddings5local5testss_28test_local_provider_creation
FNDA:1,_RNvNtNtNtCs46cA19QElOV_14do_memory_core10embeddings5local5testss_29test_utils_recommended_models
FNDA:1,_RNvNtNtNtCs46cA19QElOV_14do_memory_core10embeddings5local5testss_32test_embedding_vector_properties
FNDA:1,_RNvNtNtNtCs46cA19QElOV_14do_memory_core10embeddings5local5testss_32test_production_warning_behavior
FNDA:384,_RNCNCNvNtNtNtCs46cA19QElOV_14do_memory_core10embeddings5local5testss_32test_embedding_vector_properties00Bb_
FNDA:1,_RNCNvNtNtNtCs46cA19QElOV_14do_memory_core10embeddings5local5testss_15test_embed_text0B9_
FNDA:1,_RNCNvNtNtNtCs46cA19QElOV_14do_memory_core10embeddings5local5testss_16test_embed_batch0B9_
FNDA:1,_RNCNvNtNtNtCs46cA19QElOV_14do_memory_core10embeddings5local5testss_19test_error_handling0B9_
FNDA:1,_RNCNvNtNtNtCs46cA19QElOV_14do_memory_core10embeddings5local5testss_19test_model_metadata0B9_
FNDA:1,_RNCNvNtNtNtCs46cA19QElOV_14do_memory_core10embeddings5local5testss_25test_warmup_functionality0B9_
FNDA:1,_RNCNvNtNtNtCs46cA19QElOV_14do_memory_core10embeddings5local5testss_27test_similarity_calculation0B9_
FNDA:1,_RNCNvNtNtNtCs46cA19QElOV_14do_memory_core10embeddings5local5testss_28test_local_provider_creation0B9_
FNDA:1,_RNCNvNtNtNtCs46cA19QElOV_14do_memory_core10embeddings5local5testss_32test_embedding_vector_properties0B9_
FNDA:1,_RNCNvNtNtNtCs46cA19QElOV_14do_memory_core10embeddings5local5testss_32test_production_warning_behavior0B9_
FNDA:13,_RNvMNtNtCs46cA19QElOV_14do_memory_core10embeddings5localNtB2_22LocalEmbeddingProvider10load_model
FNDA:1,_RNvMNtNtCs46cA19QElOV_14do_memory_core10embeddings5localNtB2_22LocalEmbeddingProvider10model_info
FNDA:13,_RNvMNtNtCs46cA19QElOV_14do_memory_core10embeddings5localNtB2_22LocalEmbeddingProvider13get_cache_dir
FNDA:13,_RNvMNtNtCs46cA19QElOV_14do_memory_core10embeddings5localNtB2_22LocalEmbeddingProvider3new
FNDA:2,_RNvMNtNtCs46cA19QElOV_14do_memory_core10embeddings5localNtB2_22LocalEmbeddingProvider9is_loaded
FNDA:12,_RNvXs_NtNtCs46cA19QElOV_14do_memory_core10embeddings5localNtB4_22LocalEmbeddingProviderNtNtB6_8provider17EmbeddingProvider10embed_text
FNDA:2,_RNvXs_NtNtCs46cA19QElOV_14do_memory_core10embeddings5localNtB4_22LocalEmbeddingProviderNtNtB6_8provider17EmbeddingProvider10model_name
FNDA:1,_RNvXs_NtNtCs46cA19QElOV_14do_memory_core10embeddings5localNtB4_22LocalEmbeddingProviderNtNtB6_8provider17EmbeddingProvider11embed_batch
FNDA:0,_RNvXs_NtNtCs46cA19QElOV_14do_memory_core10embeddings5localNtB4_22LocalEmbeddingProviderNtNtB6_8provider17EmbeddingProvider12is_available
FNDA:2,_RNvXs_NtNtCs46cA19QElOV_14do_memory_core10embeddings5localNtB4_22LocalEmbeddingProviderNtNtB6_8provider17EmbeddingProvider19embedding_dimension
FNDA:1,_RNvXs_NtNtCs46cA19QElOV_14do_memory_core10embeddings5localNtB4_22LocalEmbeddingProviderNtNtB6_8provider17EmbeddingProvider6warmup
FNDA:1,_RNvXs_NtNtCs46cA19QElOV_14do_memory_core10embeddings5localNtB4_22LocalEmbeddingProviderNtNtB6_8provider17EmbeddingProvider8metadata
FNDA:13,_RNCNvMNtNtCs46cA19QElOV_14do_memory_core10embeddings5localNtB4_22LocalEmbeddingProvider10load_model0B8_
FNDA:0,_RNCNvMNtNtCs46cA19QElOV_14do_memory_core10embeddings5localNtB4_22LocalEmbeddingProvider13get_cache_dir0B8_
FNDA:13,_RNCNvMNtNtCs46cA19QElOV_14do_memory_core10embeddings5localNtB4_22LocalEmbeddingProvider3new0B8_
FNDA:2,_RNCNvMNtNtCs46cA19QElOV_14do_memory_core10embeddings5localNtB4_22LocalEmbeddingProvider9is_loaded0B8_
FNDA:16,_RNCNvMNtNtCsl8fXSKtwgoJ_14do_memory_core10embeddings5localNtB4_22LocalEmbeddingProvider10load_model0CsgrBw30QCVrl_26embedding_integration_test
FNDA:16,_RNCNvMNtNtCsl8fXSKtwgoJ_14do_memory_core10embeddings5localNtB4_22LocalEmbeddingProvider3new0CsgrBw30QCVrl_26embedding_integration_test
FNDA:2,_RNCNvMNtNtCsl8fXSKtwgoJ_14do_memory_core10embeddings5localNtB4_22LocalEmbeddingProvider10load_model0CsaoCCEImll0o_36semantic_hierarchical_retrieval_test
FNDA:2,_RNCNvMNtNtCsl8fXSKtwgoJ_14do_memory_core10embeddings5localNtB4_22LocalEmbeddingProvider3new0CsaoCCEImll0o_36semantic_hierarchical_retrieval_test
FNF:37
FNH:36
DA:57,34
DA:58,34
DA:60,34
DA:61,34
DA:62,34
DA:63,34
DA:64,34
DA:67,34
DA:69,34
DA:70,34
DA:73,34
DA:74,34
DA:114,34
DA:117,34
DA:121,34
DA:122,34
DA:123,34
DA:126,34
DA:127,34
DA:129,34
DA:132,34
DA:133,34
DA:142,34
DA:143,34
DA:144,34
DA:145,34
DA:147,34
DA:148,34
DA:149,34
DA:150,34
DA:152,34
DA:154,34
DA:155,34
DA:158,4
DA:159,4
DA:160,4
DA:161,4
DA:165,1
DA:166,1
DA:167,1
DA:168,1
DA:169,1
DA:170,1
DA:172,1
DA:177,62
DA:182,62
DA:184,3
DA:189,3
DA:191,24
DA:192,24
DA:193,24
DA:195,2
DA:196,2
DA:197,2
DA:199,1
DA:201,1
DA:203,2
DA:207,2
DA:209,1
DA:210,1
DA:211,1
DA:212,1
DA:213,1
DA:214,1
DA:215,1
DA:217,1
DA:259,1
DA:260,1
DA:262,1
DA:263,1
DA:264,1
DA:265,1
DA:266,1
DA:269,1
DA:270,1
DA:272,1
DA:274,1
DA:275,1
DA:278,1
DA:279,1
DA:282,1
DA:283,1
DA:284,1
DA:287,1
DA:288,1
DA:290,1
DA:292,1
DA:293,1
DA:294,1
DA:295,1
DA:298,1
DA:299,1
DA:301,3
DA:302,3
DA:303,1
DA:304,1
DA:307,1
DA:308,1
DA:310,1
DA:313,1
DA:314,1
DA:315,1
DA:316,1
DA:317,1
DA:320,1
DA:321,1
DA:322,1
DA:323,1
DA:324,1
DA:325,1
DA:389,1
DA:390,1
DA:392,1
DA:394,1
DA:397,384
DA:398,1
DA:401,384
DA:402,384
DA:403,384
DA:404,1
DA:405,1
DA:406,1
DA:407,1
DA:410,1
DA:411,1
DA:413,1
DA:415,1
DA:416,1
DA:417,1
DA:418,1
DA:420,1
DA:421,1
DA:422,1
DA:423,1
DA:424,1
DA:427,1
DA:428,1
DA:431,1
DA:433,1
DA:434,1
DA:435,1
DA:436,1
DA:437,1
DA:438,1
DA:439,1
DA:440,1
DA:441,1
DA:442,1
DA:443,1
DA:444,1
DA:445,1
DA:448,1
DA:449,1
DA:451,1
DA:454,1
DA:455,1
DA:456,1
DA:459,1
DA:460,1
DA:461,1
DA:463,3
DA:464,3
DA:465,3
DA:467,1
DA:470,1
DA:471,1
DA:472,1
DA:474,1
DA:475,1
DA:477,1
DA:478,1
DA:479,1
DA:482,1
DA:483,1
DA:486,1
DA:489,1
DA:490,1
DA:493,1
DA:494,1
DA:495,1
BRF:0
BRH:0
LF:212
LH:209
end_of_record
SF:/app/memory-core/src/embeddings/metrics.rs
FN:75,_RNvMNtNtCsl8fXSKtwgoJ_14do_memory_core10embeddings7metricsNtB2_15ProviderMetrics12record_retry
FN:70,_RNvMNtNtCsl8fXSKtwgoJ_14do_memory_core10embeddings7metricsNtB2_15ProviderMetrics14record_failure
FN:55,_RNvMNtNtCsl8fXSKtwgoJ_14do_memory_core10embeddings7metricsNtB2_15ProviderMetrics14record_request
FN:60,_RNvMNtNtCsl8fXSKtwgoJ_14do_memory_core10embeddings7metricsNtB2_15ProviderMetrics14record_success
FN:90,_RNvMNtNtCsl8fXSKtwgoJ_14do_memory_core10embeddings7metricsNtB2_15ProviderMetrics18record_compression
FN:80,_RNvMNtNtCsl8fXSKtwgoJ_14do_memory_core10embeddings7metricsNtB2_15ProviderMetrics27record_circuit_breaker_open
FN:85,_RNvMNtNtCsl8fXSKtwgoJ_14do_memory_core10embeddings7metricsNtB2_15ProviderMetrics28record_circuit_breaker_close
FN:50,_RNvMNtNtCsl8fXSKtwgoJ_14do_memory_core10embeddings7metricsNtB2_15ProviderMetrics3new
FN:126,_RNvMNtNtCsl8fXSKtwgoJ_14do_memory_core10embeddings7metricsNtB2_15ProviderMetrics5reset
FN:99,_RNvMNtNtCsl8fXSKtwgoJ_14do_memory_core10embeddings7metricsNtB2_15ProviderMetrics8snapshot
FN:250,_RNvMs0_NtNtCsl8fXSKtwgoJ_14do_memory_core10embeddings7metricsNtB5_12LatencyTimer10elapsed_ms
FN:242,_RNvMs0_NtNtCsl8fXSKtwgoJ_14do_memory_core10embeddings7metricsNtB5_12LatencyTimer5start
FN:162,_RNvMs_NtNtCsl8fXSKtwgoJ_14do_memory_core10embeddings7metricsNtB4_15MetricsSnapshot10retry_rate
FN:180,_RNvMs_NtNtCsl8fXSKtwgoJ_14do_memory_core10embeddings7metricsNtB4_15MetricsSnapshot11bytes_saved
FN:153,_RNvMs_NtNtCsl8fXSKtwgoJ_14do_memory_core10embeddings7metricsNtB4_15MetricsSnapshot12failure_rate
FN:144,_RNvMs_NtNtCsl8fXSKtwgoJ_14do_memory_core10embeddings7metricsNtB4_15MetricsSnapshot12success_rate
FN:190,_RNvMs_NtNtCsl8fXSKtwgoJ_14do_memory_core10embeddings7metricsNtB4_15MetricsSnapshot14estimated_cost
FN:171,_RNvMs_NtNtCsl8fXSKtwgoJ_14do_memory_core10embeddings7metricsNtB4_15MetricsSnapshot17compression_ratio
FN:196,_RNvMs_NtNtCsl8fXSKtwgoJ_14do_memory_core10embeddings7metricsNtB4_15MetricsSnapshot18average_batch_size
FN:205,_RNvMs_NtNtCsl8fXSKtwgoJ_14do_memory_core10embeddings7metricsNtB4_15MetricsSnapshot6format
FN:70,_RNvMNtNtCs46cA19QElOV_14do_memory_core10embeddings7metricsNtB2_15ProviderMetrics14record_failure
FN:55,_RNvMNtNtCs46cA19QElOV_14do_memory_core10embeddings7metricsNtB2_15ProviderMetrics14record_request
FN:60,_RNvMNtNtCs46cA19QElOV_14do_memory_core10embeddings7metricsNtB2_15ProviderMetrics14record_success
FN:90,_RNvMNtNtCs46cA19QElOV_14do_memory_core10embeddings7metricsNtB2_15ProviderMetrics18record_compression
FN:50,_RNvMNtNtCs46cA19QElOV_14do_memory_core10embeddings7metricsNtB2_15ProviderMetrics3new
FN:126,_RNvMNtNtCs46cA19QElOV_14do_memory_core10embeddings7metricsNtB2_15ProviderMetrics5reset
FN:99,_RNvMNtNtCs46cA19QElOV_14do_memory_core10embeddings7metricsNtB2_15ProviderMetrics8snapshot
FN:250,_RNvMs0_NtNtCs46cA19QElOV_14do_memory_core10embeddings7metricsNtB5_12LatencyTimer10elapsed_ms
FN:242,_RNvMs0_NtNtCs46cA19QElOV_14do_memory_core10embeddings7metricsNtB5_12LatencyTimer5start
FN:180,_RNvMs_NtNtCs46cA19QElOV_14do_memory_core10embeddings7metricsNtB4_15MetricsSnapshot11bytes_saved
FN:153,_RNvMs_NtNtCs46cA19QElOV_14do_memory_core10embeddings7metricsNtB4_15MetricsSnapshot12failure_rate
FN:144,_RNvMs_NtNtCs46cA19QElOV_14do_memory_core10embeddings7metricsNtB4_15MetricsSnapshot12success_rate
FN:190,_RNvMs_NtNtCs46cA19QElOV_14do_memory_core10embeddings7metricsNtB4_15MetricsSnapshot14estimated_cost
FN:171,_RNvMs_NtNtCs46cA19QElOV_14do_memory_core10embeddings7metricsNtB4_15MetricsSnapshot17compression_ratio
FN:196,_RNvMs_NtNtCs46cA19QElOV_14do_memory_core10embeddings7metricsNtB4_15MetricsSnapshot18average_batch_size
FN:75,_RNvMNtNtCs46cA19QElOV_14do_memory_core10embeddings7metricsNtB2_15ProviderMetrics12record_retry
FN:80,_RNvMNtNtCs46cA19QElOV_14do_memory_core10embeddings7metricsNtB2_15ProviderMetrics27record_circuit_breaker_open
FN:85,_RNvMNtNtCs46cA19QElOV_14do_memory_core10embeddings7metricsNtB2_15ProviderMetrics28record_circuit_breaker_close
FN:162,_RNvMs_NtNtCs46cA19QElOV_14do_memory_core10embeddings7metricsNtB4_15MetricsSnapshot10retry_rate
FN:205,_RNvMs_NtNtCs46cA19QElOV_14do_memory_core10embeddings7metricsNtB4_15MetricsSnapshot6format
FN:275,_RNvNtNtNtCs46cA19QElOV_14do_memory_core10embeddings7metrics5testss_17test_success_rate
FN:342,_RNvNtNtNtCs46cA19QElOV_14do_memory_core10embeddings7metrics5testss_18test_latency_timer
FN:329,_RNvNtNtNtCs46cA19QElOV_14do_memory_core10embeddings7metrics5testss_18test_metrics_reset
FN:305,_RNvNtNtNtCs46cA19QElOV_14do_memory_core10embeddings7metrics5testss_19test_estimated_cost
FN:260,_RNvNtNtNtCs46cA19QElOV_14do_memory_core10embeddings7metrics5testss_22test_metrics_recording
FN:316,_RNvNtNtNtCs46cA19QElOV_14do_memory_core10embeddings7metrics5testss_23test_average_batch_size
FN:291,_RNvNtNtNtCs46cA19QElOV_14do_memory_core10embeddings7metrics5testss_24test_compression_metrics
FNDA:0,_RNvMNtNtCsl8fXSKtwgoJ_14do_memory_core10embeddings7metricsNtB2_15ProviderMetrics12record_retry
FNDA:0,_RNvMNtNtCsl8fXSKtwgoJ_14do_memory_core10embeddings7metricsNtB2_15ProviderMetrics14record_failure
FNDA:0,_RNvMNtNtCsl8fXSKtwgoJ_14do_memory_core10embeddings7metricsNtB2_15ProviderMetrics14record_request
FNDA:0,_RNvMNtNtCsl8fXSKtwgoJ_14do_memory_core10embeddings7metricsNtB2_15ProviderMetrics14record_success
FNDA:0,_RNvMNtNtCsl8fXSKtwgoJ_14do_memory_core10embeddings7metricsNtB2_15ProviderMetrics18record_compression
FNDA:0,_RNvMNtNtCsl8fXSKtwgoJ_14do_memory_core10embeddings7metricsNtB2_15ProviderMetrics27record_circuit_breaker_open
FNDA:0,_RNvMNtNtCsl8fXSKtwgoJ_14do_memory_core10embeddings7metricsNtB2_15ProviderMetrics28record_circuit_breaker_close
FNDA:0,_RNvMNtNtCsl8fXSKtwgoJ_14do_memory_core10embeddings7metricsNtB2_15ProviderMetrics3new
FNDA:0,_RNvMNtNtCsl8fXSKtwgoJ_14do_memory_core10embeddings7metricsNtB2_15ProviderMetrics5reset
FNDA:0,_RNvMNtNtCsl8fXSKtwgoJ_14do_memory_core10embeddings7metricsNtB2_15ProviderMetrics8snapshot
FNDA:0,_RNvMs0_NtNtCsl8fXSKtwgoJ_14do_memory_core10embeddings7metricsNtB5_12LatencyTimer10elapsed_ms
FNDA:0,_RNvMs0_NtNtCsl8fXSKtwgoJ_14do_memory_core10embeddings7metricsNtB5_12LatencyTimer5start
FNDA:0,_RNvMs_NtNtCsl8fXSKtwgoJ_14do_memory_core10embeddings7metricsNtB4_15MetricsSnapshot10retry_rate
FNDA:0,_RNvMs_NtNtCsl8fXSKtwgoJ_14do_memory_core10embeddings7metricsNtB4_15MetricsSnapshot11bytes_saved
FNDA:0,_RNvMs_NtNtCsl8fXSKtwgoJ_14do_memory_core10embeddings7metricsNtB4_15MetricsSnapshot12failure_rate
FNDA:0,_RNvMs_NtNtCsl8fXSKtwgoJ_14do_memory_core10embeddings7metricsNtB4_15MetricsSnapshot12success_rate
FNDA:0,_RNvMs_NtNtCsl8fXSKtwgoJ_14do_memory_core10embeddings7metricsNtB4_15MetricsSnapshot14estimated_cost
FNDA:0,_RNvMs_NtNtCsl8fXSKtwgoJ_14do_memory_core10embeddings7metricsNtB4_15MetricsSnapshot17compression_ratio
FNDA:0,_RNvMs_NtNtCsl8fXSKtwgoJ_14do_memory_core10embeddings7metricsNtB4_15MetricsSnapshot18average_batch_size
FNDA:0,_RNvMs_NtNtCsl8fXSKtwgoJ_14do_memory_core10embeddings7metricsNtB4_15MetricsSnapshot6format
FNDA:1,_RNvMNtNtCs46cA19QElOV_14do_memory_core10embeddings7metricsNtB2_15ProviderMetrics14record_failure
FNDA:8,_RNvMNtNtCs46cA19QElOV_14do_memory_core10embeddings7metricsNtB2_15ProviderMetrics14record_request
FNDA:7,_RNvMNtNtCs46cA19QElOV_14do_memory_core10embeddings7metricsNtB2_15ProviderMetrics14record_success
FNDA:2,_RNvMNtNtCs46cA19QElOV_14do_memory_core10embeddings7metricsNtB2_15ProviderMetrics18record_compression
FNDA:6,_RNvMNtNtCs46cA19QElOV_14do_memory_core10embeddings7metricsNtB2_15ProviderMetrics3new
FNDA:1,_RNvMNtNtCs46cA19QElOV_14do_memory_core10embeddings7metricsNtB2_15ProviderMetrics5reset
FNDA:6,_RNvMNtNtCs46cA19QElOV_14do_memory_core10embeddings7metricsNtB2_15ProviderMetrics8snapshot
FNDA:1,_RNvMs0_NtNtCs46cA19QElOV_14do_memory_core10embeddings7metricsNtB5_12LatencyTimer10elapsed_ms
FNDA:1,_RNvMs0_NtNtCs46cA19QElOV_14do_memory_core10embeddings7metricsNtB5_12LatencyTimer5start
FNDA:1,_RNvMs_NtNtCs46cA19QElOV_14do_memory_core10embeddings7metricsNtB4_15MetricsSnapshot11bytes_saved
FNDA:1,_RNvMs_NtNtCs46cA19QElOV_14do_memory_core10embeddings7metricsNtB4_15MetricsSnapshot12failure_rate
FNDA:1,_RNvMs_NtNtCs46cA19QElOV_14do_memory_core10embeddings7metricsNtB4_15MetricsSnapshot12success_rate
FNDA:1,_RNvMs_NtNtCs46cA19QElOV_14do_memory_core10embeddings7metricsNtB4_15MetricsSnapshot14estimated_cost
FNDA:1,_RNvMs_NtNtCs46cA19QElOV_14do_memory_core10embeddings7metricsNtB4_15MetricsSnapshot17compression_ratio
FNDA:1,_RNvMs_NtNtCs46cA19QElOV_14do_memory_core10embeddings7metricsNtB4_15MetricsSnapshot18average_batch_size
FNDA:0,_RNvMNtNtCs46cA19QElOV_14do_memory_core10embeddings7metricsNtB2_15ProviderMetrics12record_retry
FNDA:0,_RNvMNtNtCs46cA19QElOV_14do_memory_core10embeddings7metricsNtB2_15ProviderMetrics27record_circuit_breaker_open
FNDA:0,_RNvMNtNtCs46cA19QElOV_14do_memory_core10embeddings7metricsNtB2_15ProviderMetrics28record_circuit_breaker_close
FNDA:0,_RNvMs_NtNtCs46cA19QElOV_14do_memory_core10embeddings7metricsNtB4_15MetricsSnapshot10retry_rate
FNDA:0,_RNvMs_NtNtCs46cA19QElOV_14do_memory_core10embeddings7metricsNtB4_15MetricsSnapshot6format
FNDA:1,_RNvNtNtNtCs46cA19QElOV_14do_memory_core10embeddings7metrics5testss_17test_success_rate
FNDA:1,_RNvNtNtNtCs46cA19QElOV_14do_memory_core10embeddings7metrics5testss_18test_latency_timer
FNDA:1,_RNvNtNtNtCs46cA19QElOV_14do_memory_core10embeddings7metrics5testss_18test_metrics_reset
FNDA:1,_RNvNtNtNtCs46cA19QElOV_14do_memory_core10embeddings7metrics5testss_19test_estimated_cost
FNDA:1,_RNvNtNtNtCs46cA19QElOV_14do_memory_core10embeddings7metrics5testss_22test_metrics_recording
FNDA:1,_RNvNtNtNtCs46cA19QElOV_14do_memory_core10embeddings7metrics5testss_23test_average_batch_size
FNDA:1,_RNvNtNtNtCs46cA19QElOV_14do_memory_core10embeddings7metrics5testss_24test_compression_metrics
FNF:27
FNH:22
DA:50,6
DA:51,6
DA:52,6
DA:55,8
DA:56,8
DA:57,8
DA:60,7
DA:61,7
DA:62,7
DA:63,7
DA:64,7
DA:65,7
DA:66,7
DA:67,7
DA:70,1
DA:71,1
DA:72,1
DA:75,0
DA:76,0
DA:77,0
DA:80,0
DA:81,0
DA:82,0
DA:85,0
DA:86,0
DA:87,0
DA:90,2
DA:91,2
DA:92,2
DA:93,2
DA:94,2
DA:95,2
DA:99,6
DA:100,6
DA:101,6
DA:102,6
DA:104,6
DA:105,4
DA:107,2
DA:110,6
DA:111,6
DA:112,6
DA:113,6
DA:114,6
DA:115,6
DA:116,6
DA:117,6
DA:118,6
DA:119,6
DA:120,6
DA:121,6
DA:122,6
DA:123,6
DA:126,1
DA:127,1
DA:128,1
DA:129,1
DA:130,1
DA:131,1
DA:132,1
DA:133,1
DA:134,1
DA:135,1
DA:136,1
DA:137,1
DA:138,1
DA:144,1
DA:145,1
DA:146,0
DA:147,1
DA:148,1
DA:149,1
DA:153,1
DA:154,1
DA:155,0
DA:156,1
DA:157,1
DA:158,1
DA:162,0
DA:163,0
DA:164,0
DA:165,0
DA:166,0
DA:167,0
DA:171,1
DA:172,1
DA:173,0
DA:174,1
DA:175,1
DA:176,1
DA:180,1
DA:181,1
DA:182,1
DA:183,1
DA:190,1
DA:191,1
DA:192,1
DA:196,1
DA:197,1
DA:198,0
DA:199,1
DA:200,1
DA:201,1
DA:205,0
DA:206,0
DA:220,0
DA:221,0
DA:225,0
DA:228,0
DA:229,0
DA:231,0
DA:242,1
DA:243,1
DA:244,1
DA:245,1
DA:246,1
DA:250,1
DA:251,1
DA:252,1
DA:260,1
DA:261,1
DA:263,1
DA:264,1
DA:266,1
DA:267,1
DA:268,1
DA:269,1
DA:270,1
DA:271,1
DA:272,1
DA:275,1
DA:276,1
DA:278,1
DA:279,1
DA:280,1
DA:281,1
DA:282,1
DA:283,1
DA:285,1
DA:286,1
DA:287,1
DA:288,1
DA:291,1
DA:292,1
DA:294,1
DA:295,1
DA:297,1
DA:298,1
DA:299,1
DA:300,1
DA:301,1
DA:302,1
DA:305,1
DA:306,1
DA:308,1
DA:309,1
DA:311,1
DA:312,1
DA:313,1
DA:316,1
DA:317,1
DA:319,1
DA:320,1
DA:321,1
DA:322,1
DA:324,1
DA:325,1
DA:326,1
DA:329,1
DA:330,1
DA:332,1
DA:333,1
DA:334,1
DA:336,1
DA:337,1
DA:338,1
DA:339,1
DA:342,1
DA:343,1
DA:344,1
DA:345,1
DA:346,1
DA:347,1
BRF:0
BRH:0
LF:183
LH:156
end_of_record
SF:/app/memory-core/src/embeddings/mock_model.rs
FN:27,_RNvMNtNtCsl8fXSKtwgoJ_14do_memory_core10embeddings10mock_modelNtB2_14MockLocalModel23generate_mock_embedding
FN:21,_RNvMNtNtCsl8fXSKtwgoJ_14do_memory_core10embeddings10mock_modelNtB2_14MockLocalModel3new
FN:114,_RNvXs0_NtNtCsl8fXSKtwgoJ_14do_memory_core10embeddings10mock_modelNtB5_14MockLocalModelNtNtB7_5local19LocalEmbeddingModel11embed_batch
FN:122,_RNvXs0_NtNtCsl8fXSKtwgoJ_14do_memory_core10embeddings10mock_modelNtB5_14MockLocalModelNtNtB7_5local19LocalEmbeddingModel4name
FN:110,_RNvXs0_NtNtCsl8fXSKtwgoJ_14do_memory_core10embeddings10mock_modelNtB5_14MockLocalModelNtNtB7_5local19LocalEmbeddingModel5embed
FN:126,_RNvXs0_NtNtCsl8fXSKtwgoJ_14do_memory_core10embeddings10mock_modelNtB5_14MockLocalModelNtNtB7_5local19LocalEmbeddingModel9dimension
FN:53,_RNvXs_NtNtCsl8fXSKtwgoJ_14do_memory_core10embeddings10mock_modelNtB4_14MockLocalModelNtNtB6_8provider17EmbeddingProvider10embed_text
FN:83,_RNvXs_NtNtCsl8fXSKtwgoJ_14do_memory_core10embeddings10mock_modelNtB4_14MockLocalModelNtNtB6_8provider17EmbeddingProvider10model_name
FN:72,_RNvXs_NtNtCsl8fXSKtwgoJ_14do_memory_core10embeddings10mock_modelNtB4_14MockLocalModelNtNtB6_8provider17EmbeddingProvider10similarity
FN:60,_RNvXs_NtNtCsl8fXSKtwgoJ_14do_memory_core10embeddings10mock_modelNtB4_14MockLocalModelNtNtB6_8provider17EmbeddingProvider11embed_batch
FN:87,_RNvXs_NtNtCsl8fXSKtwgoJ_14do_memory_core10embeddings10mock_modelNtB4_14MockLocalModelNtNtB6_8provider17EmbeddingProvider12is_available
FN:79,_RNvXs_NtNtCsl8fXSKtwgoJ_14do_memory_core10embeddings10mock_modelNtB4_14MockLocalModelNtNtB6_8provider17EmbeddingProvider19embedding_dimension
FN:91,_RNvXs_NtNtCsl8fXSKtwgoJ_14do_memory_core10embeddings10mock_modelNtB4_14MockLocalModelNtNtB6_8provider17EmbeddingProvider6warmup
FN:96,_RNvXs_NtNtCsl8fXSKtwgoJ_14do_memory_core10embeddings10mock_modelNtB4_14MockLocalModelNtNtB6_8provider17EmbeddingProvider8metadata
FN:27,_RNvMNtNtCs46cA19QElOV_14do_memory_core10embeddings10mock_modelNtB2_14MockLocalModel23generate_mock_embedding
FN:21,_RNvMNtNtCs46cA19QElOV_14do_memory_core10embeddings10mock_modelNtB2_14MockLocalModel3new
FN:114,_RNvXs0_NtNtCs46cA19QElOV_14do_memory_core10embeddings10mock_modelNtB5_14MockLocalModelNtNtB7_5local19LocalEmbeddingModel11embed_batch
FN:122,_RNvXs0_NtNtCs46cA19QElOV_14do_memory_core10embeddings10mock_modelNtB5_14MockLocalModelNtNtB7_5local19LocalEmbeddingModel4name
FN:110,_RNvXs0_NtNtCs46cA19QElOV_14do_memory_core10embeddings10mock_modelNtB5_14MockLocalModelNtNtB7_5local19LocalEmbeddingModel5embed
FN:126,_RNvXs0_NtNtCs46cA19QElOV_14do_memory_core10embeddings10mock_modelNtB5_14MockLocalModelNtNtB7_5local19LocalEmbeddingModel9dimension
FN:53,_RNvXs_NtNtCs46cA19QElOV_14do_memory_core10embeddings10mock_modelNtB4_14MockLocalModelNtNtB6_8provider17EmbeddingProvider10embed_text
FN:83,_RNvXs_NtNtCs46cA19QElOV_14do_memory_core10embeddings10mock_modelNtB4_14MockLocalModelNtNtB6_8provider17EmbeddingProvider10model_name
FN:72,_RNvXs_NtNtCs46cA19QElOV_14do_memory_core10embeddings10mock_modelNtB4_14MockLocalModelNtNtB6_8provider17EmbeddingProvider10similarity
FN:60,_RNvXs_NtNtCs46cA19QElOV_14do_memory_core10embeddings10mock_modelNtB4_14MockLocalModelNtNtB6_8provider17EmbeddingProvider11embed_batch
FN:87,_RNvXs_NtNtCs46cA19QElOV_14do_memory_core10embeddings10mock_modelNtB4_14MockLocalModelNtNtB6_8provider17EmbeddingProvider12is_available
FN:79,_RNvXs_NtNtCs46cA19QElOV_14do_memory_core10embeddings10mock_modelNtB4_14MockLocalModelNtNtB6_8provider17EmbeddingProvider19embedding_dimension
FN:91,_RNvXs_NtNtCs46cA19QElOV_14do_memory_core10embeddings10mock_modelNtB4_14MockLocalModelNtNtB6_8provider17EmbeddingProvider6warmup
FN:96,_RNvXs_NtNtCs46cA19QElOV_14do_memory_core10embeddings10mock_modelNtB4_14MockLocalModelNtNtB6_8provider17EmbeddingProvider8metadata
FNDA:153,_RNvMNtNtCsl8fXSKtwgoJ_14do_memory_core10embeddings10mock_modelNtB2_14MockLocalModel23generate_mock_embedding
FNDA:22,_RNvMNtNtCsl8fXSKtwgoJ_14do_memory_core10embeddings10mock_modelNtB2_14MockLocalModel3new
FNDA:2,_RNvXs0_NtNtCsl8fXSKtwgoJ_14do_memory_core10embeddings10mock_modelNtB5_14MockLocalModelNtNtB7_5local19LocalEmbeddingModel11embed_batch
FNDA:0,_RNvXs0_NtNtCsl8fXSKtwgoJ_14do_memory_core10embeddings10mock_modelNtB5_14MockLocalModelNtNtB7_5local19LocalEmbeddingModel4name
FNDA:50,_RNvXs0_NtNtCsl8fXSKtwgoJ_14do_memory_core10embeddings10mock_modelNtB5_14MockLocalModelNtNtB7_5local19LocalEmbeddingModel5embed
FNDA:0,_RNvXs0_NtNtCsl8fXSKtwgoJ_14do_memory_core10embeddings10mock_modelNtB5_14MockLocalModelNtNtB7_5local19LocalEmbeddingModel9dimension
FNDA:0,_RNvXs_NtNtCsl8fXSKtwgoJ_14do_memory_core10embeddings10mock_modelNtB4_14MockLocalModelNtNtB6_8provider17EmbeddingProvider10embed_text
FNDA:0,_RNvXs_NtNtCsl8fXSKtwgoJ_14do_memory_core10embeddings10mock_modelNtB4_14MockLocalModelNtNtB6_8provider17EmbeddingProvider10model_name
FNDA:0,_RNvXs_NtNtCsl8fXSKtwgoJ_14do_memory_core10embeddings10mock_modelNtB4_14MockLocalModelNtNtB6_8provider17EmbeddingProvider10similarity
FNDA:0,_RNvXs_NtNtCsl8fXSKtwgoJ_14do_memory_core10embeddings10mock_modelNtB4_14MockLocalModelNtNtB6_8provider17EmbeddingProvider11embed_batch
FNDA:0,_RNvXs_NtNtCsl8fXSKtwgoJ_14do_memory_core10embeddings10mock_modelNtB4_14MockLocalModelNtNtB6_8provider17EmbeddingProvider12is_available
FNDA:0,_RNvXs_NtNtCsl8fXSKtwgoJ_14do_memory_core10embeddings10mock_modelNtB4_14MockLocalModelNtNtB6_8provider17EmbeddingProvider19embedding_dimension
FNDA:0,_RNvXs_NtNtCsl8fXSKtwgoJ_14do_memory_core10embeddings10mock_modelNtB4_14MockLocalModelNtNtB6_8provider17EmbeddingProvider6warmup
FNDA:0,_RNvXs_NtNtCsl8fXSKtwgoJ_14do_memory_core10embeddings10mock_modelNtB4_14MockLocalModelNtNtB6_8provider17EmbeddingProvider8metadata
FNDA:21,_RNvMNtNtCs46cA19QElOV_14do_memory_core10embeddings10mock_modelNtB2_14MockLocalModel23generate_mock_embedding
FNDA:19,_RNvMNtNtCs46cA19QElOV_14do_memory_core10embeddings10mock_modelNtB2_14MockLocalModel3new
FNDA:1,_RNvXs0_NtNtCs46cA19QElOV_14do_memory_core10embeddings10mock_modelNtB5_14MockLocalModelNtNtB7_5local19LocalEmbeddingModel11embed_batch
FNDA:0,_RNvXs0_NtNtCs46cA19QElOV_14do_memory_core10embeddings10mock_modelNtB5_14MockLocalModelNtNtB7_5local19LocalEmbeddingModel4name
FNDA:12,_RNvXs0_NtNtCs46cA19QElOV_14do_memory_core10embeddings10mock_modelNtB5_14MockLocalModelNtNtB7_5local19LocalEmbeddingModel5embed
FNDA:0,_RNvXs0_NtNtCs46cA19QElOV_14do_memory_core10embeddings10mock_modelNtB5_14MockLocalModelNtNtB7_5local19LocalEmbeddingModel9dimension
FNDA:4,_RNvXs_NtNtCs46cA19QElOV_14do_memory_core10embeddings10mock_modelNtB4_14MockLocalModelNtNtB6_8provider17EmbeddingProvider10embed_text
FNDA:0,_RNvXs_NtNtCs46cA19QElOV_14do_memory_core10embeddings10mock_modelNtB4_14MockLocalModelNtNtB6_8provider17EmbeddingProvider10model_name
FNDA:1,_RNvXs_NtNtCs46cA19QElOV_14do_memory_core10embeddings10mock_modelNtB4_14MockLocalModelNtNtB6_8provider17EmbeddingProvider10similarity
FNDA:0,_RNvXs_NtNtCs46cA19QElOV_14do_memory_core10embeddings10mock_modelNtB4_14MockLocalModelNtNtB6_8provider17EmbeddingProvider11embed_batch
FNDA:0,_RNvXs_NtNtCs46cA19QElOV_14do_memory_core10embeddings10mock_modelNtB4_14MockLocalModelNtNtB6_8provider17EmbeddingProvider12is_available
FNDA:0,_RNvXs_NtNtCs46cA19QElOV_14do_memory_core10embeddings10mock_modelNtB4_14MockLocalModelNtNtB6_8provider17EmbeddingProvider19embedding_dimension
FNDA:0,_RNvXs_NtNtCs46cA19QElOV_14do_memory_core10embeddings10mock_modelNtB4_14MockLocalModelNtNtB6_8provider17EmbeddingProvider6warmup
FNDA:0,_RNvXs_NtNtCs46cA19QElOV_14do_memory_core10embeddings10mock_modelNtB4_14MockLocalModelNtNtB6_8provider17EmbeddingProvider8metadata
FNF:14
FNH:6
DA:21,41
DA:22,41
DA:23,41
DA:27,174
DA:32,174
DA:33,174
DA:34,174
DA:36,174
DA:37,174
DA:39,66816
DA:40,66816
DA:41,66816
DA:42,66816
DA:43,66816
DA:44,66816
DA:47,174
DA:48,174
DA:53,4
DA:58,4
DA:60,0
DA:70,0
DA:72,1
DA:77,1
DA:79,0
DA:80,0
DA:81,0
DA:83,0
DA:84,0
DA:85,0
DA:87,0
DA:89,0
DA:91,0
DA:94,0
DA:96,0
DA:97,0
DA:98,0
DA:99,0
DA:100,0
DA:101,0
DA:103,0
DA:110,62
DA:112,62
DA:114,3
DA:120,3
DA:122,0
DA:123,0
DA:124,0
DA:126,0
DA:127,0
DA:128,0
BRF:0
BRH:0
LF:50
LH:25
end_of_record
SF:/app/memory-core/src/embeddings/provider.rs
FN:155,_RNvNtNtNtCsl8fXSKtwgoJ_14do_memory_core10embeddings8provider5utils10chunk_text
FN:186,_RNvNtNtNtCsl8fXSKtwgoJ_14do_memory_core10embeddings8provider5utils18average_embeddings
FN:141,_RNvNtNtNtCsl8fXSKtwgoJ_14do_memory_core10embeddings8provider5utils18validate_dimension
FN:87,_RNvYpNtNtNtCsl8fXSKtwgoJ_14do_memory_core10embeddings8provider17EmbeddingProvider10similarityB9_
FN:70,_RNvYpNtNtNtCsl8fXSKtwgoJ_14do_memory_core10embeddings8provider17EmbeddingProvider11embed_batchB9_
FN:103,_RNvYpNtNtNtCsl8fXSKtwgoJ_14do_memory_core10embeddings8provider17EmbeddingProvider12is_availableB9_
FN:109,_RNvYpNtNtNtCsl8fXSKtwgoJ_14do_memory_core10embeddings8provider17EmbeddingProvider6warmupB9_
FN:116,_RNvYpNtNtNtCsl8fXSKtwgoJ_14do_memory_core10embeddings8provider17EmbeddingProvider8metadataB9_
FN:22,_RNvMNtNtCsl8fXSKtwgoJ_14do_memory_core10embeddings8providerNtB2_15EmbeddingResult3new
FN:33,_RNvMNtNtCsl8fXSKtwgoJ_14do_memory_core10embeddings8providerNtB2_15EmbeddingResult8detailed
FN:129,_RNvNtNtNtCsl8fXSKtwgoJ_14do_memory_core10embeddings8provider5utils16normalize_vector
FN:130,_RNCNvNtNtNtCsl8fXSKtwgoJ_14do_memory_core10embeddings8provider5utils16normalize_vector0B9_
FN:87,_RNvYNtNtNtCsl8fXSKtwgoJ_14do_memory_core10embeddings5local22LocalEmbeddingProviderNtNtB6_8provider17EmbeddingProvider10similarityCs1dgE7K7X3r2_29context_aware_embeddings_test
FN:231,_RNvNtNtNtCs46cA19QElOV_14do_memory_core10embeddings8provider5testss_15test_chunk_text
FN:217,_RNvNtNtNtCs46cA19QElOV_14do_memory_core10embeddings8provider5testss_21test_normalize_vector
FN:249,_RNvNtNtNtCs46cA19QElOV_14do_memory_core10embeddings8provider5testss_23test_average_embeddings
FN:274,_RNvNtNtNtCs46cA19QElOV_14do_memory_core10embeddings8provider5testss_23test_validate_dimension
FN:22,_RNvMNtNtCs46cA19QElOV_14do_memory_core10embeddings8providerNtB2_15EmbeddingResult3new
FN:33,_RNvMNtNtCs46cA19QElOV_14do_memory_core10embeddings8providerNtB2_15EmbeddingResult8detailed
FN:70,_RNvYpNtNtNtCs46cA19QElOV_14do_memory_core10embeddings8provider17EmbeddingProvider11embed_batchB9_
FN:226,_RNCNvNtNtNtCs46cA19QElOV_14do_memory_core10embeddings8provider5testss_21test_normalize_vector0B9_
FN:103,_RNvYNtNtNtNtCs46cA19QElOV_14do_memory_core14spatiotemporal10embeddings5tests21MockEmbeddingProviderNtNtNtBa_10embeddings8provider17EmbeddingProvider12is_availableBa_
FN:109,_RNvYNtNtNtNtCs46cA19QElOV_14do_memory_core14spatiotemporal10embeddings5tests21MockEmbeddingProviderNtNtNtBa_10embeddings8provider17EmbeddingProvider6warmupBa_
FN:116,_RNvYNtNtNtNtCs46cA19QElOV_14do_memory_core14spatiotemporal10embeddings5tests21MockEmbeddingProviderNtNtNtBa_10embeddings8provider17EmbeddingProvider8metadataBa_
FN:87,_RNvYNtNtNtCs46cA19QElOV_14do_memory_core10embeddings5local22LocalEmbeddingProviderNtNtB6_8provider17EmbeddingProvider10similarityB8_
FN:130,_RNCNvNtNtNtCs46cA19QElOV_14do_memory_core10embeddings8provider5utils16normalize_vector0B9_
FN:155,_RNvNtNtNtCs46cA19QElOV_14do_memory_core10embeddings8provider5utils10chunk_text
FN:129,_RNvNtNtNtCs46cA19QElOV_14do_memory_core10embeddings8provider5utils16normalize_vector
FN:186,_RNvNtNtNtCs46cA19QElOV_14do_memory_core10embeddings8provider5utils18average_embeddings
FN:141,_RNvNtNtNtCs46cA19QElOV_14do_memory_core10embeddings8provider5utils18validate_dimension
FN:87,_RNvYNtNtNtCsl8fXSKtwgoJ_14do_memory_core10embeddings5local22LocalEmbeddingProviderNtNtB6_8provider17EmbeddingProvider10similarityCsgrBw30QCVrl_26embedding_integration_test
FN:87,_RNvYNtNtNtCsl8fXSKtwgoJ_14do_memory_core10embeddings5local22LocalEmbeddingProviderNtNtB6_8provider17EmbeddingProvider10similarityCsaoCCEImll0o_36semantic_hierarchical_retrieval_test
FNDA:0,_RNvNtNtNtCsl8fXSKtwgoJ_14do_memory_core10embeddings8provider5utils10chunk_text
FNDA:0,_RNvNtNtNtCsl8fXSKtwgoJ_14do_memory_core10embeddings8provider5utils18average_embeddings
FNDA:0,_RNvNtNtNtCsl8fXSKtwgoJ_14do_memory_core10embeddings8provider5utils18validate_dimension
FNDA:0,_RNvYpNtNtNtCsl8fXSKtwgoJ_14do_memory_core10embeddings8provider17EmbeddingProvider10similarityB9_
FNDA:0,_RNvYpNtNtNtCsl8fXSKtwgoJ_14do_memory_core10embeddings8provider17EmbeddingProvider11embed_batchB9_
FNDA:0,_RNvYpNtNtNtCsl8fXSKtwgoJ_14do_memory_core10embeddings8provider17EmbeddingProvider12is_availableB9_
FNDA:0,_RNvYpNtNtNtCsl8fXSKtwgoJ_14do_memory_core10embeddings8provider17EmbeddingProvider6warmupB9_
FNDA:0,_RNvYpNtNtNtCsl8fXSKtwgoJ_14do_memory_core10embeddings8provider17EmbeddingProvider8metadataB9_
FNDA:0,_RNvMNtNtCsl8fXSKtwgoJ_14do_memory_core10embeddings8providerNtB2_15EmbeddingResult3new
FNDA:0,_RNvMNtNtCsl8fXSKtwgoJ_14do_memory_core10embeddings8providerNtB2_15EmbeddingResult8detailed
FNDA:153,_RNvNtNtNtCsl8fXSKtwgoJ_14do_memory_core10embeddings8provider5utils16normalize_vector
FNDA:58752,_RNCNvNtNtNtCsl8fXSKtwgoJ_14do_memory_core10embeddings8provider5utils16normalize_vector0B9_
FNDA:0,_RNvYNtNtNtCsl8fXSKtwgoJ_14do_memory_core10embeddings5local22LocalEmbeddingProviderNtNtB6_8provider17EmbeddingProvider10similarityCs1dgE7K7X3r2_29context_aware_embeddings_test
FNDA:1,_RNvNtNtNtCs46cA19QElOV_14do_memory_core10embeddings8provider5testss_15test_chunk_text
FNDA:1,_RNvNtNtNtCs46cA19QElOV_14do_memory_core10embeddings8provider5testss_21test_normalize_vector
FNDA:1,_RNvNtNtNtCs46cA19QElOV_14do_memory_core10embeddings8provider5testss_23test_average_embeddings
FNDA:1,_RNvNtNtNtCs46cA19QElOV_14do_memory_core10embeddings8provider5testss_23test_validate_dimension
FNDA:0,_RNvMNtNtCs46cA19QElOV_14do_memory_core10embeddings8providerNtB2_15EmbeddingResult3new
FNDA:0,_RNvMNtNtCs46cA19QElOV_14do_memory_core10embeddings8providerNtB2_15EmbeddingResult8detailed
FNDA:0,_RNvYpNtNtNtCs46cA19QElOV_14do_memory_core10embeddings8provider17EmbeddingProvider11embed_batchB9_
FNDA:2,_RNCNvNtNtNtCs46cA19QElOV_14do_memory_core10embeddings8provider5testss_21test_normalize_vector0B9_
FNDA:0,_RNvYNtNtNtNtCs46cA19QElOV_14do_memory_core14spatiotemporal10embeddings5tests21MockEmbeddingProviderNtNtNtBa_10embeddings8provider17EmbeddingProvider12is_availableBa_
FNDA:0,_RNvYNtNtNtNtCs46cA19QElOV_14do_memory_core14spatiotemporal10embeddings5tests21MockEmbeddingProviderNtNtNtBa_10embeddings8provider17EmbeddingProvider6warmupBa_
FNDA:0,_RNvYNtNtNtNtCs46cA19QElOV_14do_memory_core14spatiotemporal10embeddings5tests21MockEmbeddingProviderNtNtNtBa_10embeddings8provider17EmbeddingProvider8metadataBa_
FNDA:2,_RNvYNtNtNtCs46cA19QElOV_14do_memory_core10embeddings5local22LocalEmbeddingProviderNtNtB6_8provider17EmbeddingProvider10similarityB8_
FNDA:8069,_RNCNvNtNtNtCs46cA19QElOV_14do_memory_core10embeddings8provider5utils16normalize_vector0B9_
FNDA:1,_RNvNtNtNtCs46cA19QElOV_14do_memory_core10embeddings8provider5utils10chunk_text
FNDA:23,_RNvNtNtNtCs46cA19QElOV_14do_memory_core10embeddings8provider5utils16normalize_vector
FNDA:1,_RNvNtNtNtCs46cA19QElOV_14do_memory_core10embeddings8provider5utils18average_embeddings
FNDA:2,_RNvNtNtNtCs46cA19QElOV_14do_memory_core10embeddings8provider5utils18validate_dimension
FNDA:2,_RNvYNtNtNtCsl8fXSKtwgoJ_14do_memory_core10embeddings5local22LocalEmbeddingProviderNtNtB6_8provider17EmbeddingProvider10similarityCsgrBw30QCVrl_26embedding_integration_test
FNDA:0,_RNvYNtNtNtCsl8fXSKtwgoJ_14do_memory_core10embeddings5local22LocalEmbeddingProviderNtNtB6_8provider17EmbeddingProvider10similarityCsaoCCEImll0o_36semantic_hierarchical_retrieval_test
FNF:17
FNH:11
DA:22,0
DA:23,0
DA:24,0
DA:25,0
DA:26,0
DA:27,0
DA:28,0
DA:29,0
DA:33,0
DA:34,0
DA:35,0
DA:36,0
DA:37,0
DA:38,0
DA:39,0
DA:40,0
DA:41,0
DA:42,0
DA:43,0
DA:44,0
DA:45,0
DA:70,0
DA:77,0
DA:87,4
DA:94,4
DA:103,0
DA:106,0
DA:109,0
DA:113,0
DA:116,0
DA:117,0
DA:118,0
DA:119,0
DA:121,0
DA:129,176
DA:130,66821
DA:131,176
DA:132,66821
DA:133,66821
DA:134,66821
DA:135,0
DA:136,176
DA:137,176
DA:141,2
DA:142,2
DA:143,1
DA:145,1
DA:148,1
DA:149,1
DA:150,2
DA:155,1
DA:156,1
DA:157,0
DA:158,1
DA:160,1
DA:161,1
DA:162,1
DA:164,15
DA:165,15
DA:166,3
DA:167,3
DA:168,3
DA:169,12
DA:170,11
DA:171,11
DA:172,12
DA:176,1
DA:177,1
DA:178,1
DA:180,1
DA:181,1
DA:186,1
DA:187,1
DA:188,0
DA:189,1
DA:191,1
DA:192,1
DA:194,3
DA:195,3
DA:196,0
DA:197,3
DA:198,9
DA:199,9
DA:200,9
DA:203,1
DA:204,3
DA:205,3
DA:206,3
DA:208,1
DA:209,1
DA:217,1
DA:218,1
DA:219,1
DA:222,1
DA:223,1
DA:226,2
DA:227,1
DA:228,1
DA:231,1
DA:232,1
DA:233,1
DA:234,1
DA:236,1
DA:237,4
DA:238,4
DA:242,1
DA:243,1
DA:244,1
DA:245,1
DA:246,1
DA:249,1
DA:250,1
DA:251,1
DA:252,1
DA:253,1
DA:256,1
DA:257,1
DA:261,1
DA:262,1
DA:263,1
DA:264,1
DA:265,1
DA:266,1
DA:268,3
DA:269,3
DA:271,1
DA:274,1
DA:275,1
DA:277,1
DA:278,1
DA:279,1
BRF:0
BRH:0
LF:133
LH:97
end_of_record
SF:/app/memory-core/src/embeddings/semantic_service.rs
FN:214,_RNCNCNvMNtNtCsl8fXSKtwgoJ_14do_memory_core10embeddings16semantic_serviceNtB6_15SemanticService21find_similar_episodes00Ba_
FN:236,_RNCNCNvMNtNtCsl8fXSKtwgoJ_14do_memory_core10embeddings16semantic_serviceNtB6_15SemanticService21find_similar_patterns00Ba_
FN:265,_RNCNCNvMNtNtCsl8fXSKtwgoJ_14do_memory_core10embeddings16semantic_serviceNtB6_15SemanticService26find_episodes_by_embedding00Ba_
FN:289,_RNCNCNvMNtNtCsl8fXSKtwgoJ_14do_memory_core10embeddings16semantic_serviceNtB6_15SemanticService26find_patterns_by_embedding00Ba_
FN:164,_RNCNvMNtNtCsl8fXSKtwgoJ_14do_memory_core10embeddings16semantic_serviceNtB4_15SemanticService13embed_episode0B8_
FN:78,_RNCNvMNtNtCsl8fXSKtwgoJ_14do_memory_core10embeddings16semantic_serviceNtB4_15SemanticService13with_fallback0B8_
FN:240,_RNCNvMNtNtCsl8fXSKtwgoJ_14do_memory_core10embeddings16semantic_serviceNtB4_15SemanticService15text_similarity0B8_
FN:56,_RNCNvMNtNtCsl8fXSKtwgoJ_14do_memory_core10embeddings16semantic_serviceNtB4_15SemanticService19with_local_provider0B8_
FN:299,_RNCNvMNtNtCsl8fXSKtwgoJ_14do_memory_core10embeddings16semantic_serviceNtB4_15SemanticService20get_embeddings_batch0B8_
FN:203,_RNCNvMNtNtCsl8fXSKtwgoJ_14do_memory_core10embeddings16semantic_serviceNtB4_15SemanticService21find_similar_episodes0B8_
FN:225,_RNCNvMNtNtCsl8fXSKtwgoJ_14do_memory_core10embeddings16semantic_serviceNtB4_15SemanticService21find_similar_patterns0B8_
FN:261,_RNCNvMNtNtCsl8fXSKtwgoJ_14do_memory_core10embeddings16semantic_serviceNtB4_15SemanticService26find_episodes_by_embedding0B8_
FN:285,_RNCNvMNtNtCsl8fXSKtwgoJ_14do_memory_core10embeddings16semantic_serviceNtB4_15SemanticService26find_patterns_by_embedding0B8_
FN:66,_RNCNvMNtNtCsl8fXSKtwgoJ_14do_memory_core10embeddings16semantic_serviceNtB4_15SemanticService7default0B8_
FN:182,_RNCNvMNtNtCsl8fXSKtwgoJ_14do_memory_core10embeddings16semantic_serviceNtB4_15SemanticService13embed_pattern0B8_
FN:344,_RNCNvMNtNtCsl8fXSKtwgoJ_14do_memory_core10embeddings16semantic_serviceNtB4_15SemanticService15episode_to_text0B8_
FN:164,_RNvMNtNtCsl8fXSKtwgoJ_14do_memory_core10embeddings16semantic_serviceNtB2_15SemanticService13embed_episode
FN:182,_RNvMNtNtCsl8fXSKtwgoJ_14do_memory_core10embeddings16semantic_serviceNtB2_15SemanticService13embed_pattern
FN:75,_RNvMNtNtCsl8fXSKtwgoJ_14do_memory_core10embeddings16semantic_serviceNtB2_15SemanticService13with_fallback
FN:439,_RNvMNtNtCsl8fXSKtwgoJ_14do_memory_core10embeddings16semantic_serviceNtB2_15SemanticService15context_to_text
FN:310,_RNvMNtNtCsl8fXSKtwgoJ_14do_memory_core10embeddings16semantic_serviceNtB2_15SemanticService15episode_to_text
FN:368,_RNvMNtNtCsl8fXSKtwgoJ_14do_memory_core10embeddings16semantic_serviceNtB2_15SemanticService15pattern_to_text
FN:240,_RNvMNtNtCsl8fXSKtwgoJ_14do_memory_core10embeddings16semantic_serviceNtB2_15SemanticService15text_similarity
FN:421,_RNvMNtNtCsl8fXSKtwgoJ_14do_memory_core10embeddings16semantic_serviceNtB2_15SemanticService17create_query_text
FN:53,_RNvMNtNtCsl8fXSKtwgoJ_14do_memory_core10embeddings16semantic_serviceNtB2_15SemanticService19with_local_provider
FN:296,_RNvMNtNtCsl8fXSKtwgoJ_14do_memory_core10embeddings16semantic_serviceNtB2_15SemanticService20get_embeddings_batch
FN:198,_RNvMNtNtCsl8fXSKtwgoJ_14do_memory_core10embeddings16semantic_serviceNtB2_15SemanticService21find_similar_episodes
FN:221,_RNvMNtNtCsl8fXSKtwgoJ_14do_memory_core10embeddings16semantic_serviceNtB2_15SemanticService21find_similar_patterns
FN:256,_RNvMNtNtCsl8fXSKtwgoJ_14do_memory_core10embeddings16semantic_serviceNtB2_15SemanticService26find_episodes_by_embedding
FN:280,_RNvMNtNtCsl8fXSKtwgoJ_14do_memory_core10embeddings16semantic_serviceNtB2_15SemanticService26find_patterns_by_embedding
FN:34,_RNvMNtNtCsl8fXSKtwgoJ_14do_memory_core10embeddings16semantic_serviceNtB2_15SemanticService3new
FN:48,_RNvMNtNtCsl8fXSKtwgoJ_14do_memory_core10embeddings16semantic_serviceNtB2_15SemanticService6config
FN:66,_RNvMNtNtCsl8fXSKtwgoJ_14do_memory_core10embeddings16semantic_serviceNtB2_15SemanticService7default
FN:164,_RNCNvMNtNtCsl8fXSKtwgoJ_14do_memory_core10embeddings16semantic_serviceNtB4_15SemanticService13embed_episode0Csl2t77M2budw_16async_extraction
FN:214,_RNCNCNvMNtNtCsl8fXSKtwgoJ_14do_memory_core10embeddings16semantic_serviceNtB6_15SemanticService21find_similar_episodes00Cs8Y0Nm3vik3R_10compliance
FN:164,_RNCNvMNtNtCsl8fXSKtwgoJ_14do_memory_core10embeddings16semantic_serviceNtB4_15SemanticService13embed_episode0Cs8Y0Nm3vik3R_10compliance
FN:203,_RNCNvMNtNtCsl8fXSKtwgoJ_14do_memory_core10embeddings16semantic_serviceNtB4_15SemanticService21find_similar_episodes0Cs8Y0Nm3vik3R_10compliance
FN:164,_RNvMNtNtCs46cA19QElOV_14do_memory_core10embeddings16semantic_serviceNtB2_15SemanticService13embed_episode
FN:182,_RNvMNtNtCs46cA19QElOV_14do_memory_core10embeddings16semantic_serviceNtB2_15SemanticService13embed_pattern
FN:75,_RNvMNtNtCs46cA19QElOV_14do_memory_core10embeddings16semantic_serviceNtB2_15SemanticService13with_fallback
FN:439,_RNvMNtNtCs46cA19QElOV_14do_memory_core10embeddings16semantic_serviceNtB2_15SemanticService15context_to_text
FN:310,_RNvMNtNtCs46cA19QElOV_14do_memory_core10embeddings16semantic_serviceNtB2_15SemanticService15episode_to_text
FN:368,_RNvMNtNtCs46cA19QElOV_14do_memory_core10embeddings16semantic_serviceNtB2_15SemanticService15pattern_to_text
FN:240,_RNvMNtNtCs46cA19QElOV_14do_memory_core10embeddings16semantic_serviceNtB2_15SemanticService15text_similarity
FN:421,_RNvMNtNtCs46cA19QElOV_14do_memory_core10embeddings16semantic_serviceNtB2_15SemanticService17create_query_text
FN:53,_RNvMNtNtCs46cA19QElOV_14do_memory_core10embeddings16semantic_serviceNtB2_15SemanticService19with_local_provider
FN:198,_RNvMNtNtCs46cA19QElOV_14do_memory_core10embeddings16semantic_serviceNtB2_15SemanticService21find_similar_episodes
FN:221,_RNvMNtNtCs46cA19QElOV_14do_memory_core10embeddings16semantic_serviceNtB2_15SemanticService21find_similar_patterns
FN:34,_RNvMNtNtCs46cA19QElOV_14do_memory_core10embeddings16semantic_serviceNtB2_15SemanticService3new
FN:48,_RNvMNtNtCs46cA19QElOV_14do_memory_core10embeddings16semantic_serviceNtB2_15SemanticService6config
FN:66,_RNvMNtNtCs46cA19QElOV_14do_memory_core10embeddings16semantic_serviceNtB2_15SemanticService7default
FN:265,_RNCNCNvMNtNtCs46cA19QElOV_14do_memory_core10embeddings16semantic_serviceNtB6_15SemanticService26find_episodes_by_embedding00Ba_
FN:289,_RNCNCNvMNtNtCs46cA19QElOV_14do_memory_core10embeddings16semantic_serviceNtB6_15SemanticService26find_patterns_by_embedding00Ba_
FN:299,_RNCNvMNtNtCs46cA19QElOV_14do_memory_core10embeddings16semantic_serviceNtB4_15SemanticService20get_embeddings_batch0B8_
FN:261,_RNCNvMNtNtCs46cA19QElOV_14do_memory_core10embeddings16semantic_serviceNtB4_15SemanticService26find_episodes_by_embedding0B8_
FN:285,_RNCNvMNtNtCs46cA19QElOV_14do_memory_core10embeddings16semantic_serviceNtB4_15SemanticService26find_patterns_by_embedding0B8_
FN:296,_RNvMNtNtCs46cA19QElOV_14do_memory_core10embeddings16semantic_serviceNtB2_15SemanticService20get_embeddings_batch
FN:256,_RNvMNtNtCs46cA19QElOV_14do_memory_core10embeddings16semantic_serviceNtB2_15SemanticService26find_episodes_by_embedding
FN:280,_RNvMNtNtCs46cA19QElOV_14do_memory_core10embeddings16semantic_serviceNtB2_15SemanticService26find_patterns_by_embedding
FN:214,_RNCNCNvMNtNtCs46cA19QElOV_14do_memory_core10embeddings16semantic_serviceNtB6_15SemanticService21find_similar_episodes00Ba_
FN:236,_RNCNCNvMNtNtCs46cA19QElOV_14do_memory_core10embeddings16semantic_serviceNtB6_15SemanticService21find_similar_patterns00Ba_
FN:164,_RNCNvMNtNtCs46cA19QElOV_14do_memory_core10embeddings16semantic_serviceNtB4_15SemanticService13embed_episode0B8_
FN:182,_RNCNvMNtNtCs46cA19QElOV_14do_memory_core10embeddings16semantic_serviceNtB4_15SemanticService13embed_pattern0B8_
FN:78,_RNCNvMNtNtCs46cA19QElOV_14do_memory_core10embeddings16semantic_serviceNtB4_15SemanticService13with_fallback0B8_
FN:344,_RNCNvMNtNtCs46cA19QElOV_14do_memory_core10embeddings16semantic_serviceNtB4_15SemanticService15episode_to_text0B8_
FN:240,_RNCNvMNtNtCs46cA19QElOV_14do_memory_core10embeddings16semantic_serviceNtB4_15SemanticService15text_similarity0B8_
FN:56,_RNCNvMNtNtCs46cA19QElOV_14do_memory_core10embeddings16semantic_serviceNtB4_15SemanticService19with_local_provider0B8_
FN:203,_RNCNvMNtNtCs46cA19QElOV_14do_memory_core10embeddings16semantic_serviceNtB4_15SemanticService21find_similar_episodes0B8_
FN:225,_RNCNvMNtNtCs46cA19QElOV_14do_memory_core10embeddings16semantic_serviceNtB4_15SemanticService21find_similar_patterns0B8_
FN:66,_RNCNvMNtNtCs46cA19QElOV_14do_memory_core10embeddings16semantic_serviceNtB4_15SemanticService7default0B8_
FN:214,_RNCNCNvMNtNtCsl8fXSKtwgoJ_14do_memory_core10embeddings16semantic_serviceNtB6_15SemanticService21find_similar_episodes00CsgrBw30QCVrl_26embedding_integration_test
FN:164,_RNCNvMNtNtCsl8fXSKtwgoJ_14do_memory_core10embeddings16semantic_serviceNtB4_15SemanticService13embed_episode0CsgrBw30QCVrl_26embedding_integration_test
FN:78,_RNCNvMNtNtCsl8fXSKtwgoJ_14do_memory_core10embeddings16semantic_serviceNtB4_15SemanticService13with_fallback0CsgrBw30QCVrl_26embedding_integration_test
FN:203,_RNCNvMNtNtCsl8fXSKtwgoJ_14do_memory_core10embeddings16semantic_serviceNtB4_15SemanticService21find_similar_episodes0CsgrBw30QCVrl_26embedding_integration_test
FN:164,_RNCNvMNtNtCsl8fXSKtwgoJ_14do_memory_core10embeddings16semantic_serviceNtB4_15SemanticService13embed_episode0Cs5rMxCUgDzf0_22episode_filtering_test
FN:164,_RNCNvMNtNtCsl8fXSKtwgoJ_14do_memory_core10embeddings16semantic_serviceNtB4_15SemanticService13embed_episode0Cs3Fo6gHJh4GI_24genesis_integration_test
FN:164,_RNCNvMNtNtCsl8fXSKtwgoJ_14do_memory_core10embeddings16semantic_serviceNtB4_15SemanticService13embed_episode0CsbMzWChOpjhm_18heuristic_learning
FN:164,_RNCNvMNtNtCsl8fXSKtwgoJ_14do_memory_core10embeddings16semantic_serviceNtB4_15SemanticService13embed_episode0CsaPsuztuIJpk_16input_validation
FN:214,_RNCNCNvMNtNtCsl8fXSKtwgoJ_14do_memory_core10embeddings16semantic_serviceNtB6_15SemanticService21find_similar_episodes00Cs88LU71L0mqI_14learning_cycle
FN:164,_RNCNvMNtNtCsl8fXSKtwgoJ_14do_memory_core10embeddings16semantic_serviceNtB4_15SemanticService13embed_episode0Cs88LU71L0mqI_14learning_cycle
FN:203,_RNCNvMNtNtCsl8fXSKtwgoJ_14do_memory_core10embeddings16semantic_serviceNtB4_15SemanticService21find_similar_episodes0Cs88LU71L0mqI_14learning_cycle
FN:164,_RNCNvMNtNtCsl8fXSKtwgoJ_14do_memory_core10embeddings16semantic_serviceNtB4_15SemanticService13embed_episode0Csl4UHWu7meyU_31pattern_search_integration_test
FN:214,_RNCNCNvMNtNtCsl8fXSKtwgoJ_14do_memory_core10embeddings16semantic_serviceNtB6_15SemanticService21find_similar_episodes00Csk8xWN7fShrt_11performance
FN:164,_RNCNvMNtNtCsl8fXSKtwgoJ_14do_memory_core10embeddings16semantic_serviceNtB4_15SemanticService13embed_episode0Csk8xWN7fShrt_11performance
FN:203,_RNCNvMNtNtCsl8fXSKtwgoJ_14do_memory_core10embeddings16semantic_serviceNtB4_15SemanticService21find_similar_episodes0Csk8xWN7fShrt_11performance
FN:164,_RNCNvMNtNtCsl8fXSKtwgoJ_14do_memory_core10embeddings16semantic_serviceNtB4_15SemanticService13embed_episode0Cs5rUVsF5rDW0_23premem_integration_test
FN:214,_RNCNCNvMNtNtCsl8fXSKtwgoJ_14do_memory_core10embeddings16semantic_serviceNtB6_15SemanticService21find_similar_episodes00Csdoax4t5h3WK_10regression
FN:164,_RNCNvMNtNtCsl8fXSKtwgoJ_14do_memory_core10embeddings16semantic_serviceNtB4_15SemanticService13embed_episode0Csdoax4t5h3WK_10regression
FN:203,_RNCNvMNtNtCsl8fXSKtwgoJ_14do_memory_core10embeddings16semantic_serviceNtB4_15SemanticService21find_similar_episodes0Csdoax4t5h3WK_10regression
FN:214,_RNCNCNvMNtNtCsl8fXSKtwgoJ_14do_memory_core10embeddings16semantic_serviceNtB6_15SemanticService21find_similar_episodes00CsaoCCEImll0o_36semantic_hierarchical_retrieval_test
FN:164,_RNCNvMNtNtCsl8fXSKtwgoJ_14do_memory_core10embeddings16semantic_serviceNtB4_15SemanticService13embed_episode0CsaoCCEImll0o_36semantic_hierarchical_retrieval_test
FN:56,_RNCNvMNtNtCsl8fXSKtwgoJ_14do_memory_core10embeddings16semantic_serviceNtB4_15SemanticService19with_local_provider0CsaoCCEImll0o_36semantic_hierarchical_retrieval_test
FN:203,_RNCNvMNtNtCsl8fXSKtwgoJ_14do_memory_core10embeddings16semantic_serviceNtB4_15SemanticService21find_similar_episodes0CsaoCCEImll0o_36semantic_hierarchical_retrieval_test
FN:66,_RNCNvMNtNtCsl8fXSKtwgoJ_14do_memory_core10embeddings16semantic_serviceNtB4_15SemanticService7default0CsaoCCEImll0o_36semantic_hierarchical_retrieval_test
FN:164,_RNCNvMNtNtCsl8fXSKtwgoJ_14do_memory_core10embeddings16semantic_serviceNtB4_15SemanticService13embed_episode0CsbPJcDfmBHDL_13step_batching
FN:164,_RNCNvMNtNtCsl8fXSKtwgoJ_14do_memory_core10embeddings16semantic_serviceNtB4_15SemanticService13embed_episode0CsJzhEr7sGW1_19tag_operations_test
FNDA:0,_RNCNCNvMNtNtCsl8fXSKtwgoJ_14do_memory_core10embeddings16semantic_serviceNtB6_15SemanticService21find_similar_episodes00Ba_
FNDA:0,_RNCNCNvMNtNtCsl8fXSKtwgoJ_14do_memory_core10embeddings16semantic_serviceNtB6_15SemanticService21find_similar_patterns00Ba_
FNDA:0,_RNCNCNvMNtNtCsl8fXSKtwgoJ_14do_memory_core10embeddings16semantic_serviceNtB6_15SemanticService26find_episodes_by_embedding00Ba_
FNDA:0,_RNCNCNvMNtNtCsl8fXSKtwgoJ_14do_memory_core10embeddings16semantic_serviceNtB6_15SemanticService26find_patterns_by_embedding00Ba_
FNDA:0,_RNCNvMNtNtCsl8fXSKtwgoJ_14do_memory_core10embeddings16semantic_serviceNtB4_15SemanticService13embed_episode0B8_
FNDA:0,_RNCNvMNtNtCsl8fXSKtwgoJ_14do_memory_core10embeddings16semantic_serviceNtB4_15SemanticService13with_fallback0B8_
FNDA:0,_RNCNvMNtNtCsl8fXSKtwgoJ_14do_memory_core10embeddings16semantic_serviceNtB4_15SemanticService15text_similarity0B8_
FNDA:0,_RNCNvMNtNtCsl8fXSKtwgoJ_14do_memory_core10embeddings16semantic_serviceNtB4_15SemanticService19with_local_provider0B8_
FNDA:0,_RNCNvMNtNtCsl8fXSKtwgoJ_14do_memory_core10embeddings16semantic_serviceNtB4_15SemanticService20get_embeddings_batch0B8_
FNDA:0,_RNCNvMNtNtCsl8fXSKtwgoJ_14do_memory_core10embeddings16semantic_serviceNtB4_15SemanticService21find_similar_episodes0B8_
FNDA:0,_RNCNvMNtNtCsl8fXSKtwgoJ_14do_memory_core10embeddings16semantic_serviceNtB4_15SemanticService21find_similar_patterns0B8_
FNDA:0,_RNCNvMNtNtCsl8fXSKtwgoJ_14do_memory_core10embeddings16semantic_serviceNtB4_15SemanticService26find_episodes_by_embedding0B8_
FNDA:0,_RNCNvMNtNtCsl8fXSKtwgoJ_14do_memory_core10embeddings16semantic_serviceNtB4_15SemanticService26find_patterns_by_embedding0B8_
FNDA:0,_RNCNvMNtNtCsl8fXSKtwgoJ_14do_memory_core10embeddings16semantic_serviceNtB4_15SemanticService7default0B8_
FNDA:1,_RNCNvMNtNtCsl8fXSKtwgoJ_14do_memory_core10embeddings16semantic_serviceNtB4_15SemanticService13embed_pattern0B8_
FNDA:3,_RNCNvMNtNtCsl8fXSKtwgoJ_14do_memory_core10embeddings16semantic_serviceNtB4_15SemanticService15episode_to_text0B8_
FNDA:1,_RNvMNtNtCsl8fXSKtwgoJ_14do_memory_core10embeddings16semantic_serviceNtB2_15SemanticService13embed_episode
FNDA:1,_RNvMNtNtCsl8fXSKtwgoJ_14do_memory_core10embeddings16semantic_serviceNtB2_15SemanticService13embed_pattern
FNDA:14,_RNvMNtNtCsl8fXSKtwgoJ_14do_memory_core10embeddings16semantic_serviceNtB2_15SemanticService13with_fallback
FNDA:0,_RNvMNtNtCsl8fXSKtwgoJ_14do_memory_core10embeddings16semantic_serviceNtB2_15SemanticService15context_to_text
FNDA:1,_RNvMNtNtCsl8fXSKtwgoJ_14do_memory_core10embeddings16semantic_serviceNtB2_15SemanticService15episode_to_text
FNDA:1,_RNvMNtNtCsl8fXSKtwgoJ_14do_memory_core10embeddings16semantic_serviceNtB2_15SemanticService15pattern_to_text
FNDA:0,_RNvMNtNtCsl8fXSKtwgoJ_14do_memory_core10embeddings16semantic_serviceNtB2_15SemanticService15text_similarity
FNDA:0,_RNvMNtNtCsl8fXSKtwgoJ_14do_memory_core10embeddings16semantic_serviceNtB2_15SemanticService17create_query_text
FNDA:2,_RNvMNtNtCsl8fXSKtwgoJ_14do_memory_core10embeddings16semantic_serviceNtB2_15SemanticService19with_local_provider
FNDA:0,_RNvMNtNtCsl8fXSKtwgoJ_14do_memory_core10embeddings16semantic_serviceNtB2_15SemanticService20get_embeddings_batch
FNDA:0,_RNvMNtNtCsl8fXSKtwgoJ_14do_memory_core10embeddings16semantic_serviceNtB2_15SemanticService21find_similar_episodes
FNDA:0,_RNvMNtNtCsl8fXSKtwgoJ_14do_memory_core10embeddings16semantic_serviceNtB2_15SemanticService21find_similar_patterns
FNDA:0,_RNvMNtNtCsl8fXSKtwgoJ_14do_memory_core10embeddings16semantic_serviceNtB2_15SemanticService26find_episodes_by_embedding
FNDA:0,_RNvMNtNtCsl8fXSKtwgoJ_14do_memory_core10embeddings16semantic_serviceNtB2_15SemanticService26find_patterns_by_embedding
FNDA:16,_RNvMNtNtCsl8fXSKtwgoJ_14do_memory_core10embeddings16semantic_serviceNtB2_15SemanticService3new
FNDA:0,_RNvMNtNtCsl8fXSKtwgoJ_14do_memory_core10embeddings16semantic_serviceNtB2_15SemanticService6config
FNDA:2,_RNvMNtNtCsl8fXSKtwgoJ_14do_memory_core10embeddings16semantic_serviceNtB2_15SemanticService7default
FNDA:0,_RNCNvMNtNtCsl8fXSKtwgoJ_14do_memory_core10embeddings16semantic_serviceNtB4_15SemanticService13embed_episode0Csl2t77M2budw_16async_extraction
FNDA:0,_RNCNCNvMNtNtCsl8fXSKtwgoJ_14do_memory_core10embeddings16semantic_serviceNtB6_15SemanticService21find_similar_episodes00Cs8Y0Nm3vik3R_10compliance
FNDA:0,_RNCNvMNtNtCsl8fXSKtwgoJ_14do_memory_core10embeddings16semantic_serviceNtB4_15SemanticService13embed_episode0Cs8Y0Nm3vik3R_10compliance
FNDA:0,_RNCNvMNtNtCsl8fXSKtwgoJ_14do_memory_core10embeddings16semantic_serviceNtB4_15SemanticService21find_similar_episodes0Cs8Y0Nm3vik3R_10compliance
FNDA:1,_RNvMNtNtCs46cA19QElOV_14do_memory_core10embeddings16semantic_serviceNtB2_15SemanticService13embed_episode
FNDA:1,_RNvMNtNtCs46cA19QElOV_14do_memory_core10embeddings16semantic_serviceNtB2_15SemanticService13embed_pattern
FNDA:3,_RNvMNtNtCs46cA19QElOV_14do_memory_core10embeddings16semantic_serviceNtB2_15SemanticService13with_fallback
FNDA:1,_RNvMNtNtCs46cA19QElOV_14do_memory_core10embeddings16semantic_serviceNtB2_15SemanticService15context_to_text
FNDA:1,_RNvMNtNtCs46cA19QElOV_14do_memory_core10embeddings16semantic_serviceNtB2_15SemanticService15episode_to_text
FNDA:1,_RNvMNtNtCs46cA19QElOV_14do_memory_core10embeddings16semantic_serviceNtB2_15SemanticService15pattern_to_text
FNDA:1,_RNvMNtNtCs46cA19QElOV_14do_memory_core10embeddings16semantic_serviceNtB2_15SemanticService15text_similarity
FNDA:1,_RNvMNtNtCs46cA19QElOV_14do_memory_core10embeddings16semantic_serviceNtB2_15SemanticService17create_query_text
FNDA:1,_RNvMNtNtCs46cA19QElOV_14do_memory_core10embeddings16semantic_serviceNtB2_15SemanticService19with_local_provider
FNDA:1,_RNvMNtNtCs46cA19QElOV_14do_memory_core10embeddings16semantic_serviceNtB2_15SemanticService21find_similar_episodes
FNDA:1,_RNvMNtNtCs46cA19QElOV_14do_memory_core10embeddings16semantic_serviceNtB2_15SemanticService21find_similar_patterns
FNDA:10,_RNvMNtNtCs46cA19QElOV_14do_memory_core10embeddings16semantic_serviceNtB2_15SemanticService3new
FNDA:4,_RNvMNtNtCs46cA19QElOV_14do_memory_core10embeddings16semantic_serviceNtB2_15SemanticService6config
FNDA:1,_RNvMNtNtCs46cA19QElOV_14do_memory_core10embeddings16semantic_serviceNtB2_15SemanticService7default
FNDA:0,_RNCNCNvMNtNtCs46cA19QElOV_14do_memory_core10embeddings16semantic_serviceNtB6_15SemanticService26find_episodes_by_embedding00Ba_
FNDA:0,_RNCNCNvMNtNtCs46cA19QElOV_14do_memory_core10embeddings16semantic_serviceNtB6_15SemanticService26find_patterns_by_embedding00Ba_
FNDA:0,_RNCNvMNtNtCs46cA19QElOV_14do_memory_core10embeddings16semantic_serviceNtB4_15SemanticService20get_embeddings_batch0B8_
FNDA:0,_RNCNvMNtNtCs46cA19QElOV_14do_memory_core10embeddings16semantic_serviceNtB4_15SemanticService26find_episodes_by_embedding0B8_
FNDA:0,_RNCNvMNtNtCs46cA19QElOV_14do_memory_core10embeddings16semantic_serviceNtB4_15SemanticService26find_patterns_by_embedding0B8_
FNDA:0,_RNvMNtNtCs46cA19QElOV_14do_memory_core10embeddings16semantic_serviceNtB2_15SemanticService20get_embeddings_batch
FNDA:0,_RNvMNtNtCs46cA19QElOV_14do_memory_core10embeddings16semantic_serviceNtB2_15SemanticService26find_episodes_by_embedding
FNDA:0,_RNvMNtNtCs46cA19QElOV_14do_memory_core10embeddings16semantic_serviceNtB2_15SemanticService26find_patterns_by_embedding
FNDA:0,_RNCNCNvMNtNtCs46cA19QElOV_14do_memory_core10embeddings16semantic_serviceNtB6_15SemanticService21find_similar_episodes00Ba_
FNDA:0,_RNCNCNvMNtNtCs46cA19QElOV_14do_memory_core10embeddings16semantic_serviceNtB6_15SemanticService21find_similar_patterns00Ba_
FNDA:1,_RNCNvMNtNtCs46cA19QElOV_14do_memory_core10embeddings16semantic_serviceNtB4_15SemanticService13embed_episode0B8_
FNDA:1,_RNCNvMNtNtCs46cA19QElOV_14do_memory_core10embeddings16semantic_serviceNtB4_15SemanticService13embed_pattern0B8_
FNDA:3,_RNCNvMNtNtCs46cA19QElOV_14do_memory_core10embeddings16semantic_serviceNtB4_15SemanticService13with_fallback0B8_
FNDA:0,_RNCNvMNtNtCs46cA19QElOV_14do_memory_core10embeddings16semantic_serviceNtB4_15SemanticService15episode_to_text0B8_
FNDA:1,_RNCNvMNtNtCs46cA19QElOV_14do_memory_core10embeddings16semantic_serviceNtB4_15SemanticService15text_similarity0B8_
FNDA:1,_RNCNvMNtNtCs46cA19QElOV_14do_memory_core10embeddings16semantic_serviceNtB4_15SemanticService19with_local_provider0B8_
FNDA:1,_RNCNvMNtNtCs46cA19QElOV_14do_memory_core10embeddings16semantic_serviceNtB4_15SemanticService21find_similar_episodes0B8_
FNDA:1,_RNCNvMNtNtCs46cA19QElOV_14do_memory_core10embeddings16semantic_serviceNtB4_15SemanticService21find_similar_patterns0B8_
FNDA:1,_RNCNvMNtNtCs46cA19QElOV_14do_memory_core10embeddings16semantic_serviceNtB4_15SemanticService7default0B8_
FNDA:0,_RNCNCNvMNtNtCsl8fXSKtwgoJ_14do_memory_core10embeddings16semantic_serviceNtB6_15SemanticService21find_similar_episodes00CsgrBw30QCVrl_26embedding_integration_test
FNDA:1,_RNCNvMNtNtCsl8fXSKtwgoJ_14do_memory_core10embeddings16semantic_serviceNtB4_15SemanticService13embed_episode0CsgrBw30QCVrl_26embedding_integration_test
FNDA:14,_RNCNvMNtNtCsl8fXSKtwgoJ_14do_memory_core10embeddings16semantic_serviceNtB4_15SemanticService13with_fallback0CsgrBw30QCVrl_26embedding_integration_test
FNDA:0,_RNCNvMNtNtCsl8fXSKtwgoJ_14do_memory_core10embeddings16semantic_serviceNtB4_15SemanticService21find_similar_episodes0CsgrBw30QCVrl_26embedding_integration_test
FNDA:0,_RNCNvMNtNtCsl8fXSKtwgoJ_14do_memory_core10embeddings16semantic_serviceNtB4_15SemanticService13embed_episode0Cs5rMxCUgDzf0_22episode_filtering_test
FNDA:0,_RNCNvMNtNtCsl8fXSKtwgoJ_14do_memory_core10embeddings16semantic_serviceNtB4_15SemanticService13embed_episode0Cs3Fo6gHJh4GI_24genesis_integration_test
FNDA:0,_RNCNvMNtNtCsl8fXSKtwgoJ_14do_memory_core10embeddings16semantic_serviceNtB4_15SemanticService13embed_episode0CsbMzWChOpjhm_18heuristic_learning
FNDA:0,_RNCNvMNtNtCsl8fXSKtwgoJ_14do_memory_core10embeddings16semantic_serviceNtB4_15SemanticService13embed_episode0CsaPsuztuIJpk_16input_validation
FNDA:0,_RNCNCNvMNtNtCsl8fXSKtwgoJ_14do_memory_core10embeddings16semantic_serviceNtB6_15SemanticService21find_similar_episodes00Cs88LU71L0mqI_14learning_cycle
FNDA:0,_RNCNvMNtNtCsl8fXSKtwgoJ_14do_memory_core10embeddings16semantic_serviceNtB4_15SemanticService13embed_episode0Cs88LU71L0mqI_14learning_cycle
FNDA:0,_RNCNvMNtNtCsl8fXSKtwgoJ_14do_memory_core10embeddings16semantic_serviceNtB4_15SemanticService21find_similar_episodes0Cs88LU71L0mqI_14learning_cycle
FNDA:0,_RNCNvMNtNtCsl8fXSKtwgoJ_14do_memory_core10embeddings16semantic_serviceNtB4_15SemanticService13embed_episode0Csl4UHWu7meyU_31pattern_search_integration_test
FNDA:0,_RNCNCNvMNtNtCsl8fXSKtwgoJ_14do_memory_core10embeddings16semantic_serviceNtB6_15SemanticService21find_similar_episodes00Csk8xWN7fShrt_11performance
FNDA:0,_RNCNvMNtNtCsl8fXSKtwgoJ_14do_memory_core10embeddings16semantic_serviceNtB4_15SemanticService13embed_episode0Csk8xWN7fShrt_11performance
FNDA:0,_RNCNvMNtNtCsl8fXSKtwgoJ_14do_memory_core10embeddings16semantic_serviceNtB4_15SemanticService21find_similar_episodes0Csk8xWN7fShrt_11performance
FNDA:0,_RNCNvMNtNtCsl8fXSKtwgoJ_14do_memory_core10embeddings16semantic_serviceNtB4_15SemanticService13embed_episode0Cs5rUVsF5rDW0_23premem_integration_test
FNDA:0,_RNCNCNvMNtNtCsl8fXSKtwgoJ_14do_memory_core10embeddings16semantic_serviceNtB6_15SemanticService21find_similar_episodes00Csdoax4t5h3WK_10regression
FNDA:0,_RNCNvMNtNtCsl8fXSKtwgoJ_14do_memory_core10embeddings16semantic_serviceNtB4_15SemanticService13embed_episode0Csdoax4t5h3WK_10regression
FNDA:0,_RNCNvMNtNtCsl8fXSKtwgoJ_14do_memory_core10embeddings16semantic_serviceNtB4_15SemanticService21find_similar_episodes0Csdoax4t5h3WK_10regression
FNDA:0,_RNCNCNvMNtNtCsl8fXSKtwgoJ_14do_memory_core10embeddings16semantic_serviceNtB6_15SemanticService21find_similar_episodes00CsaoCCEImll0o_36semantic_hierarchical_retrieval_test
FNDA:0,_RNCNvMNtNtCsl8fXSKtwgoJ_14do_memory_core10embeddings16semantic_serviceNtB4_15SemanticService13embed_episode0CsaoCCEImll0o_36semantic_hierarchical_retrieval_test
FNDA:2,_RNCNvMNtNtCsl8fXSKtwgoJ_14do_memory_core10embeddings16semantic_serviceNtB4_15SemanticService19with_local_provider0CsaoCCEImll0o_36semantic_hierarchical_retrieval_test
FNDA:0,_RNCNvMNtNtCsl8fXSKtwgoJ_14do_memory_core10embeddings16semantic_serviceNtB4_15SemanticService21find_similar_episodes0CsaoCCEImll0o_36semantic_hierarchical_retrieval_test
FNDA:2,_RNCNvMNtNtCsl8fXSKtwgoJ_14do_memory_core10embeddings16semantic_serviceNtB4_15SemanticService7default0CsaoCCEImll0o_36semantic_hierarchical_retrieval_test
FNDA:0,_RNCNvMNtNtCsl8fXSKtwgoJ_14do_memory_core10embeddings16semantic_serviceNtB4_15SemanticService13embed_episode0CsbPJcDfmBHDL_13step_batching
FNDA:0,_RNCNvMNtNtCsl8fXSKtwgoJ_14do_memory_core10embeddings16semantic_serviceNtB4_15SemanticService13embed_episode0CsJzhEr7sGW1_19tag_operations_test
FNF:33
FNH:23
DA:34,26
DA:35,26
DA:36,26
DA:37,26
DA:38,26
DA:39,26
DA:40,26
DA:41,26
DA:42,26
DA:43,26
DA:44,26
DA:48,4
DA:49,4
DA:50,4
DA:53,3
DA:54,3
DA:55,3
DA:56,3
DA:57,3
DA:58,3
DA:59,0
DA:61,3
DA:62,3
DA:63,3
DA:66,3
DA:67,3
DA:68,3
DA:69,3
DA:75,17
DA:76,17
DA:77,17
DA:78,17
DA:80,17
DA:81,17
DA:84,17
DA:86,17
DA:88,17
DA:90,17
DA:91,17
DA:92,17
DA:94,0
DA:95,0
DA:127,0
DA:130,0
DA:131,0
DA:136,0
DA:137,0
DA:138,0
DA:139,17
DA:164,2
DA:165,2
DA:166,2
DA:169,2
DA:170,2
DA:171,2
DA:173,2
DA:174,2
DA:182,2
DA:183,2
DA:184,2
DA:187,2
DA:188,2
DA:189,2
DA:191,2
DA:192,2
DA:198,1
DA:199,1
DA:200,1
DA:201,1
DA:202,1
DA:203,1
DA:205,1
DA:208,1
DA:211,1
DA:212,1
DA:213,1
DA:214,1
DA:215,1
DA:221,1
DA:222,1
DA:223,1
DA:224,1
DA:225,1
DA:227,1
DA:230,1
DA:233,1
DA:234,1
DA:235,1
DA:236,1
DA:237,1
DA:240,1
DA:241,1
DA:242,1
DA:256,0
DA:257,0
DA:258,0
DA:259,0
DA:260,0
DA:261,0
DA:262,0
DA:263,0
DA:264,0
DA:265,0
DA:266,0
DA:280,0
DA:281,0
DA:282,0
DA:283,0
DA:284,0
DA:285,0
DA:286,0
DA:287,0
DA:288,0
DA:289,0
DA:290,0
DA:296,0
DA:297,0
DA:298,0
DA:299,0
DA:301,0
DA:302,0
DA:303,0
DA:304,0
DA:306,0
DA:307,0
DA:310,2
DA:312,2
DA:316,2
DA:317,2
DA:318,2
DA:319,2
DA:320,2
DA:321,1
DA:322,1
DA:323,2
DA:324,2
DA:325,2
DA:328,2
DA:331,1
DA:332,1
DA:333,5
DA:334,5
DA:335,5
DA:336,5
DA:338,1
DA:340,1
DA:341,1
DA:342,1
DA:343,1
DA:344,3
DA:345,1
DA:346,1
DA:347,1
DA:350,2
DA:351,1
DA:352,1
DA:353,1
DA:354,1
DA:355,0
DA:356,0
DA:357,0
DA:358,0
DA:359,0
DA:360,0
DA:362,1
DA:364,2
DA:365,2
DA:368,2
DA:369,2
DA:372,2
DA:373,2
DA:374,2
DA:377,0
DA:379,0
DA:382,0
DA:383,0
DA:386,0
DA:389,0
DA:393,0
DA:394,0
DA:397,0
DA:399,0
DA:404,2
DA:407,2
DA:408,2
DA:409,2
DA:410,2
DA:411,2
DA:412,2
DA:413,1
DA:414,1
DA:415,0
DA:417,2
DA:418,2
DA:421,1
DA:422,1
DA:424,1
DA:425,1
DA:426,1
DA:427,1
DA:428,1
DA:429,0
DA:430,1
DA:431,1
DA:432,1
DA:433,1
DA:435,1
DA:436,1
DA:439,1
DA:440,1
DA:442,1
DA:443,1
DA:444,1
DA:445,1
DA:446,1
DA:447,0
DA:448,1
DA:449,1
DA:450,1
DA:451,1
DA:452,1
DA:454,1
DA:455,1
BRF:0
BRH:0
LF:239
LH:170
end_of_record
SF:/app/memory-core/src/embeddings/similarity.rs
FN:44,_RNCNvNtNtCsl8fXSKtwgoJ_14do_memory_core10embeddings10similarity17cosine_similarity0B7_
FN:46,_RNCNvNtNtCsl8fXSKtwgoJ_14do_memory_core10embeddings10similarity17cosine_similaritys0_0B7_
FN:45,_RNCNvNtNtCsl8fXSKtwgoJ_14do_memory_core10embeddings10similarity17cosine_similaritys_0B7_
FN:35,_RNvNtNtCsl8fXSKtwgoJ_14do_memory_core10embeddings10similarity17cosine_similarity
FN:44,_RNCNvNtNtCs46cA19QElOV_14do_memory_core10embeddings10similarity17cosine_similarity0B7_
FN:46,_RNCNvNtNtCs46cA19QElOV_14do_memory_core10embeddings10similarity17cosine_similaritys0_0B7_
FN:45,_RNCNvNtNtCs46cA19QElOV_14do_memory_core10embeddings10similarity17cosine_similaritys_0B7_
FN:35,_RNvNtNtCs46cA19QElOV_14do_memory_core10embeddings10similarity17cosine_similarity
FN:62,_RNvNtNtNtCs46cA19QElOV_14do_memory_core10embeddings10similarity5testss_22test_cosine_similarity
FNDA:1159,_RNCNvNtNtCsl8fXSKtwgoJ_14do_memory_core10embeddings10similarity17cosine_similarity0B7_
FNDA:1159,_RNCNvNtNtCsl8fXSKtwgoJ_14do_memory_core10embeddings10similarity17cosine_similaritys0_0B7_
FNDA:1159,_RNCNvNtNtCsl8fXSKtwgoJ_14do_memory_core10embeddings10similarity17cosine_similaritys_0B7_
FNDA:28,_RNvNtNtCsl8fXSKtwgoJ_14do_memory_core10embeddings10similarity17cosine_similarity
FNDA:1160,_RNCNvNtNtCs46cA19QElOV_14do_memory_core10embeddings10similarity17cosine_similarity0B7_
FNDA:1160,_RNCNvNtNtCs46cA19QElOV_14do_memory_core10embeddings10similarity17cosine_similaritys0_0B7_
FNDA:1160,_RNCNvNtNtCs46cA19QElOV_14do_memory_core10embeddings10similarity17cosine_similaritys_0B7_
FNDA:7,_RNvNtNtCs46cA19QElOV_14do_memory_core10embeddings10similarity17cosine_similarity
FNDA:1,_RNvNtNtNtCs46cA19QElOV_14do_memory_core10embeddings10similarity5testss_22test_cosine_similarity
FNF:5
FNH:5
DA:35,35
DA:36,35
DA:37,24
DA:38,11
DA:40,11
DA:41,0
DA:42,11
DA:44,2319
DA:45,2319
DA:46,2319
DA:48,11
DA:49,0
DA:50,11
DA:53,11
DA:54,11
DA:55,35
DA:62,1
DA:63,1
DA:64,1
DA:65,1
DA:66,1
DA:68,1
DA:69,1
DA:70,1
DA:71,1
DA:73,1
DA:74,1
DA:75,1
DA:76,1
DA:78,1
DA:79,1
DA:80,1
DA:81,1
DA:82,1
BRF:0
BRH:0
LF:37
LH:35
end_of_record
SF:/app/memory-core/src/embeddings/storage.rs
FN:77,_RNCNvMNtNtCsl8fXSKtwgoJ_14do_memory_core10embeddings7storageNtB4_24InMemoryEmbeddingStorage11add_episode0B8_
FN:83,_RNCNvMNtNtCsl8fXSKtwgoJ_14do_memory_core10embeddings7storageNtB4_24InMemoryEmbeddingStorage11add_pattern0B8_
FN:267,_RNvMs0_NtNtCsl8fXSKtwgoJ_14do_memory_core10embeddings7storageINtB5_16EmbeddingStoragepE3newB9_
FN:336,_RNvXININtNtCsl8fXSKtwgoJ_14do_memory_core10embeddings7storages2_0pEINtB5_16EmbeddingStoragepENtB5_23EmbeddingStorageBackend21find_similar_episodesB9_
FN:357,_RNvXININtNtCsl8fXSKtwgoJ_14do_memory_core10embeddings7storages2_0pEINtB5_16EmbeddingStoragepENtB5_23EmbeddingStorageBackend21find_similar_patternsB9_
FN:313,_RNvXININtNtCsl8fXSKtwgoJ_14do_memory_core10embeddings7storages2_0pEINtB5_16EmbeddingStoragepENtB5_23EmbeddingStorageBackend21get_episode_embeddingB9_
FN:322,_RNvXININtNtCsl8fXSKtwgoJ_14do_memory_core10embeddings7storages2_0pEINtB5_16EmbeddingStoragepENtB5_23EmbeddingStorageBackend21get_pattern_embeddingB9_
FN:279,_RNvXININtNtCsl8fXSKtwgoJ_14do_memory_core10embeddings7storages2_0pEINtB5_16EmbeddingStoragepENtB5_23EmbeddingStorageBackend23store_episode_embeddingB9_
FN:298,_RNvXININtNtCsl8fXSKtwgoJ_14do_memory_core10embeddings7storages2_0pEINtB5_16EmbeddingStoragepENtB5_23EmbeddingStorageBackend23store_pattern_embeddingB9_
FN:77,_RNvMNtNtCsl8fXSKtwgoJ_14do_memory_core10embeddings7storageNtB2_24InMemoryEmbeddingStorage11add_episode
FN:83,_RNvMNtNtCsl8fXSKtwgoJ_14do_memory_core10embeddings7storageNtB2_24InMemoryEmbeddingStorage11add_pattern
FN:59,_RNvMNtNtCsl8fXSKtwgoJ_14do_memory_core10embeddings7storageNtB2_24InMemoryEmbeddingStorage3new
FN:134,_RNvXs1_NtNtCsl8fXSKtwgoJ_14do_memory_core10embeddings7storageNtB5_24InMemoryEmbeddingStorageNtB5_23EmbeddingStorageBackend21find_similar_episodes
FN:176,_RNvXs1_NtNtCsl8fXSKtwgoJ_14do_memory_core10embeddings7storageNtB5_24InMemoryEmbeddingStorageNtB5_23EmbeddingStorageBackend21find_similar_patterns
FN:119,_RNvXs1_NtNtCsl8fXSKtwgoJ_14do_memory_core10embeddings7storageNtB5_24InMemoryEmbeddingStorageNtB5_23EmbeddingStorageBackend21get_episode_embedding
FN:124,_RNvXs1_NtNtCsl8fXSKtwgoJ_14do_memory_core10embeddings7storageNtB5_24InMemoryEmbeddingStorageNtB5_23EmbeddingStorageBackend21get_pattern_embedding
FN:103,_RNvXs1_NtNtCsl8fXSKtwgoJ_14do_memory_core10embeddings7storageNtB5_24InMemoryEmbeddingStorageNtB5_23EmbeddingStorageBackend23store_episode_embedding
FN:113,_RNvXs1_NtNtCsl8fXSKtwgoJ_14do_memory_core10embeddings7storageNtB5_24InMemoryEmbeddingStorageNtB5_23EmbeddingStorageBackend23store_pattern_embedding
FN:96,_RNvXs_NtNtCsl8fXSKtwgoJ_14do_memory_core10embeddings7storageNtB4_24InMemoryEmbeddingStorageNtNtCs4kUJL3MZFFz_4core7default7Default7default
FN:159,_RNCNCNvXs1_NtNtCsl8fXSKtwgoJ_14do_memory_core10embeddings7storageNtB9_24InMemoryEmbeddingStorageNtB9_23EmbeddingStorageBackend21find_similar_episodes00Bd_
FN:201,_RNCNCNvXs1_NtNtCsl8fXSKtwgoJ_14do_memory_core10embeddings7storageNtB9_24InMemoryEmbeddingStorageNtB9_23EmbeddingStorageBackend21find_similar_patterns00Bd_
FN:159,_RNCNCNvXs1_NtNtCs46cA19QElOV_14do_memory_core10embeddings7storageNtB9_24InMemoryEmbeddingStorageNtB9_23EmbeddingStorageBackend21find_similar_episodes00Bd_
FN:201,_RNCNCNvXs1_NtNtCs46cA19QElOV_14do_memory_core10embeddings7storageNtB9_24InMemoryEmbeddingStorageNtB9_23EmbeddingStorageBackend21find_similar_patterns00Bd_
FN:77,_RNCNvMNtNtCs46cA19QElOV_14do_memory_core10embeddings7storageNtB4_24InMemoryEmbeddingStorage11add_episode0B8_
FN:83,_RNCNvMNtNtCs46cA19QElOV_14do_memory_core10embeddings7storageNtB4_24InMemoryEmbeddingStorage11add_pattern0B8_
FN:77,_RNvMNtNtCs46cA19QElOV_14do_memory_core10embeddings7storageNtB2_24InMemoryEmbeddingStorage11add_episode
FN:83,_RNvMNtNtCs46cA19QElOV_14do_memory_core10embeddings7storageNtB2_24InMemoryEmbeddingStorage11add_pattern
FN:59,_RNvMNtNtCs46cA19QElOV_14do_memory_core10embeddings7storageNtB2_24InMemoryEmbeddingStorage3new
FN:267,_RNvMs0_NtNtCs46cA19QElOV_14do_memory_core10embeddings7storageINtB5_16EmbeddingStoragepE3newB9_
FN:336,_RNvXININtNtCs46cA19QElOV_14do_memory_core10embeddings7storages3_0pEINtB5_16EmbeddingStoragepENtB5_23EmbeddingStorageBackend21find_similar_episodesB9_
FN:357,_RNvXININtNtCs46cA19QElOV_14do_memory_core10embeddings7storages3_0pEINtB5_16EmbeddingStoragepENtB5_23EmbeddingStorageBackend21find_similar_patternsB9_
FN:313,_RNvXININtNtCs46cA19QElOV_14do_memory_core10embeddings7storages3_0pEINtB5_16EmbeddingStoragepENtB5_23EmbeddingStorageBackend21get_episode_embeddingB9_
FN:322,_RNvXININtNtCs46cA19QElOV_14do_memory_core10embeddings7storages3_0pEINtB5_16EmbeddingStoragepENtB5_23EmbeddingStorageBackend21get_pattern_embeddingB9_
FN:279,_RNvXININtNtCs46cA19QElOV_14do_memory_core10embeddings7storages3_0pEINtB5_16EmbeddingStoragepENtB5_23EmbeddingStorageBackend23store_episode_embeddingB9_
FN:298,_RNvXININtNtCs46cA19QElOV_14do_memory_core10embeddings7storages3_0pEINtB5_16EmbeddingStoragepENtB5_23EmbeddingStorageBackend23store_pattern_embeddingB9_
FN:134,_RNvXs1_NtNtCs46cA19QElOV_14do_memory_core10embeddings7storageNtB5_24InMemoryEmbeddingStorageNtB5_23EmbeddingStorageBackend21find_similar_episodes
FN:176,_RNvXs1_NtNtCs46cA19QElOV_14do_memory_core10embeddings7storageNtB5_24InMemoryEmbeddingStorageNtB5_23EmbeddingStorageBackend21find_similar_patterns
FN:119,_RNvXs1_NtNtCs46cA19QElOV_14do_memory_core10embeddings7storageNtB5_24InMemoryEmbeddingStorageNtB5_23EmbeddingStorageBackend21get_episode_embedding
FN:124,_RNvXs1_NtNtCs46cA19QElOV_14do_memory_core10embeddings7storageNtB5_24InMemoryEmbeddingStorageNtB5_23EmbeddingStorageBackend21get_pattern_embedding
FN:103,_RNvXs1_NtNtCs46cA19QElOV_14do_memory_core10embeddings7storageNtB5_24InMemoryEmbeddingStorageNtB5_23EmbeddingStorageBackend23store_episode_embedding
FN:113,_RNvXs1_NtNtCs46cA19QElOV_14do_memory_core10embeddings7storageNtB5_24InMemoryEmbeddingStorageNtB5_23EmbeddingStorageBackend23store_pattern_embedding
FN:96,_RNvXs_NtNtCs46cA19QElOV_14do_memory_core10embeddings7storageNtB4_24InMemoryEmbeddingStorageNtNtCs4kUJL3MZFFz_4core7default7Default7default
FN:246,_RNvXs2_NtNtCs46cA19QElOV_14do_memory_core10embeddings7storageNtB5_20MockEmbeddingStorageNtB5_23EmbeddingStorageBackend21find_similar_episodes
FN:255,_RNvXs2_NtNtCs46cA19QElOV_14do_memory_core10embeddings7storageNtB5_20MockEmbeddingStorageNtB5_23EmbeddingStorageBackend21find_similar_patterns
FN:233,_RNvXs2_NtNtCs46cA19QElOV_14do_memory_core10embeddings7storageNtB5_20MockEmbeddingStorageNtB5_23EmbeddingStorageBackend21get_episode_embedding
FN:237,_RNvXs2_NtNtCs46cA19QElOV_14do_memory_core10embeddings7storageNtB5_20MockEmbeddingStorageNtB5_23EmbeddingStorageBackend21get_pattern_embedding
FN:221,_RNvXs2_NtNtCs46cA19QElOV_14do_memory_core10embeddings7storageNtB5_20MockEmbeddingStorageNtB5_23EmbeddingStorageBackend23store_episode_embedding
FN:229,_RNvXs2_NtNtCs46cA19QElOV_14do_memory_core10embeddings7storageNtB5_20MockEmbeddingStorageNtB5_23EmbeddingStorageBackend23store_pattern_embedding
FN:77,_RNCNvMNtNtCsl8fXSKtwgoJ_14do_memory_core10embeddings7storageNtB4_24InMemoryEmbeddingStorage11add_episode0CsgrBw30QCVrl_26embedding_integration_test
FN:83,_RNCNvMNtNtCsl8fXSKtwgoJ_14do_memory_core10embeddings7storageNtB4_24InMemoryEmbeddingStorage11add_pattern0CsgrBw30QCVrl_26embedding_integration_test
FNDA:0,_RNCNvMNtNtCsl8fXSKtwgoJ_14do_memory_core10embeddings7storageNtB4_24InMemoryEmbeddingStorage11add_episode0B8_
FNDA:0,_RNCNvMNtNtCsl8fXSKtwgoJ_14do_memory_core10embeddings7storageNtB4_24InMemoryEmbeddingStorage11add_pattern0B8_
FNDA:0,_RNvMs0_NtNtCsl8fXSKtwgoJ_14do_memory_core10embeddings7storageINtB5_16EmbeddingStoragepE3newB9_
FNDA:0,_RNvXININtNtCsl8fXSKtwgoJ_14do_memory_core10embeddings7storages2_0pEINtB5_16EmbeddingStoragepENtB5_23EmbeddingStorageBackend21find_similar_episodesB9_
FNDA:0,_RNvXININtNtCsl8fXSKtwgoJ_14do_memory_core10embeddings7storages2_0pEINtB5_16EmbeddingStoragepENtB5_23EmbeddingStorageBackend21find_similar_patternsB9_
FNDA:0,_RNvXININtNtCsl8fXSKtwgoJ_14do_memory_core10embeddings7storages2_0pEINtB5_16EmbeddingStoragepENtB5_23EmbeddingStorageBackend21get_episode_embeddingB9_
FNDA:0,_RNvXININtNtCsl8fXSKtwgoJ_14do_memory_core10embeddings7storages2_0pEINtB5_16EmbeddingStoragepENtB5_23EmbeddingStorageBackend21get_pattern_embeddingB9_
FNDA:0,_RNvXININtNtCsl8fXSKtwgoJ_14do_memory_core10embeddings7storages2_0pEINtB5_16EmbeddingStoragepENtB5_23EmbeddingStorageBackend23store_episode_embeddingB9_
FNDA:0,_RNvXININtNtCsl8fXSKtwgoJ_14do_memory_core10embeddings7storages2_0pEINtB5_16EmbeddingStoragepENtB5_23EmbeddingStorageBackend23store_pattern_embeddingB9_
FNDA:1,_RNvMNtNtCsl8fXSKtwgoJ_14do_memory_core10embeddings7storageNtB2_24InMemoryEmbeddingStorage11add_episode
FNDA:1,_RNvMNtNtCsl8fXSKtwgoJ_14do_memory_core10embeddings7storageNtB2_24InMemoryEmbeddingStorage11add_pattern
FNDA:27,_RNvMNtNtCsl8fXSKtwgoJ_14do_memory_core10embeddings7storageNtB2_24InMemoryEmbeddingStorage3new
FNDA:2,_RNvXs1_NtNtCsl8fXSKtwgoJ_14do_memory_core10embeddings7storageNtB5_24InMemoryEmbeddingStorageNtB5_23EmbeddingStorageBackend21find_similar_episodes
FNDA:0,_RNvXs1_NtNtCsl8fXSKtwgoJ_14do_memory_core10embeddings7storageNtB5_24InMemoryEmbeddingStorageNtB5_23EmbeddingStorageBackend21find_similar_patterns
FNDA:33,_RNvXs1_NtNtCsl8fXSKtwgoJ_14do_memory_core10embeddings7storageNtB5_24InMemoryEmbeddingStorageNtB5_23EmbeddingStorageBackend21get_episode_embedding
FNDA:1,_RNvXs1_NtNtCsl8fXSKtwgoJ_14do_memory_core10embeddings7storageNtB5_24InMemoryEmbeddingStorageNtB5_23EmbeddingStorageBackend21get_pattern_embedding
FNDA:34,_RNvXs1_NtNtCsl8fXSKtwgoJ_14do_memory_core10embeddings7storageNtB5_24InMemoryEmbeddingStorageNtB5_23EmbeddingStorageBackend23store_episode_embedding
FNDA:2,_RNvXs1_NtNtCsl8fXSKtwgoJ_14do_memory_core10embeddings7storageNtB5_24InMemoryEmbeddingStorageNtB5_23EmbeddingStorageBackend23store_pattern_embedding
FNDA:0,_RNvXs_NtNtCsl8fXSKtwgoJ_14do_memory_core10embeddings7storageNtB4_24InMemoryEmbeddingStorageNtNtCs4kUJL3MZFFz_4core7default7Default7default
FNDA:0,_RNCNCNvXs1_NtNtCsl8fXSKtwgoJ_14do_memory_core10embeddings7storageNtB9_24InMemoryEmbeddingStorageNtB9_23EmbeddingStorageBackend21find_similar_episodes00Bd_
FNDA:0,_RNCNCNvXs1_NtNtCsl8fXSKtwgoJ_14do_memory_core10embeddings7storageNtB9_24InMemoryEmbeddingStorageNtB9_23EmbeddingStorageBackend21find_similar_patterns00Bd_
FNDA:0,_RNCNCNvXs1_NtNtCs46cA19QElOV_14do_memory_core10embeddings7storageNtB9_24InMemoryEmbeddingStorageNtB9_23EmbeddingStorageBackend21find_similar_episodes00Bd_
FNDA:0,_RNCNCNvXs1_NtNtCs46cA19QElOV_14do_memory_core10embeddings7storageNtB9_24InMemoryEmbeddingStorageNtB9_23EmbeddingStorageBackend21find_similar_patterns00Bd_
FNDA:0,_RNCNvMNtNtCs46cA19QElOV_14do_memory_core10embeddings7storageNtB4_24InMemoryEmbeddingStorage11add_episode0B8_
FNDA:0,_RNCNvMNtNtCs46cA19QElOV_14do_memory_core10embeddings7storageNtB4_24InMemoryEmbeddingStorage11add_pattern0B8_
FNDA:0,_RNvMNtNtCs46cA19QElOV_14do_memory_core10embeddings7storageNtB2_24InMemoryEmbeddingStorage11add_episode
FNDA:0,_RNvMNtNtCs46cA19QElOV_14do_memory_core10embeddings7storageNtB2_24InMemoryEmbeddingStorage11add_pattern
FNDA:0,_RNvMNtNtCs46cA19QElOV_14do_memory_core10embeddings7storageNtB2_24InMemoryEmbeddingStorage3new
FNDA:0,_RNvMs0_NtNtCs46cA19QElOV_14do_memory_core10embeddings7storageINtB5_16EmbeddingStoragepE3newB9_
FNDA:0,_RNvXININtNtCs46cA19QElOV_14do_memory_core10embeddings7storages3_0pEINtB5_16EmbeddingStoragepENtB5_23EmbeddingStorageBackend21find_similar_episodesB9_
FNDA:0,_RNvXININtNtCs46cA19QElOV_14do_memory_core10embeddings7storages3_0pEINtB5_16EmbeddingStoragepENtB5_23EmbeddingStorageBackend21find_similar_patternsB9_
FNDA:0,_RNvXININtNtCs46cA19QElOV_14do_memory_core10embeddings7storages3_0pEINtB5_16EmbeddingStoragepENtB5_23EmbeddingStorageBackend21get_episode_embeddingB9_
FNDA:0,_RNvXININtNtCs46cA19QElOV_14do_memory_core10embeddings7storages3_0pEINtB5_16EmbeddingStoragepENtB5_23EmbeddingStorageBackend21get_pattern_embeddingB9_
FNDA:0,_RNvXININtNtCs46cA19QElOV_14do_memory_core10embeddings7storages3_0pEINtB5_16EmbeddingStoragepENtB5_23EmbeddingStorageBackend23store_episode_embeddingB9_
FNDA:0,_RNvXININtNtCs46cA19QElOV_14do_memory_core10embeddings7storages3_0pEINtB5_16EmbeddingStoragepENtB5_23EmbeddingStorageBackend23store_pattern_embeddingB9_
FNDA:0,_RNvXs1_NtNtCs46cA19QElOV_14do_memory_core10embeddings7storageNtB5_24InMemoryEmbeddingStorageNtB5_23EmbeddingStorageBackend21find_similar_episodes
FNDA:0,_RNvXs1_NtNtCs46cA19QElOV_14do_memory_core10embeddings7storageNtB5_24InMemoryEmbeddingStorageNtB5_23EmbeddingStorageBackend21find_similar_patterns
FNDA:0,_RNvXs1_NtNtCs46cA19QElOV_14do_memory_core10embeddings7storageNtB5_24InMemoryEmbeddingStorageNtB5_23EmbeddingStorageBackend21get_episode_embedding
FNDA:0,_RNvXs1_NtNtCs46cA19QElOV_14do_memory_core10embeddings7storageNtB5_24InMemoryEmbeddingStorageNtB5_23EmbeddingStorageBackend21get_pattern_embedding
FNDA:0,_RNvXs1_NtNtCs46cA19QElOV_14do_memory_core10embeddings7storageNtB5_24InMemoryEmbeddingStorageNtB5_23EmbeddingStorageBackend23store_episode_embedding
FNDA:0,_RNvXs1_NtNtCs46cA19QElOV_14do_memory_core10embeddings7storageNtB5_24InMemoryEmbeddingStorageNtB5_23EmbeddingStorageBackend23store_pattern_embedding
FNDA:0,_RNvXs_NtNtCs46cA19QElOV_14do_memory_core10embeddings7storageNtB4_24InMemoryEmbeddingStorageNtNtCs4kUJL3MZFFz_4core7default7Default7default
FNDA:1,_RNvXs2_NtNtCs46cA19QElOV_14do_memory_core10embeddings7storageNtB5_20MockEmbeddingStorageNtB5_23EmbeddingStorageBackend21find_similar_episodes
FNDA:1,_RNvXs2_NtNtCs46cA19QElOV_14do_memory_core10embeddings7storageNtB5_20MockEmbeddingStorageNtB5_23EmbeddingStorageBackend21find_similar_patterns
FNDA:0,_RNvXs2_NtNtCs46cA19QElOV_14do_memory_core10embeddings7storageNtB5_20MockEmbeddingStorageNtB5_23EmbeddingStorageBackend21get_episode_embedding
FNDA:0,_RNvXs2_NtNtCs46cA19QElOV_14do_memory_core10embeddings7storageNtB5_20MockEmbeddingStorageNtB5_23EmbeddingStorageBackend21get_pattern_embedding
FNDA:1,_RNvXs2_NtNtCs46cA19QElOV_14do_memory_core10embeddings7storageNtB5_20MockEmbeddingStorageNtB5_23EmbeddingStorageBackend23store_episode_embedding
FNDA:1,_RNvXs2_NtNtCs46cA19QElOV_14do_memory_core10embeddings7storageNtB5_20MockEmbeddingStorageNtB5_23EmbeddingStorageBackend23store_pattern_embedding
FNDA:1,_RNCNvMNtNtCsl8fXSKtwgoJ_14do_memory_core10embeddings7storageNtB4_24InMemoryEmbeddingStorage11add_episode0CsgrBw30QCVrl_26embedding_integration_test
FNDA:1,_RNCNvMNtNtCsl8fXSKtwgoJ_14do_memory_core10embeddings7storageNtB4_24InMemoryEmbeddingStorage11add_pattern0CsgrBw30QCVrl_26embedding_integration_test
FNF:27
FNH:14
DA:59,27
DA:60,27
DA:61,27
DA:62,27
DA:63,27
DA:64,27
DA:65,27
DA:66,27
DA:67,27
DA:68,27
DA:69,27
DA:70,27
DA:71,27
DA:72,27
DA:73,27
DA:74,27
DA:77,1
DA:78,1
DA:79,1
DA:80,1
DA:83,1
DA:84,1
DA:85,1
DA:86,1
DA:87,0
DA:88,0
DA:89,0
DA:91,1
DA:92,1
DA:96,0
DA:97,0
DA:98,0
DA:103,34
DA:107,34
DA:113,2
DA:117,2
DA:119,33
DA:122,33
DA:124,1
DA:127,1
DA:134,2
DA:159,0
DA:160,0
DA:161,0
DA:162,0
DA:163,0
DA:169,2
DA:176,0
DA:201,0
DA:202,0
DA:203,0
DA:204,0
DA:205,0
DA:211,0
DA:221,1
DA:223,1
DA:229,1
DA:231,1
DA:233,0
DA:235,0
DA:237,0
DA:239,0
DA:246,1
DA:248,1
DA:255,1
DA:257,1
DA:267,0
DA:268,0
DA:269,0
DA:270,0
DA:271,0
DA:272,0
DA:279,0
DA:292,0
DA:298,0
DA:311,0
DA:313,0
DA:320,0
DA:322,0
DA:329,0
DA:336,0
DA:350,0
DA:357,0
DA:371,0
BRF:0
BRH:0
LF:86
LH:46
end_of_record
SF:/app/memory-core/src/embeddings/utils.rs
FN:23,_RNvNtNtCsl8fXSKtwgoJ_14do_memory_core10embeddings5utils21get_recommended_model
FN:10,_RNvNtNtCsl8fXSKtwgoJ_14do_memory_core10embeddings5utils21list_available_models
FN:23,_RNvNtNtCs46cA19QElOV_14do_memory_core10embeddings5utils21get_recommended_model
FN:10,_RNvNtNtCs46cA19QElOV_14do_memory_core10embeddings5utils21list_available_models
FNDA:0,_RNvNtNtCsl8fXSKtwgoJ_14do_memory_core10embeddings5utils21get_recommended_model
FNDA:0,_RNvNtNtCsl8fXSKtwgoJ_14do_memory_core10embeddings5utils21list_available_models
FNDA:3,_RNvNtNtCs46cA19QElOV_14do_memory_core10embeddings5utils21get_recommended_model
FNDA:1,_RNvNtNtCs46cA19QElOV_14do_memory_core10embeddings5utils21list_available_models
FNF:2
FNH:2
DA:10,1
DA:11,1
DA:12,1
DA:13,1
DA:14,1
DA:19,1
DA:23,3
DA:24,3
DA:25,1
DA:27,1
DA:29,1
DA:34,3
BRF:0
BRH:0
LF:12
LH:12
end_of_record
SF:/app/memory-core/src/embeddings_simple.rs
FN:48,_RNCNvNtCsl8fXSKtwgoJ_14do_memory_core17embeddings_simple17cosine_similarity0B5_
FN:50,_RNCNvNtCsl8fXSKtwgoJ_14do_memory_core17embeddings_simple17cosine_similaritys0_0B5_
FN:49,_RNCNvNtCsl8fXSKtwgoJ_14do_memory_core17embeddings_simple17cosine_similaritys_0B5_
FN:109,_RNCNvNtCsl8fXSKtwgoJ_14do_memory_core17embeddings_simple17text_to_embedding0B5_
FN:179,_RNCNvNtCsl8fXSKtwgoJ_14do_memory_core17embeddings_simple18find_similar_texts0B5_
FN:188,_RNCNvNtCsl8fXSKtwgoJ_14do_memory_core17embeddings_simple18find_similar_textss0_0B5_
FN:184,_RNCNvNtCsl8fXSKtwgoJ_14do_memory_core17embeddings_simple18find_similar_textss_0B5_
FN:43,_RNvNtCsl8fXSKtwgoJ_14do_memory_core17embeddings_simple17cosine_similarity
FN:81,_RNvNtCsl8fXSKtwgoJ_14do_memory_core17embeddings_simple17text_to_embedding
FN:164,_RNvNtCsl8fXSKtwgoJ_14do_memory_core17embeddings_simple18find_similar_texts
FN:203,_RNvNtCsl8fXSKtwgoJ_14do_memory_core17embeddings_simple27demonstrate_semantic_search
FN:32,_RNvXNtCsl8fXSKtwgoJ_14do_memory_core17embeddings_simpleNtB2_15EmbeddingConfigNtNtCs4kUJL3MZFFz_4core7default7Default7default
FN:48,_RNCNvNtCs46cA19QElOV_14do_memory_core17embeddings_simple17cosine_similarity0B5_
FN:50,_RNCNvNtCs46cA19QElOV_14do_memory_core17embeddings_simple17cosine_similaritys0_0B5_
FN:49,_RNCNvNtCs46cA19QElOV_14do_memory_core17embeddings_simple17cosine_similaritys_0B5_
FN:109,_RNCNvNtCs46cA19QElOV_14do_memory_core17embeddings_simple17text_to_embedding0B5_
FN:179,_RNCNvNtCs46cA19QElOV_14do_memory_core17embeddings_simple18find_similar_texts0B5_
FN:188,_RNCNvNtCs46cA19QElOV_14do_memory_core17embeddings_simple18find_similar_textss0_0B5_
FN:184,_RNCNvNtCs46cA19QElOV_14do_memory_core17embeddings_simple18find_similar_textss_0B5_
FN:146,_RNCNvNtCs46cA19QElOV_14do_memory_core17embeddings_simple22text_to_embedding_test0B5_
FN:125,_RNvNtCs46cA19QElOV_14do_memory_core17embeddings_simple22text_to_embedding_test
FN:203,_RNvNtCs46cA19QElOV_14do_memory_core17embeddings_simple27demonstrate_semantic_search
FN:43,_RNvNtCs46cA19QElOV_14do_memory_core17embeddings_simple17cosine_similarity
FN:81,_RNvNtCs46cA19QElOV_14do_memory_core17embeddings_simple17text_to_embedding
FN:164,_RNvNtCs46cA19QElOV_14do_memory_core17embeddings_simple18find_similar_texts
FN:32,_RNvXNtCs46cA19QElOV_14do_memory_core17embeddings_simpleNtB2_15EmbeddingConfigNtNtCs4kUJL3MZFFz_4core7default7Default7default
FN:328,_RNvNtNtCs46cA19QElOV_14do_memory_core17embeddings_simple5testss_21test_embedding_config
FN:276,_RNvNtNtCs46cA19QElOV_14do_memory_core17embeddings_simple5testss_22test_cosine_similarity
FN:291,_RNvNtNtCs46cA19QElOV_14do_memory_core17embeddings_simple5testss_22test_text_to_embedding
FN:308,_RNvNtNtCs46cA19QElOV_14do_memory_core17embeddings_simple5testss_23test_find_similar_texts
FN:303,_RNCNvNtNtCs46cA19QElOV_14do_memory_core17embeddings_simple5testss_22test_text_to_embedding0B7_
FNDA:0,_RNCNvNtCsl8fXSKtwgoJ_14do_memory_core17embeddings_simple17cosine_similarity0B5_
FNDA:0,_RNCNvNtCsl8fXSKtwgoJ_14do_memory_core17embeddings_simple17cosine_similaritys0_0B5_
FNDA:0,_RNCNvNtCsl8fXSKtwgoJ_14do_memory_core17embeddings_simple17cosine_similaritys_0B5_
FNDA:0,_RNCNvNtCsl8fXSKtwgoJ_14do_memory_core17embeddings_simple17text_to_embedding0B5_
FNDA:0,_RNCNvNtCsl8fXSKtwgoJ_14do_memory_core17embeddings_simple18find_similar_texts0B5_
FNDA:0,_RNCNvNtCsl8fXSKtwgoJ_14do_memory_core17embeddings_simple18find_similar_textss0_0B5_
FNDA:0,_RNCNvNtCsl8fXSKtwgoJ_14do_memory_core17embeddings_simple18find_similar_textss_0B5_
FNDA:0,_RNvNtCsl8fXSKtwgoJ_14do_memory_core17embeddings_simple17cosine_similarity
FNDA:0,_RNvNtCsl8fXSKtwgoJ_14do_memory_core17embeddings_simple17text_to_embedding
FNDA:0,_RNvNtCsl8fXSKtwgoJ_14do_memory_core17embeddings_simple18find_similar_texts
FNDA:0,_RNvNtCsl8fXSKtwgoJ_14do_memory_core17embeddings_simple27demonstrate_semantic_search
FNDA:0,_RNvXNtCsl8fXSKtwgoJ_14do_memory_core17embeddings_simpleNtB2_15EmbeddingConfigNtNtCs4kUJL3MZFFz_4core7default7Default7default
FNDA:1541,_RNCNvNtCs46cA19QElOV_14do_memory_core17embeddings_simple17cosine_similarity0B5_
FNDA:1541,_RNCNvNtCs46cA19QElOV_14do_memory_core17embeddings_simple17cosine_similaritys0_0B5_
FNDA:1541,_RNCNvNtCs46cA19QElOV_14do_memory_core17embeddings_simple17cosine_similaritys_0B5_
FNDA:3072,_RNCNvNtCs46cA19QElOV_14do_memory_core17embeddings_simple17text_to_embedding0B5_
FNDA:4,_RNCNvNtCs46cA19QElOV_14do_memory_core17embeddings_simple18find_similar_texts0B5_
FNDA:5,_RNCNvNtCs46cA19QElOV_14do_memory_core17embeddings_simple18find_similar_textss0_0B5_
FNDA:4,_RNCNvNtCs46cA19QElOV_14do_memory_core17embeddings_simple18find_similar_textss_0B5_
FNDA:0,_RNCNvNtCs46cA19QElOV_14do_memory_core17embeddings_simple22text_to_embedding_test0B5_
FNDA:0,_RNvNtCs46cA19QElOV_14do_memory_core17embeddings_simple22text_to_embedding_test
FNDA:0,_RNvNtCs46cA19QElOV_14do_memory_core17embeddings_simple27demonstrate_semantic_search
FNDA:6,_RNvNtCs46cA19QElOV_14do_memory_core17embeddings_simple17cosine_similarity
FNDA:8,_RNvNtCs46cA19QElOV_14do_memory_core17embeddings_simple17text_to_embedding
FNDA:1,_RNvNtCs46cA19QElOV_14do_memory_core17embeddings_simple18find_similar_texts
FNDA:1,_RNvXNtCs46cA19QElOV_14do_memory_core17embeddings_simpleNtB2_15EmbeddingConfigNtNtCs4kUJL3MZFFz_4core7default7Default7default
FNDA:1,_RNvNtNtCs46cA19QElOV_14do_memory_core17embeddings_simple5testss_21test_embedding_config
FNDA:1,_RNvNtNtCs46cA19QElOV_14do_memory_core17embeddings_simple5testss_22test_cosine_similarity
FNDA:1,_RNvNtNtCs46cA19QElOV_14do_memory_core17embeddings_simple5testss_22test_text_to_embedding
FNDA:1,_RNvNtNtCs46cA19QElOV_14do_memory_core17embeddings_simple5testss_23test_find_similar_texts
FNDA:384,_RNCNvNtNtCs46cA19QElOV_14do_memory_core17embeddings_simple5testss_22test_text_to_embedding0B7_
FNF:19
FNH:16
DA:32,1
DA:33,1
DA:34,1
DA:35,1
DA:36,1
DA:37,1
DA:38,1
DA:43,6
DA:44,6
DA:45,0
DA:46,6
DA:48,1541
DA:49,1541
DA:50,1541
DA:52,6
DA:53,0
DA:54,6
DA:57,6
DA:58,6
DA:59,6
DA:81,8
DA:86,8
DA:89,0
DA:93,8
DA:94,8
DA:95,8
DA:97,8
DA:98,8
DA:99,8
DA:101,3072
DA:102,3072
DA:103,3072
DA:104,3072
DA:105,3072
DA:106,3072
DA:109,3072
DA:110,8
DA:111,3072
DA:112,3072
DA:113,3072
DA:114,0
DA:116,8
DA:117,8
DA:125,0
DA:130,0
DA:131,0
DA:132,0
DA:134,0
DA:135,0
DA:136,0
DA:138,0
DA:139,0
DA:140,0
DA:141,0
DA:142,0
DA:143,0
DA:146,0
DA:147,0
DA:148,0
DA:149,0
DA:150,0
DA:151,0
DA:153,0
DA:154,0
DA:164,1
DA:165,1
DA:166,1
DA:167,1
DA:168,1
DA:169,1
DA:170,1
DA:174,1
DA:176,1
DA:177,1
DA:178,1
DA:179,4
DA:180,4
DA:181,4
DA:182,4
DA:183,4
DA:184,4
DA:185,1
DA:188,5
DA:191,1
DA:192,1
DA:203,0
DA:204,0
DA:205,0
DA:206,0
DA:207,0
DA:208,0
DA:209,0
DA:212,0
DA:213,0
DA:214,0
DA:215,0
DA:216,0
DA:217,0
DA:218,0
DA:219,0
DA:220,0
DA:221,0
DA:222,0
DA:226,0
DA:228,0
DA:229,0
DA:230,0
DA:233,0
DA:234,0
DA:235,0
DA:237,0
DA:238,0
DA:239,0
DA:241,0
DA:250,0
DA:251,0
DA:252,0
DA:253,0
DA:254,0
DA:255,0
DA:258,0
DA:259,0
DA:260,0
DA:261,0
DA:262,0
DA:265,0
DA:266,0
DA:268,0
DA:269,0
DA:276,1
DA:278,1
DA:279,1
DA:280,1
DA:281,1
DA:284,1
DA:285,1
DA:286,1
DA:287,1
DA:288,1
DA:291,1
DA:292,1
DA:293,1
DA:294,1
DA:297,1
DA:300,1
DA:303,384
DA:304,1
DA:305,1
DA:308,1
DA:309,1
DA:310,1
DA:311,1
DA:312,1
DA:313,1
DA:316,1
DA:319,1
DA:322,1
DA:323,1
DA:324,0
DA:325,1
DA:328,1
DA:329,1
DA:330,1
DA:331,1
DA:332,1
DA:333,1
BRF:0
BRH:0
LF:175
LH:104
end_of_record
SF:/app/memory-core/src/episode/graph_algorithms/mod.rs
FN:343,_RINvNtNtCsl8fXSKtwgoJ_14do_memory_core7episode16graph_algorithms13get_ancestorspEB6_
FN:294,_RINvNtNtCsl8fXSKtwgoJ_14do_memory_core7episode16graph_algorithms22get_transitive_closurepEB6_
FN:401,_RINvNtNtCsl8fXSKtwgoJ_14do_memory_core7episode16graph_algorithms25find_all_cycles_from_nodepEB6_
FN:52,_RINvNtNtCsl8fXSKtwgoJ_14do_memory_core7episode16graph_algorithms12has_path_dfsNtNtNtCsaa59N1qzrfe_3std4hash6random11RandomStateEB6_
FN:100,_RINvNtNtCsl8fXSKtwgoJ_14do_memory_core7episode16graph_algorithms13find_path_dfsNtNtNtCsaa59N1qzrfe_3std4hash6random11RandomStateEB6_
FN:224,_RINvNtNtCsl8fXSKtwgoJ_14do_memory_core7episode16graph_algorithms16topological_sortNtNtNtCsaa59N1qzrfe_3std4hash6random11RandomStateEB6_
FN:159,_RINvNtNtCsl8fXSKtwgoJ_14do_memory_core7episode16graph_algorithms9has_cycleNtNtNtCsaa59N1qzrfe_3std4hash6random11RandomStateEB6_
FN:52,_RINvNtNtCs46cA19QElOV_14do_memory_core7episode16graph_algorithms12has_path_dfsNtNtNtCsaa59N1qzrfe_3std4hash6random11RandomStateEB6_
FN:100,_RINvNtNtCs46cA19QElOV_14do_memory_core7episode16graph_algorithms13find_path_dfsNtNtNtCsaa59N1qzrfe_3std4hash6random11RandomStateEB6_
FN:343,_RINvNtNtCs46cA19QElOV_14do_memory_core7episode16graph_algorithms13get_ancestorsNtNtNtCsaa59N1qzrfe_3std4hash6random11RandomStateEB6_
FN:224,_RINvNtNtCs46cA19QElOV_14do_memory_core7episode16graph_algorithms16topological_sortNtNtNtCsaa59N1qzrfe_3std4hash6random11RandomStateEB6_
FN:294,_RINvNtNtCs46cA19QElOV_14do_memory_core7episode16graph_algorithms22get_transitive_closureNtNtNtCsaa59N1qzrfe_3std4hash6random11RandomStateEB6_
FN:401,_RINvNtNtCs46cA19QElOV_14do_memory_core7episode16graph_algorithms25find_all_cycles_from_nodeNtNtNtCsaa59N1qzrfe_3std4hash6random11RandomStateEB6_
FN:159,_RINvNtNtCs46cA19QElOV_14do_memory_core7episode16graph_algorithms9has_cycleNtNtNtCsaa59N1qzrfe_3std4hash6random11RandomStateEB6_
FNDA:0,_RINvNtNtCsl8fXSKtwgoJ_14do_memory_core7episode16graph_algorithms13get_ancestorspEB6_
FNDA:0,_RINvNtNtCsl8fXSKtwgoJ_14do_memory_core7episode16graph_algorithms22get_transitive_closurepEB6_
FNDA:0,_RINvNtNtCsl8fXSKtwgoJ_14do_memory_core7episode16graph_algorithms25find_all_cycles_from_nodepEB6_
FNDA:8516,_RINvNtNtCsl8fXSKtwgoJ_14do_memory_core7episode16graph_algorithms12has_path_dfsNtNtNtCsaa59N1qzrfe_3std4hash6random11RandomStateEB6_
FNDA:768,_RINvNtNtCsl8fXSKtwgoJ_14do_memory_core7episode16graph_algorithms13find_path_dfsNtNtNtCsaa59N1qzrfe_3std4hash6random11RandomStateEB6_
FNDA:0,_RINvNtNtCsl8fXSKtwgoJ_14do_memory_core7episode16graph_algorithms16topological_sortNtNtNtCsaa59N1qzrfe_3std4hash6random11RandomStateEB6_
FNDA:0,_RINvNtNtCsl8fXSKtwgoJ_14do_memory_core7episode16graph_algorithms9has_cycleNtNtNtCsaa59N1qzrfe_3std4hash6random11RandomStateEB6_
FNDA:61,_RINvNtNtCs46cA19QElOV_14do_memory_core7episode16graph_algorithms12has_path_dfsNtNtNtCsaa59N1qzrfe_3std4hash6random11RandomStateEB6_
FNDA:9,_RINvNtNtCs46cA19QElOV_14do_memory_core7episode16graph_algorithms13find_path_dfsNtNtNtCsaa59N1qzrfe_3std4hash6random11RandomStateEB6_
FNDA:2,_RINvNtNtCs46cA19QElOV_14do_memory_core7episode16graph_algorithms13get_ancestorsNtNtNtCsaa59N1qzrfe_3std4hash6random11RandomStateEB6_
FNDA:6,_RINvNtNtCs46cA19QElOV_14do_memory_core7episode16graph_algorithms16topological_sortNtNtNtCsaa59N1qzrfe_3std4hash6random11RandomStateEB6_
FNDA:3,_RINvNtNtCs46cA19QElOV_14do_memory_core7episode16graph_algorithms22get_transitive_closureNtNtNtCsaa59N1qzrfe_3std4hash6random11RandomStateEB6_
FNDA:2,_RINvNtNtCs46cA19QElOV_14do_memory_core7episode16graph_algorithms25find_all_cycles_from_nodeNtNtNtCsaa59N1qzrfe_3std4hash6random11RandomStateEB6_
FNDA:12,_RINvNtNtCs46cA19QElOV_14do_memory_core7episode16graph_algorithms9has_cycleNtNtNtCsaa59N1qzrfe_3std4hash6random11RandomStateEB6_
FNF:7
FNH:7
DA:52,8577
DA:53,8577
DA:54,8577
DA:55,8577
DA:56,8577
DA:57,8577
DA:58,8577
DA:60,8577
DA:61,8577
DA:62,8577
DA:100,777
DA:101,777
DA:102,777
DA:103,777
DA:104,777
DA:105,777
DA:106,777
DA:108,777
DA:109,777
DA:111,777
DA:112,776
DA:114,1
DA:115,1
DA:116,1
DA:118,777
DA:159,12
DA:160,12
DA:161,12
DA:162,12
DA:163,12
DA:165,12
DA:166,12
DA:168,1513
DA:169,1513
DA:170,25
DA:172,5
DA:173,1508
DA:176,7
DA:177,12
DA:224,6
DA:225,6
DA:226,6
DA:227,6
DA:228,6
DA:231,6
DA:232,2
DA:233,2
DA:234,2
DA:235,4
DA:237,4
DA:238,4
DA:240,8
DA:241,8
DA:242,4
DA:243,4
DA:246,4
DA:247,4
DA:248,6
DA:294,3
DA:295,3
DA:296,3
DA:297,3
DA:298,3
DA:299,3
DA:301,3
DA:302,3
DA:305,3
DA:306,3
DA:307,3
DA:308,3
DA:309,3
DA:311,1
DA:313,8
DA:314,5
DA:315,0
DA:316,5
DA:318,5
DA:320,5
DA:321,2
DA:322,2
DA:323,2
DA:324,2
DA:326,3
DA:329,3
DA:330,3
DA:343,2
DA:344,2
DA:345,2
DA:346,2
DA:347,2
DA:348,2
DA:351,2
DA:353,4
DA:354,4
DA:355,4
DA:356,4
DA:357,4
DA:358,4
DA:359,4
DA:362,2
DA:363,2
DA:365,2
DA:366,3
DA:367,3
DA:368,3
DA:369,0
DA:371,6
DA:372,4
DA:373,0
DA:374,4
DA:376,4
DA:378,4
DA:379,1
DA:380,1
DA:381,1
DA:382,1
DA:384,3
DA:387,2
DA:388,2
DA:401,2
DA:402,2
DA:403,2
DA:404,2
DA:405,2
DA:406,2
DA:408,2
DA:409,2
DA:410,2
DA:412,2
DA:413,2
DA:414,2
DA:415,2
DA:416,2
DA:417,2
DA:418,2
DA:419,0
DA:421,2
DA:422,2
BRF:0
BRH:0
LF:138
LH:134
end_of_record
SF:/app/memory-core/src/episode/graph_algorithms/traversal.rs
FN:133,_RINvNtNtNtCsl8fXSKtwgoJ_14do_memory_core7episode16graph_algorithms9traversal18find_cycles_helperpEB8_
FN:77,_RINvNtNtNtCsl8fXSKtwgoJ_14do_memory_core7episode16graph_algorithms9traversal16has_cycle_helperNtNtNtCsaa59N1qzrfe_3std4hash6random11RandomStateEB8_
FN:10,_RINvNtNtNtCsl8fXSKtwgoJ_14do_memory_core7episode16graph_algorithms9traversal19has_path_dfs_helperNtNtNtCsaa59N1qzrfe_3std4hash6random11RandomStateEB8_
FN:41,_RINvNtNtNtCsl8fXSKtwgoJ_14do_memory_core7episode16graph_algorithms9traversal20find_path_dfs_helperNtNtNtCsaa59N1qzrfe_3std4hash6random11RandomStateEB8_
FN:109,_RINvNtNtNtCsl8fXSKtwgoJ_14do_memory_core7episode16graph_algorithms9traversal23topological_sort_helperNtNtNtCsaa59N1qzrfe_3std4hash6random11RandomStateEB8_
FN:77,_RINvNtNtNtCs46cA19QElOV_14do_memory_core7episode16graph_algorithms9traversal16has_cycle_helperNtNtNtCsaa59N1qzrfe_3std4hash6random11RandomStateEB8_
FN:133,_RINvNtNtNtCs46cA19QElOV_14do_memory_core7episode16graph_algorithms9traversal18find_cycles_helperNtNtNtCsaa59N1qzrfe_3std4hash6random11RandomStateEB8_
FN:10,_RINvNtNtNtCs46cA19QElOV_14do_memory_core7episode16graph_algorithms9traversal19has_path_dfs_helperNtNtNtCsaa59N1qzrfe_3std4hash6random11RandomStateEB8_
FN:41,_RINvNtNtNtCs46cA19QElOV_14do_memory_core7episode16graph_algorithms9traversal20find_path_dfs_helperNtNtNtCsaa59N1qzrfe_3std4hash6random11RandomStateEB8_
FN:109,_RINvNtNtNtCs46cA19QElOV_14do_memory_core7episode16graph_algorithms9traversal23topological_sort_helperNtNtNtCsaa59N1qzrfe_3std4hash6random11RandomStateEB8_
FNDA:0,_RINvNtNtNtCsl8fXSKtwgoJ_14do_memory_core7episode16graph_algorithms9traversal18find_cycles_helperpEB8_
FNDA:0,_RINvNtNtNtCsl8fXSKtwgoJ_14do_memory_core7episode16graph_algorithms9traversal16has_cycle_helperNtNtNtCsaa59N1qzrfe_3std4hash6random11RandomStateEB8_
FNDA:12767,_RINvNtNtNtCsl8fXSKtwgoJ_14do_memory_core7episode16graph_algorithms9traversal19has_path_dfs_helperNtNtNtCsaa59N1qzrfe_3std4hash6random11RandomStateEB8_
FNDA:4915,_RINvNtNtNtCsl8fXSKtwgoJ_14do_memory_core7episode16graph_algorithms9traversal20find_path_dfs_helperNtNtNtCsaa59N1qzrfe_3std4hash6random11RandomStateEB8_
FNDA:0,_RINvNtNtNtCsl8fXSKtwgoJ_14do_memory_core7episode16graph_algorithms9traversal23topological_sort_helperNtNtNtCsaa59N1qzrfe_3std4hash6random11RandomStateEB8_
FNDA:1524,_RINvNtNtNtCs46cA19QElOV_14do_memory_core7episode16graph_algorithms9traversal16has_cycle_helperNtNtNtCsaa59N1qzrfe_3std4hash6random11RandomStateEB8_
FNDA:6,_RINvNtNtNtCs46cA19QElOV_14do_memory_core7episode16graph_algorithms9traversal18find_cycles_helperNtNtNtCsaa59N1qzrfe_3std4hash6random11RandomStateEB8_
FNDA:75,_RINvNtNtNtCs46cA19QElOV_14do_memory_core7episode16graph_algorithms9traversal19has_path_dfs_helperNtNtNtCsaa59N1qzrfe_3std4hash6random11RandomStateEB8_
FNDA:1019,_RINvNtNtNtCs46cA19QElOV_14do_memory_core7episode16graph_algorithms9traversal20find_path_dfs_helperNtNtNtCsaa59N1qzrfe_3std4hash6random11RandomStateEB8_
FNDA:11,_RINvNtNtNtCs46cA19QElOV_14do_memory_core7episode16graph_algorithms9traversal23topological_sort_helperNtNtNtCsaa59N1qzrfe_3std4hash6random11RandomStateEB8_
FNF:5
FNH:5
DA:10,12842
DA:11,12842
DA:12,12842
DA:13,12842
DA:14,12842
DA:15,12842
DA:16,12842
DA:17,12842
DA:19,12842
DA:20,779
DA:21,12063
DA:23,12063
DA:24,0
DA:25,12063
DA:27,12063
DA:29,12063
DA:30,4265
DA:31,4265
DA:32,4161
DA:33,104
DA:35,7798
DA:37,7902
DA:38,12842
DA:41,5934
DA:42,5934
DA:43,5934
DA:44,5934
DA:45,5934
DA:46,5934
DA:47,5934
DA:48,5934
DA:49,5934
DA:51,5934
DA:53,5934
DA:54,776
DA:55,5158
DA:57,5158
DA:58,0
DA:59,0
DA:60,5158
DA:62,5158
DA:64,5158
DA:65,5157
DA:66,5157
DA:67,5155
DA:68,2
DA:70,2
DA:72,3
DA:73,3
DA:74,5934
DA:77,1524
DA:78,1524
DA:79,1524
DA:80,1524
DA:81,1524
DA:82,1524
DA:83,1524
DA:84,1524
DA:86,1524
DA:87,1524
DA:89,1524
DA:90,2018
DA:91,2018
DA:93,2018
DA:94,1499
DA:95,5
DA:96,1494
DA:97,519
DA:99,5
DA:100,514
DA:102,6
DA:104,1514
DA:105,1514
DA:106,1524
DA:109,11
DA:110,11
DA:111,11
DA:112,11
DA:113,11
DA:114,11
DA:115,11
DA:116,11
DA:118,11
DA:120,11
DA:121,10
DA:122,10
DA:123,7
DA:124,3
DA:126,3
DA:128,11
DA:129,11
DA:130,11
DA:133,6
DA:134,6
DA:135,6
DA:136,6
DA:137,6
DA:138,6
DA:139,6
DA:140,6
DA:141,6
DA:142,6
DA:144,6
DA:145,5
DA:146,5
DA:148,5
DA:150,1
DA:151,1
DA:152,4
DA:154,4
DA:155,0
DA:156,4
DA:158,4
DA:159,4
DA:161,4
DA:163,4
DA:165,2
DA:167,6
DA:168,6
BRF:0
BRH:0
LF:119
LH:115
end_of_record
SF:/app/memory-core/src/episode/relationship_errors.rs
FN:52,_RNvXNtNtCsl8fXSKtwgoJ_14do_memory_core7episode19relationship_errorsNtB2_15ValidationErrorNtNtCs4kUJL3MZFFz_4core3fmt7Display3fmt
FN:99,_RNvXs0_NtNtCsl8fXSKtwgoJ_14do_memory_core7episode19relationship_errorsNtB5_12RemovalErrorNtNtCs4kUJL3MZFFz_4core3fmt7Display3fmt
FN:119,_RNvXs2_NtNtCsl8fXSKtwgoJ_14do_memory_core7episode19relationship_errorsNtB5_10GraphErrorNtNtCs4kUJL3MZFFz_4core3fmt7Display3fmt
FN:52,_RNvXNtNtCs46cA19QElOV_14do_memory_core7episode19relationship_errorsNtB2_15ValidationErrorNtNtCs4kUJL3MZFFz_4core3fmt7Display3fmt
FN:99,_RNvXs0_NtNtCs46cA19QElOV_14do_memory_core7episode19relationship_errorsNtB5_12RemovalErrorNtNtCs4kUJL3MZFFz_4core3fmt7Display3fmt
FN:119,_RNvXs2_NtNtCs46cA19QElOV_14do_memory_core7episode19relationship_errorsNtB5_10GraphErrorNtNtCs4kUJL3MZFFz_4core3fmt7Display3fmt
FN:200,_RNvNtNtNtCs46cA19QElOV_14do_memory_core7episode19relationship_errors5testss_24test_graph_error_display
FN:251,_RNvNtNtNtCs46cA19QElOV_14do_memory_core7episode19relationship_errors5testss_25test_error_is_error_trait
FN:235,_RNvNtNtNtCs46cA19QElOV_14do_memory_core7episode19relationship_errors5testss_25test_graph_error_equality
FN:192,_RNvNtNtNtCs46cA19QElOV_14do_memory_core7episode19relationship_errors5testss_26test_removal_error_display
FN:222,_RNvNtNtNtCs46cA19QElOV_14do_memory_core7episode19relationship_errors5testss_27test_removal_error_equality
FN:133,_RNvNtNtNtCs46cA19QElOV_14do_memory_core7episode19relationship_errors5testss_29test_validation_error_display
FN:209,_RNvNtNtNtCs46cA19QElOV_14do_memory_core7episode19relationship_errors5testss_30test_validation_error_equality
FN:156,_RNvNtNtNtCs46cA19QElOV_14do_memory_core7episode19relationship_errors5testss_33test_cycle_detected_error_display
FN:172,_RNvNtNtNtCs46cA19QElOV_14do_memory_core7episode19relationship_errors5testss_35test_invalid_priority_error_display
FN:184,_RNvNtNtNtCs46cA19QElOV_14do_memory_core7episode19relationship_errors5testss_36test_episode_not_found_error_display
FN:141,_RNvNtNtNtCs46cA19QElOV_14do_memory_core7episode19relationship_errors5testss_41test_duplicate_relationship_error_display
FNDA:0,_RNvXNtNtCsl8fXSKtwgoJ_14do_memory_core7episode19relationship_errorsNtB2_15ValidationErrorNtNtCs4kUJL3MZFFz_4core3fmt7Display3fmt
FNDA:0,_RNvXs0_NtNtCsl8fXSKtwgoJ_14do_memory_core7episode19relationship_errorsNtB5_12RemovalErrorNtNtCs4kUJL3MZFFz_4core3fmt7Display3fmt
FNDA:0,_RNvXs2_NtNtCsl8fXSKtwgoJ_14do_memory_core7episode19relationship_errorsNtB5_10GraphErrorNtNtCs4kUJL3MZFFz_4core3fmt7Display3fmt
FNDA:8,_RNvXNtNtCs46cA19QElOV_14do_memory_core7episode19relationship_errorsNtB2_15ValidationErrorNtNtCs4kUJL3MZFFz_4core3fmt7Display3fmt
FNDA:2,_RNvXs0_NtNtCs46cA19QElOV_14do_memory_core7episode19relationship_errorsNtB5_12RemovalErrorNtNtCs4kUJL3MZFFz_4core3fmt7Display3fmt
FNDA:4,_RNvXs2_NtNtCs46cA19QElOV_14do_memory_core7episode19relationship_errorsNtB5_10GraphErrorNtNtCs4kUJL3MZFFz_4core3fmt7Display3fmt
FNDA:1,_RNvNtNtNtCs46cA19QElOV_14do_memory_core7episode19relationship_errors5testss_24test_graph_error_display
FNDA:1,_RNvNtNtNtCs46cA19QElOV_14do_memory_core7episode19relationship_errors5testss_25test_error_is_error_trait
FNDA:1,_RNvNtNtNtCs46cA19QElOV_14do_memory_core7episode19relationship_errors5testss_25test_graph_error_equality
FNDA:1,_RNvNtNtNtCs46cA19QElOV_14do_memory_core7episode19relationship_errors5testss_26test_removal_error_display
FNDA:1,_RNvNtNtNtCs46cA19QElOV_14do_memory_core7episode19relationship_errors5testss_27test_removal_error_equality
FNDA:1,_RNvNtNtNtCs46cA19QElOV_14do_memory_core7episode19relationship_errors5testss_29test_validation_error_display
FNDA:1,_RNvNtNtNtCs46cA19QElOV_14do_memory_core7episode19relationship_errors5testss_30test_validation_error_equality
FNDA:1,_RNvNtNtNtCs46cA19QElOV_14do_memory_core7episode19relationship_errors5testss_33test_cycle_detected_error_display
FNDA:1,_RNvNtNtNtCs46cA19QElOV_14do_memory_core7episode19relationship_errors5testss_35test_invalid_priority_error_display
FNDA:1,_RNvNtNtNtCs46cA19QElOV_14do_memory_core7episode19relationship_errors5testss_36test_episode_not_found_error_display
FNDA:1,_RNvNtNtNtCs46cA19QElOV_14do_memory_core7episode19relationship_errors5testss_41test_duplicate_relationship_error_display
FNF:14
FNH:14
DA:52,8
DA:53,8
DA:54,3
DA:55,3
DA:57,1
DA:58,1
DA:61,1
DA:62,1
DA:63,1
DA:65,1
DA:66,1
DA:71,1
DA:72,1
DA:74,1
DA:75,1
DA:79,2
DA:80,2
DA:83,8
DA:99,2
DA:100,2
DA:101,2
DA:103,2
DA:119,4
DA:120,4
DA:121,4
DA:123,4
DA:133,1
DA:134,1
DA:135,1
DA:136,1
DA:137,1
DA:138,1
DA:141,1
DA:142,1
DA:143,1
DA:144,1
DA:145,1
DA:146,1
DA:147,1
DA:148,1
DA:149,1
DA:150,1
DA:151,1
DA:152,1
DA:153,1
DA:156,1
DA:157,1
DA:158,1
DA:159,1
DA:160,1
DA:161,1
DA:162,1
DA:163,1
DA:164,1
DA:165,1
DA:166,1
DA:167,1
DA:168,1
DA:169,1
DA:172,1
DA:173,1
DA:174,1
DA:175,1
DA:176,1
DA:177,1
DA:178,1
DA:179,1
DA:180,1
DA:181,1
DA:184,1
DA:185,1
DA:186,1
DA:187,1
DA:188,1
DA:189,1
DA:192,1
DA:193,1
DA:194,1
DA:195,1
DA:196,1
DA:197,1
DA:200,1
DA:201,1
DA:202,1
DA:203,1
DA:204,1
DA:205,1
DA:206,1
DA:209,1
DA:210,1
DA:211,1
DA:213,1
DA:214,1
DA:215,1
DA:217,1
DA:218,1
DA:219,1
DA:222,1
DA:223,1
DA:224,1
DA:226,1
DA:227,1
DA:228,1
DA:230,1
DA:231,1
DA:232,1
DA:235,1
DA:236,1
DA:237,1
DA:238,1
DA:239,1
DA:240,1
DA:241,1
DA:242,1
DA:243,1
DA:244,1
DA:246,1
DA:247,1
DA:248,1
DA:251,1
DA:252,1
DA:253,1
DA:254,1
DA:255,1
DA:256,1
BRF:0
BRH:0
LF:125
LH:125
end_of_record
SF:/app/memory-core/src/episode/relationship_manager.rs
FN:295,_RNCNvMs_NtNtCsl8fXSKtwgoJ_14do_memory_core7episode20relationship_managerNtB6_19RelationshipManager11get_by_type0Ba_
FN:304,_RNCNvMs_NtNtCsl8fXSKtwgoJ_14do_memory_core7episode20relationship_managerNtB6_19RelationshipManager11get_by_types_0Ba_
FN:142,_RNCNvMs_NtNtCsl8fXSKtwgoJ_14do_memory_core7episode20relationship_managerNtB6_19RelationshipManager19add_with_validation0Ba_
FN:148,_RNCNvMs_NtNtCsl8fXSKtwgoJ_14do_memory_core7episode20relationship_managerNtB6_19RelationshipManager19add_with_validations_0Ba_
FN:197,_RNCNvMs_NtNtCsl8fXSKtwgoJ_14do_memory_core7episode20relationship_managerNtB6_19RelationshipManager19remove_relationship0Ba_
FN:202,_RNCNvMs_NtNtCsl8fXSKtwgoJ_14do_memory_core7episode20relationship_managerNtB6_19RelationshipManager19remove_relationships_0Ba_
FN:442,_RNCNvMs_NtNtCsl8fXSKtwgoJ_14do_memory_core7episode20relationship_managerNtB6_19RelationshipManager23find_relationship_by_id0Ba_
FN:295,_RNCNvMs_NtNtCs46cA19QElOV_14do_memory_core7episode20relationship_managerNtB6_19RelationshipManager11get_by_type0Ba_
FN:304,_RNCNvMs_NtNtCs46cA19QElOV_14do_memory_core7episode20relationship_managerNtB6_19RelationshipManager11get_by_types_0Ba_
FN:142,_RNCNvMs_NtNtCs46cA19QElOV_14do_memory_core7episode20relationship_managerNtB6_19RelationshipManager19add_with_validation0Ba_
FN:148,_RNCNvMs_NtNtCs46cA19QElOV_14do_memory_core7episode20relationship_managerNtB6_19RelationshipManager19add_with_validations_0Ba_
FN:197,_RNCNvMs_NtNtCs46cA19QElOV_14do_memory_core7episode20relationship_managerNtB6_19RelationshipManager19remove_relationship0Ba_
FN:202,_RNCNvMs_NtNtCs46cA19QElOV_14do_memory_core7episode20relationship_managerNtB6_19RelationshipManager19remove_relationships_0Ba_
FN:442,_RNCNvMs_NtNtCs46cA19QElOV_14do_memory_core7episode20relationship_managerNtB6_19RelationshipManager23find_relationship_by_id0Ba_
FN:284,_RNvMs_NtNtCs46cA19QElOV_14do_memory_core7episode20relationship_managerNtB4_19RelationshipManager11get_by_type
FN:418,_RNvMs_NtNtCs46cA19QElOV_14do_memory_core7episode20relationship_managerNtB4_19RelationshipManager12add_to_graph
FN:264,_RNvMs_NtNtCs46cA19QElOV_14do_memory_core7episode20relationship_managerNtB4_19RelationshipManager12get_incoming
FN:247,_RNvMs_NtNtCs46cA19QElOV_14do_memory_core7episode20relationship_managerNtB4_19RelationshipManager12get_outgoing
FN:385,_RNvMs_NtNtCs46cA19QElOV_14do_memory_core7episode20relationship_managerNtB4_19RelationshipManager13episode_count
FN:343,_RNvMs_NtNtCs46cA19QElOV_14do_memory_core7episode20relationship_managerNtB4_19RelationshipManager15find_cycle_path
FN:406,_RNvMs_NtNtCs46cA19QElOV_14do_memory_core7episode20relationship_managerNtB4_19RelationshipManager17topological_order
FN:76,_RNvMs_NtNtCs46cA19QElOV_14do_memory_core7episode20relationship_managerNtB4_19RelationshipManager18load_relationships
FN:375,_RNvMs_NtNtCs46cA19QElOV_14do_memory_core7episode20relationship_managerNtB4_19RelationshipManager18relationship_count
FN:326,_RNvMs_NtNtCs46cA19QElOV_14do_memory_core7episode20relationship_managerNtB4_19RelationshipManager18would_create_cycle
FN:114,_RNvMs_NtNtCs46cA19QElOV_14do_memory_core7episode20relationship_managerNtB4_19RelationshipManager19add_with_validation
FN:227,_RNvMs_NtNtCs46cA19QElOV_14do_memory_core7episode20relationship_managerNtB4_19RelationshipManager19relationship_exists
FN:187,_RNvMs_NtNtCs46cA19QElOV_14do_memory_core7episode20relationship_managerNtB4_19RelationshipManager19remove_relationship
FN:354,_RNvMs_NtNtCs46cA19QElOV_14do_memory_core7episode20relationship_managerNtB4_19RelationshipManager21get_all_relationships
FN:440,_RNvMs_NtNtCs46cA19QElOV_14do_memory_core7episode20relationship_managerNtB4_19RelationshipManager23find_relationship_by_id
FN:60,_RNvMs_NtNtCs46cA19QElOV_14do_memory_core7episode20relationship_managerNtB4_19RelationshipManager3new
FN:411,_RNvMs_NtNtCs46cA19QElOV_14do_memory_core7episode20relationship_managerNtB4_19RelationshipManager5clear
FN:50,_RNvXNtNtCs46cA19QElOV_14do_memory_core7episode20relationship_managerNtB2_19RelationshipManagerNtNtCs4kUJL3MZFFz_4core7default7Default7default
FN:284,_RNvMs_NtNtCsl8fXSKtwgoJ_14do_memory_core7episode20relationship_managerNtB4_19RelationshipManager11get_by_type
FN:418,_RNvMs_NtNtCsl8fXSKtwgoJ_14do_memory_core7episode20relationship_managerNtB4_19RelationshipManager12add_to_graph
FN:264,_RNvMs_NtNtCsl8fXSKtwgoJ_14do_memory_core7episode20relationship_managerNtB4_19RelationshipManager12get_incoming
FN:247,_RNvMs_NtNtCsl8fXSKtwgoJ_14do_memory_core7episode20relationship_managerNtB4_19RelationshipManager12get_outgoing
FN:385,_RNvMs_NtNtCsl8fXSKtwgoJ_14do_memory_core7episode20relationship_managerNtB4_19RelationshipManager13episode_count
FN:343,_RNvMs_NtNtCsl8fXSKtwgoJ_14do_memory_core7episode20relationship_managerNtB4_19RelationshipManager15find_cycle_path
FN:406,_RNvMs_NtNtCsl8fXSKtwgoJ_14do_memory_core7episode20relationship_managerNtB4_19RelationshipManager17topological_order
FN:76,_RNvMs_NtNtCsl8fXSKtwgoJ_14do_memory_core7episode20relationship_managerNtB4_19RelationshipManager18load_relationships
FN:375,_RNvMs_NtNtCsl8fXSKtwgoJ_14do_memory_core7episode20relationship_managerNtB4_19RelationshipManager18relationship_count
FN:326,_RNvMs_NtNtCsl8fXSKtwgoJ_14do_memory_core7episode20relationship_managerNtB4_19RelationshipManager18would_create_cycle
FN:114,_RNvMs_NtNtCsl8fXSKtwgoJ_14do_memory_core7episode20relationship_managerNtB4_19RelationshipManager19add_with_validation
FN:227,_RNvMs_NtNtCsl8fXSKtwgoJ_14do_memory_core7episode20relationship_managerNtB4_19RelationshipManager19relationship_exists
FN:187,_RNvMs_NtNtCsl8fXSKtwgoJ_14do_memory_core7episode20relationship_managerNtB4_19RelationshipManager19remove_relationship
FN:354,_RNvMs_NtNtCsl8fXSKtwgoJ_14do_memory_core7episode20relationship_managerNtB4_19RelationshipManager21get_all_relationships
FN:440,_RNvMs_NtNtCsl8fXSKtwgoJ_14do_memory_core7episode20relationship_managerNtB4_19RelationshipManager23find_relationship_by_id
FN:60,_RNvMs_NtNtCsl8fXSKtwgoJ_14do_memory_core7episode20relationship_managerNtB4_19RelationshipManager3new
FN:411,_RNvMs_NtNtCsl8fXSKtwgoJ_14do_memory_core7episode20relationship_managerNtB4_19RelationshipManager5clear
FN:50,_RNvXNtNtCsl8fXSKtwgoJ_14do_memory_core7episode20relationship_managerNtB2_19RelationshipManagerNtNtCs4kUJL3MZFFz_4core7default7Default7default
FNDA:256,_RNCNvMs_NtNtCsl8fXSKtwgoJ_14do_memory_core7episode20relationship_managerNtB6_19RelationshipManager11get_by_type0Ba_
FNDA:256,_RNCNvMs_NtNtCsl8fXSKtwgoJ_14do_memory_core7episode20relationship_managerNtB6_19RelationshipManager11get_by_types_0Ba_
FNDA:0,_RNCNvMs_NtNtCsl8fXSKtwgoJ_14do_memory_core7episode20relationship_managerNtB6_19RelationshipManager19add_with_validation0Ba_
FNDA:0,_RNCNvMs_NtNtCsl8fXSKtwgoJ_14do_memory_core7episode20relationship_managerNtB6_19RelationshipManager19add_with_validations_0Ba_
FNDA:768,_RNCNvMs_NtNtCsl8fXSKtwgoJ_14do_memory_core7episode20relationship_managerNtB6_19RelationshipManager19remove_relationship0Ba_
FNDA:768,_RNCNvMs_NtNtCsl8fXSKtwgoJ_14do_memory_core7episode20relationship_managerNtB6_19RelationshipManager19remove_relationships_0Ba_
FNDA:768,_RNCNvMs_NtNtCsl8fXSKtwgoJ_14do_memory_core7episode20relationship_managerNtB6_19RelationshipManager23find_relationship_by_id0Ba_
FNDA:2,_RNCNvMs_NtNtCs46cA19QElOV_14do_memory_core7episode20relationship_managerNtB6_19RelationshipManager11get_by_type0Ba_
FNDA:1,_RNCNvMs_NtNtCs46cA19QElOV_14do_memory_core7episode20relationship_managerNtB6_19RelationshipManager11get_by_types_0Ba_
FNDA:0,_RNCNvMs_NtNtCs46cA19QElOV_14do_memory_core7episode20relationship_managerNtB6_19RelationshipManager19add_with_validation0Ba_
FNDA:0,_RNCNvMs_NtNtCs46cA19QElOV_14do_memory_core7episode20relationship_managerNtB6_19RelationshipManager19add_with_validations_0Ba_
FNDA:1,_RNCNvMs_NtNtCs46cA19QElOV_14do_memory_core7episode20relationship_managerNtB6_19RelationshipManager19remove_relationship0Ba_
FNDA:1,_RNCNvMs_NtNtCs46cA19QElOV_14do_memory_core7episode20relationship_managerNtB6_19RelationshipManager19remove_relationships_0Ba_
FNDA:1,_RNCNvMs_NtNtCs46cA19QElOV_14do_memory_core7episode20relationship_managerNtB6_19RelationshipManager23find_relationship_by_id0Ba_
FNDA:3,_RNvMs_NtNtCs46cA19QElOV_14do_memory_core7episode20relationship_managerNtB4_19RelationshipManager11get_by_type
FNDA:159,_RNvMs_NtNtCs46cA19QElOV_14do_memory_core7episode20relationship_managerNtB4_19RelationshipManager12add_to_graph
FNDA:3,_RNvMs_NtNtCs46cA19QElOV_14do_memory_core7episode20relationship_managerNtB4_19RelationshipManager12get_incoming
FNDA:4,_RNvMs_NtNtCs46cA19QElOV_14do_memory_core7episode20relationship_managerNtB4_19RelationshipManager12get_outgoing
FNDA:7,_RNvMs_NtNtCs46cA19QElOV_14do_memory_core7episode20relationship_managerNtB4_19RelationshipManager13episode_count
FNDA:4,_RNvMs_NtNtCs46cA19QElOV_14do_memory_core7episode20relationship_managerNtB4_19RelationshipManager15find_cycle_path
FNDA:3,_RNvMs_NtNtCs46cA19QElOV_14do_memory_core7episode20relationship_managerNtB4_19RelationshipManager17topological_order
FNDA:2,_RNvMs_NtNtCs46cA19QElOV_14do_memory_core7episode20relationship_managerNtB4_19RelationshipManager18load_relationships
FNDA:20,_RNvMs_NtNtCs46cA19QElOV_14do_memory_core7episode20relationship_managerNtB4_19RelationshipManager18relationship_count
FNDA:51,_RNvMs_NtNtCs46cA19QElOV_14do_memory_core7episode20relationship_managerNtB4_19RelationshipManager18would_create_cycle
FNDA:165,_RNvMs_NtNtCs46cA19QElOV_14do_memory_core7episode20relationship_managerNtB4_19RelationshipManager19add_with_validation
FNDA:167,_RNvMs_NtNtCs46cA19QElOV_14do_memory_core7episode20relationship_managerNtB4_19RelationshipManager19relationship_exists
FNDA:2,_RNvMs_NtNtCs46cA19QElOV_14do_memory_core7episode20relationship_managerNtB4_19RelationshipManager19remove_relationship
FNDA:1,_RNvMs_NtNtCs46cA19QElOV_14do_memory_core7episode20relationship_managerNtB4_19RelationshipManager21get_all_relationships
FNDA:2,_RNvMs_NtNtCs46cA19QElOV_14do_memory_core7episode20relationship_managerNtB4_19RelationshipManager23find_relationship_by_id
FNDA:30,_RNvMs_NtNtCs46cA19QElOV_14do_memory_core7episode20relationship_managerNtB4_19RelationshipManager3new
FNDA:1,_RNvMs_NtNtCs46cA19QElOV_14do_memory_core7episode20relationship_managerNtB4_19RelationshipManager5clear
FNDA:1,_RNvXNtNtCs46cA19QElOV_14do_memory_core7episode20relationship_managerNtB2_19RelationshipManagerNtNtCs4kUJL3MZFFz_4core7default7Default7default
FNDA:256,_RNvMs_NtNtCsl8fXSKtwgoJ_14do_memory_core7episode20relationship_managerNtB4_19RelationshipManager11get_by_type
FNDA:20437,_RNvMs_NtNtCsl8fXSKtwgoJ_14do_memory_core7episode20relationship_managerNtB4_19RelationshipManager12add_to_graph
FNDA:768,_RNvMs_NtNtCsl8fXSKtwgoJ_14do_memory_core7episode20relationship_managerNtB4_19RelationshipManager12get_incoming
FNDA:1024,_RNvMs_NtNtCsl8fXSKtwgoJ_14do_memory_core7episode20relationship_managerNtB4_19RelationshipManager12get_outgoing
FNDA:512,_RNvMs_NtNtCsl8fXSKtwgoJ_14do_memory_core7episode20relationship_managerNtB4_19RelationshipManager13episode_count
FNDA:768,_RNvMs_NtNtCsl8fXSKtwgoJ_14do_memory_core7episode20relationship_managerNtB4_19RelationshipManager15find_cycle_path
FNDA:0,_RNvMs_NtNtCsl8fXSKtwgoJ_14do_memory_core7episode20relationship_managerNtB4_19RelationshipManager17topological_order
FNDA:530,_RNvMs_NtNtCsl8fXSKtwgoJ_14do_memory_core7episode20relationship_managerNtB4_19RelationshipManager18load_relationships
FNDA:1024,_RNvMs_NtNtCsl8fXSKtwgoJ_14do_memory_core7episode20relationship_managerNtB4_19RelationshipManager18relationship_count
FNDA:8516,_RNvMs_NtNtCsl8fXSKtwgoJ_14do_memory_core7episode20relationship_managerNtB4_19RelationshipManager18would_create_cycle
FNDA:20201,_RNvMs_NtNtCsl8fXSKtwgoJ_14do_memory_core7episode20relationship_managerNtB4_19RelationshipManager19add_with_validation
FNDA:21225,_RNvMs_NtNtCsl8fXSKtwgoJ_14do_memory_core7episode20relationship_managerNtB4_19RelationshipManager19relationship_exists
FNDA:1280,_RNvMs_NtNtCsl8fXSKtwgoJ_14do_memory_core7episode20relationship_managerNtB4_19RelationshipManager19remove_relationship
FNDA:0,_RNvMs_NtNtCsl8fXSKtwgoJ_14do_memory_core7episode20relationship_managerNtB4_19RelationshipManager21get_all_relationships
FNDA:1280,_RNvMs_NtNtCsl8fXSKtwgoJ_14do_memory_core7episode20relationship_managerNtB4_19RelationshipManager23find_relationship_by_id
FNDA:5138,_RNvMs_NtNtCsl8fXSKtwgoJ_14do_memory_core7episode20relationship_managerNtB4_19RelationshipManager3new
FNDA:0,_RNvMs_NtNtCsl8fXSKtwgoJ_14do_memory_core7episode20relationship_managerNtB4_19RelationshipManager5clear
FNDA:0,_RNvXNtNtCsl8fXSKtwgoJ_14do_memory_core7episode20relationship_managerNtB2_19RelationshipManagerNtNtCs4kUJL3MZFFz_4core7default7Default7default
FNF:25
FNH:23
DA:50,1
DA:51,1
DA:52,1
DA:60,5168
DA:61,5168
DA:62,5168
DA:63,5168
DA:64,5168
DA:65,5168
DA:66,5168
DA:76,532
DA:78,532
DA:79,532
DA:80,532
DA:83,2541
DA:84,2541
DA:85,2541
DA:86,532
DA:114,20366
DA:115,20366
DA:116,20366
DA:117,20366
DA:118,20366
DA:119,20366
DA:120,20366
DA:122,20366
DA:123,257
DA:124,257
DA:125,257
DA:126,20109
DA:129,20109
DA:130,257
DA:131,257
DA:132,257
DA:133,257
DA:134,257
DA:135,19852
DA:138,19852
DA:139,8565
DA:140,8565
DA:141,8565
DA:142,0
DA:143,0
DA:144,8565
DA:145,771
DA:146,771
DA:147,771
DA:148,0
DA:149,0
DA:150,771
DA:151,771
DA:152,771
DA:153,771
DA:154,771
DA:155,7794
DA:156,11287
DA:159,19081
DA:160,3597
DA:161,1026
DA:162,1026
DA:163,1026
DA:164,1026
DA:165,2571
DA:166,15484
DA:169,18055
DA:170,18055
DA:173,18055
DA:175,18055
DA:176,20366
DA:187,1282
DA:189,769
DA:190,1282
DA:191,1282
DA:192,1282
DA:193,1282
DA:196,769
DA:197,769
DA:198,0
DA:201,769
DA:202,769
DA:203,0
DA:206,769
DA:207,769
DA:208,769
DA:209,769
DA:210,769
DA:212,769
DA:213,1282
DA:227,21392
DA:228,21392
DA:229,21392
DA:230,21392
DA:231,21392
DA:232,21392
DA:233,21392
DA:234,21392
DA:235,21392
DA:247,1028
DA:248,1028
DA:249,1028
DA:250,1028
DA:251,1028
DA:252,1028
DA:264,771
DA:265,771
DA:266,771
DA:267,771
DA:268,771
DA:269,771
DA:284,259
DA:285,259
DA:286,259
DA:287,259
DA:288,259
DA:289,259
DA:292,259
DA:293,258
DA:294,258
DA:295,258
DA:296,258
DA:298,1
DA:301,259
DA:302,257
DA:303,257
DA:304,257
DA:305,257
DA:307,2
DA:309,259
DA:310,259
DA:326,8567
DA:329,8567
DA:330,8567
DA:343,772
DA:345,772
DA:346,772
DA:354,1
DA:355,1
DA:356,1
DA:358,2
DA:359,2
DA:360,2
DA:361,2
DA:362,2
DA:366,1
DA:367,1
DA:375,1044
DA:376,1044
DA:377,1044
DA:385,519
DA:386,519
DA:388,2639
DA:389,2639
DA:390,2640
DA:391,2640
DA:392,2640
DA:395,519
DA:396,519
DA:406,3
DA:407,3
DA:408,3
DA:411,1
DA:412,1
DA:413,1
DA:414,1
DA:415,1
DA:418,20596
DA:420,20596
DA:421,20596
DA:422,20596
DA:423,20596
DA:426,20596
DA:427,20596
DA:428,20596
DA:429,20596
DA:432,20596
DA:433,20596
DA:434,20596
DA:435,20596
DA:436,20596
DA:437,20596
DA:440,1282
DA:441,1282
DA:442,1281
DA:443,769
DA:444,512
DA:446,513
DA:447,1282
BRF:0
BRH:0
LF:194
LH:186
end_of_record
SF:/app/memory-core/src/episode/relationships.rs
FN:250,_RNCNvMs2_NtNtCsl8fXSKtwgoJ_14do_memory_core7episode13relationshipsNtB7_19EpisodeRelationship7inverse0Bb_
FN:37,_RNvMNtNtCsl8fXSKtwgoJ_14do_memory_core7episode13relationshipsNtB2_16RelationshipType14is_directional
FN:60,_RNvMNtNtCsl8fXSKtwgoJ_14do_memory_core7episode13relationshipsNtB2_16RelationshipType16requires_acyclic
FN:98,_RNvMNtNtCsl8fXSKtwgoJ_14do_memory_core7episode13relationshipsNtB2_16RelationshipType3all
FN:83,_RNvMNtNtCsl8fXSKtwgoJ_14do_memory_core7episode13relationshipsNtB2_16RelationshipType5parse
FN:66,_RNvMNtNtCsl8fXSKtwgoJ_14do_memory_core7episode13relationshipsNtB2_16RelationshipType6as_str
FN:46,_RNvMNtNtCsl8fXSKtwgoJ_14do_memory_core7episode13relationshipsNtB2_16RelationshipType7inverse
FN:159,_RNvMs1_NtNtCsl8fXSKtwgoJ_14do_memory_core7episode13relationshipsNtB5_20RelationshipMetadata11with_reason
FN:168,_RNvMs1_NtNtCsl8fXSKtwgoJ_14do_memory_core7episode13relationshipsNtB5_20RelationshipMetadata12with_creator
FN:153,_RNvMs1_NtNtCsl8fXSKtwgoJ_14do_memory_core7episode13relationshipsNtB5_20RelationshipMetadata3new
FN:183,_RNvMs1_NtNtCsl8fXSKtwgoJ_14do_memory_core7episode13relationshipsNtB5_20RelationshipMetadata9get_field
FN:177,_RNvMs1_NtNtCsl8fXSKtwgoJ_14do_memory_core7episode13relationshipsNtB5_20RelationshipMetadata9set_field
FN:226,_RNvMs2_NtNtCsl8fXSKtwgoJ_14do_memory_core7episode13relationshipsNtB5_19EpisodeRelationship11with_reason
FN:242,_RNvMs2_NtNtCsl8fXSKtwgoJ_14do_memory_core7episode13relationshipsNtB5_19EpisodeRelationship14is_directional
FN:208,_RNvMs2_NtNtCsl8fXSKtwgoJ_14do_memory_core7episode13relationshipsNtB5_19EpisodeRelationship3new
FN:248,_RNvMs2_NtNtCsl8fXSKtwgoJ_14do_memory_core7episode13relationshipsNtB5_19EpisodeRelationship7inverse
FN:122,_RNvXs0_NtNtCsl8fXSKtwgoJ_14do_memory_core7episode13relationshipsNtB5_16RelationshipTypeNtNtNtCsVq2DGqHAPz_8proptest9arbitrary6traits9Arbitrary14arbitrary_with
FN:112,_RNvXs_NtNtCsl8fXSKtwgoJ_14do_memory_core7episode13relationshipsNtB4_16RelationshipTypeNtNtCs4kUJL3MZFFz_4core3fmt7Display3fmt
FN:242,_RNvMs2_NtNtCs46cA19QElOV_14do_memory_core7episode13relationshipsNtB5_19EpisodeRelationship14is_directional
FN:122,_RNvXs0_NtNtCs46cA19QElOV_14do_memory_core7episode13relationshipsNtB5_16RelationshipTypeNtNtNtCsVq2DGqHAPz_8proptest9arbitrary6traits9Arbitrary14arbitrary_with
FN:250,_RNCNvMs2_NtNtCs46cA19QElOV_14do_memory_core7episode13relationshipsNtB7_19EpisodeRelationship7inverse0Bb_
FN:409,_RNvNtNtNtCs46cA19QElOV_14do_memory_core7episode13relationships5testss_19test_direction_enum
FN:348,_RNvNtNtNtCs46cA19QElOV_14do_memory_core7episode13relationships5testss_25test_relationship_inverse
FN:312,_RNvNtNtNtCs46cA19QElOV_14do_memory_core7episode13relationships5testss_26test_relationship_creation
FN:366,_RNvNtNtNtCs46cA19QElOV_14do_memory_core7episode13relationships5testss_26test_relationship_metadata
FN:331,_RNvNtNtNtCs46cA19QElOV_14do_memory_core7episode13relationships5testss_29test_relationship_with_reason
FN:287,_RNvNtNtNtCs46cA19QElOV_14do_memory_core7episode13relationships5testss_30test_relationship_type_acyclic
FN:389,_RNvNtNtNtCs46cA19QElOV_14do_memory_core7episode13relationships5testss_31test_relationship_serialization
FN:276,_RNvNtNtNtCs46cA19QElOV_14do_memory_core7episode13relationships5testss_34test_relationship_type_directional
FN:296,_RNvNtNtNtCs46cA19QElOV_14do_memory_core7episode13relationships5testss_37test_relationship_type_str_conversion
FN:380,_RNvNtNtNtCs46cA19QElOV_14do_memory_core7episode13relationships5testss_39test_relationship_metadata_with_creator
FN:305,_RNvNtNtNtCs46cA19QElOV_14do_memory_core7episode13relationships5testss_39test_relationship_type_from_str_invalid
FN:37,_RNvMNtNtCs46cA19QElOV_14do_memory_core7episode13relationshipsNtB2_16RelationshipType14is_directional
FN:60,_RNvMNtNtCs46cA19QElOV_14do_memory_core7episode13relationshipsNtB2_16RelationshipType16requires_acyclic
FN:98,_RNvMNtNtCs46cA19QElOV_14do_memory_core7episode13relationshipsNtB2_16RelationshipType3all
FN:83,_RNvMNtNtCs46cA19QElOV_14do_memory_core7episode13relationshipsNtB2_16RelationshipType5parse
FN:66,_RNvMNtNtCs46cA19QElOV_14do_memory_core7episode13relationshipsNtB2_16RelationshipType6as_str
FN:46,_RNvMNtNtCs46cA19QElOV_14do_memory_core7episode13relationshipsNtB2_16RelationshipType7inverse
FN:159,_RNvMs1_NtNtCs46cA19QElOV_14do_memory_core7episode13relationshipsNtB5_20RelationshipMetadata11with_reason
FN:168,_RNvMs1_NtNtCs46cA19QElOV_14do_memory_core7episode13relationshipsNtB5_20RelationshipMetadata12with_creator
FN:153,_RNvMs1_NtNtCs46cA19QElOV_14do_memory_core7episode13relationshipsNtB5_20RelationshipMetadata3new
FN:183,_RNvMs1_NtNtCs46cA19QElOV_14do_memory_core7episode13relationshipsNtB5_20RelationshipMetadata9get_field
FN:177,_RNvMs1_NtNtCs46cA19QElOV_14do_memory_core7episode13relationshipsNtB5_20RelationshipMetadata9set_field
FN:226,_RNvMs2_NtNtCs46cA19QElOV_14do_memory_core7episode13relationshipsNtB5_19EpisodeRelationship11with_reason
FN:208,_RNvMs2_NtNtCs46cA19QElOV_14do_memory_core7episode13relationshipsNtB5_19EpisodeRelationship3new
FN:248,_RNvMs2_NtNtCs46cA19QElOV_14do_memory_core7episode13relationshipsNtB5_19EpisodeRelationship7inverse
FN:112,_RNvXs_NtNtCs46cA19QElOV_14do_memory_core7episode13relationshipsNtB4_16RelationshipTypeNtNtCs4kUJL3MZFFz_4core3fmt7Display3fmt
FNDA:0,_RNCNvMs2_NtNtCsl8fXSKtwgoJ_14do_memory_core7episode13relationshipsNtB7_19EpisodeRelationship7inverse0Bb_
FNDA:381,_RNvMNtNtCsl8fXSKtwgoJ_14do_memory_core7episode13relationshipsNtB2_16RelationshipType14is_directional
FNDA:19945,_RNvMNtNtCsl8fXSKtwgoJ_14do_memory_core7episode13relationshipsNtB2_16RelationshipType16requires_acyclic
FNDA:0,_RNvMNtNtCsl8fXSKtwgoJ_14do_memory_core7episode13relationshipsNtB2_16RelationshipType3all
FNDA:256,_RNvMNtNtCsl8fXSKtwgoJ_14do_memory_core7episode13relationshipsNtB2_16RelationshipType5parse
FNDA:275,_RNvMNtNtCsl8fXSKtwgoJ_14do_memory_core7episode13relationshipsNtB2_16RelationshipType6as_str
FNDA:256,_RNvMNtNtCsl8fXSKtwgoJ_14do_memory_core7episode13relationshipsNtB2_16RelationshipType7inverse
FNDA:11193,_RNvMs1_NtNtCsl8fXSKtwgoJ_14do_memory_core7episode13relationshipsNtB5_20RelationshipMetadata11with_reason
FNDA:0,_RNvMs1_NtNtCsl8fXSKtwgoJ_14do_memory_core7episode13relationshipsNtB5_20RelationshipMetadata12with_creator
FNDA:0,_RNvMs1_NtNtCsl8fXSKtwgoJ_14do_memory_core7episode13relationshipsNtB5_20RelationshipMetadata3new
FNDA:0,_RNvMs1_NtNtCsl8fXSKtwgoJ_14do_memory_core7episode13relationshipsNtB5_20RelationshipMetadata9get_field
FNDA:0,_RNvMs1_NtNtCsl8fXSKtwgoJ_14do_memory_core7episode13relationshipsNtB5_20RelationshipMetadata9set_field
FNDA:0,_RNvMs2_NtNtCsl8fXSKtwgoJ_14do_memory_core7episode13relationshipsNtB5_19EpisodeRelationship11with_reason
FNDA:0,_RNvMs2_NtNtCsl8fXSKtwgoJ_14do_memory_core7episode13relationshipsNtB5_19EpisodeRelationship14is_directional
FNDA:19163,_RNvMs2_NtNtCsl8fXSKtwgoJ_14do_memory_core7episode13relationshipsNtB5_19EpisodeRelationship3new
FNDA:0,_RNvMs2_NtNtCsl8fXSKtwgoJ_14do_memory_core7episode13relationshipsNtB5_19EpisodeRelationship7inverse
FNDA:16,_RNvXs0_NtNtCsl8fXSKtwgoJ_14do_memory_core7episode13relationshipsNtB5_16RelationshipTypeNtNtNtCsVq2DGqHAPz_8proptest9arbitrary6traits9Arbitrary14arbitrary_with
FNDA:1,_RNvXs_NtNtCsl8fXSKtwgoJ_14do_memory_core7episode13relationshipsNtB4_16RelationshipTypeNtNtCs4kUJL3MZFFz_4core3fmt7Display3fmt
FNDA:0,_RNvMs2_NtNtCs46cA19QElOV_14do_memory_core7episode13relationshipsNtB5_19EpisodeRelationship14is_directional
FNDA:0,_RNvXs0_NtNtCs46cA19QElOV_14do_memory_core7episode13relationshipsNtB5_16RelationshipTypeNtNtNtCsVq2DGqHAPz_8proptest9arbitrary6traits9Arbitrary14arbitrary_with
FNDA:1,_RNCNvMs2_NtNtCs46cA19QElOV_14do_memory_core7episode13relationshipsNtB7_19EpisodeRelationship7inverse0Bb_
FNDA:1,_RNvNtNtNtCs46cA19QElOV_14do_memory_core7episode13relationships5testss_19test_direction_enum
FNDA:1,_RNvNtNtNtCs46cA19QElOV_14do_memory_core7episode13relationships5testss_25test_relationship_inverse
FNDA:1,_RNvNtNtNtCs46cA19QElOV_14do_memory_core7episode13relationships5testss_26test_relationship_creation
FNDA:1,_RNvNtNtNtCs46cA19QElOV_14do_memory_core7episode13relationships5testss_26test_relationship_metadata
FNDA:1,_RNvNtNtNtCs46cA19QElOV_14do_memory_core7episode13relationships5testss_29test_relationship_with_reason
FNDA:1,_RNvNtNtNtCs46cA19QElOV_14do_memory_core7episode13relationships5testss_30test_relationship_type_acyclic
FNDA:1,_RNvNtNtNtCs46cA19QElOV_14do_memory_core7episode13relationships5testss_31test_relationship_serialization
FNDA:1,_RNvNtNtNtCs46cA19QElOV_14do_memory_core7episode13relationships5testss_34test_relationship_type_directional
FNDA:1,_RNvNtNtNtCs46cA19QElOV_14do_memory_core7episode13relationships5testss_37test_relationship_type_str_conversion
FNDA:1,_RNvNtNtNtCs46cA19QElOV_14do_memory_core7episode13relationships5testss_39test_relationship_metadata_with_creator
FNDA:1,_RNvNtNtNtCs46cA19QElOV_14do_memory_core7episode13relationships5testss_39test_relationship_type_from_str_invalid
FNDA:7,_RNvMNtNtCs46cA19QElOV_14do_memory_core7episode13relationshipsNtB2_16RelationshipType14is_directional
FNDA:168,_RNvMNtNtCs46cA19QElOV_14do_memory_core7episode13relationshipsNtB2_16RelationshipType16requires_acyclic
FNDA:1,_RNvMNtNtCs46cA19QElOV_14do_memory_core7episode13relationshipsNtB2_16RelationshipType3all
FNDA:8,_RNvMNtNtCs46cA19QElOV_14do_memory_core7episode13relationshipsNtB2_16RelationshipType5parse
FNDA:8,_RNvMNtNtCs46cA19QElOV_14do_memory_core7episode13relationshipsNtB2_16RelationshipType6as_str
FNDA:1,_RNvMNtNtCs46cA19QElOV_14do_memory_core7episode13relationshipsNtB2_16RelationshipType7inverse
FNDA:9,_RNvMs1_NtNtCs46cA19QElOV_14do_memory_core7episode13relationshipsNtB5_20RelationshipMetadata11with_reason
FNDA:1,_RNvMs1_NtNtCs46cA19QElOV_14do_memory_core7episode13relationshipsNtB5_20RelationshipMetadata12with_creator
FNDA:1,_RNvMs1_NtNtCs46cA19QElOV_14do_memory_core7episode13relationshipsNtB5_20RelationshipMetadata3new
FNDA:1,_RNvMs1_NtNtCs46cA19QElOV_14do_memory_core7episode13relationshipsNtB5_20RelationshipMetadata9get_field
FNDA:1,_RNvMs1_NtNtCs46cA19QElOV_14do_memory_core7episode13relationshipsNtB5_20RelationshipMetadata9set_field
FNDA:8,_RNvMs2_NtNtCs46cA19QElOV_14do_memory_core7episode13relationshipsNtB5_19EpisodeRelationship11with_reason
FNDA:2202,_RNvMs2_NtNtCs46cA19QElOV_14do_memory_core7episode13relationshipsNtB5_19EpisodeRelationship3new
FNDA:1,_RNvMs2_NtNtCs46cA19QElOV_14do_memory_core7episode13relationshipsNtB5_19EpisodeRelationship7inverse
FNDA:1,_RNvXs_NtNtCs46cA19QElOV_14do_memory_core7episode13relationshipsNtB4_16RelationshipTypeNtNtCs4kUJL3MZFFz_4core3fmt7Display3fmt
FNF:29
FNH:28
DA:37,388
DA:38,126
DA:39,388
DA:42,388
DA:46,257
DA:47,257
DA:48,37
DA:49,34
DA:50,36
DA:51,27
DA:52,33
DA:53,47
DA:54,43
DA:56,257
DA:60,20113
DA:61,20113
DA:62,20113
DA:66,283
DA:67,283
DA:68,42
DA:69,54
DA:70,38
DA:71,31
DA:72,41
DA:73,40
DA:74,37
DA:76,283
DA:83,264
DA:84,264
DA:85,264
DA:86,226
DA:87,185
DA:88,148
DA:89,119
DA:90,78
DA:91,38
DA:92,1
DA:94,264
DA:98,1
DA:99,1
DA:100,1
DA:101,1
DA:102,1
DA:103,1
DA:104,1
DA:105,1
DA:106,1
DA:108,1
DA:112,2
DA:113,2
DA:114,2
DA:122,16
DA:123,16
DA:124,16
DA:125,16
DA:126,16
DA:127,16
DA:128,16
DA:129,16
DA:130,16
DA:132,16
DA:133,16
DA:153,1
DA:154,1
DA:155,1
DA:159,11202
DA:160,11202
DA:161,11202
DA:162,11202
DA:163,11202
DA:164,11202
DA:168,1
DA:169,1
DA:170,1
DA:171,1
DA:172,1
DA:173,1
DA:174,1
DA:177,1
DA:178,1
DA:179,1
DA:183,1
DA:184,1
DA:185,1
DA:208,21365
DA:209,21365
DA:210,21365
DA:211,21365
DA:212,21365
DA:213,21365
DA:214,21365
DA:215,21365
DA:216,21365
DA:217,21365
DA:218,21365
DA:219,21365
DA:220,21365
DA:221,21365
DA:222,21365
DA:226,8
DA:227,8
DA:228,8
DA:229,8
DA:230,8
DA:231,8
DA:232,8
DA:233,8
DA:234,8
DA:235,8
DA:236,8
DA:238,8
DA:242,0
DA:243,0
DA:244,0
DA:248,1
DA:249,1
DA:250,1
DA:251,1
DA:252,1
DA:253,1
DA:254,1
DA:255,1
DA:256,1
DA:257,1
DA:276,1
DA:277,1
DA:278,1
DA:279,1
DA:280,1
DA:281,1
DA:282,1
DA:283,1
DA:284,1
DA:287,1
DA:288,1
DA:289,1
DA:290,1
DA:291,1
DA:292,1
DA:293,1
DA:296,1
DA:297,7
DA:298,7
DA:299,7
DA:300,7
DA:302,1
DA:305,1
DA:306,1
DA:307,1
DA:308,1
DA:309,1
DA:312,1
DA:313,1
DA:314,1
DA:315,1
DA:317,1
DA:318,1
DA:319,1
DA:320,1
DA:321,1
DA:324,1
DA:325,1
DA:326,1
DA:327,1
DA:328,1
DA:331,1
DA:332,1
DA:333,1
DA:335,1
DA:336,1
DA:337,1
DA:338,1
DA:339,1
DA:342,1
DA:343,1
DA:344,1
DA:345,1
DA:348,1
DA:349,1
DA:350,1
DA:352,1
DA:353,1
DA:354,1
DA:355,1
DA:356,1
DA:359,1
DA:360,1
DA:361,1
DA:362,1
DA:363,1
DA:366,1
DA:367,1
DA:368,1
DA:369,1
DA:370,1
DA:372,1
DA:373,1
DA:374,1
DA:375,1
DA:377,1
DA:380,1
DA:381,1
DA:382,1
DA:384,1
DA:385,1
DA:386,1
DA:389,1
DA:390,1
DA:391,1
DA:392,1
DA:393,1
DA:394,1
DA:395,1
DA:396,1
DA:399,1
DA:400,1
DA:402,1
DA:403,1
DA:404,1
DA:405,1
DA:406,1
DA:409,1
DA:411,1
DA:412,1
DA:413,1
DA:414,1
BRF:0
BRH:0
LF:226
LH:223
end_of_record
SF:/app/memory-core/src/episode/retention/mod.rs
FN:402,_RNvMs2_NtNtCs46cA19QElOV_14do_memory_core7episode9retentionNtB5_13CleanupResult10has_errors
FN:384,_RNvMs2_NtNtCs46cA19QElOV_14do_memory_core7episode9retentionNtB5_13CleanupResult11add_deleted
FN:408,_RNvMs2_NtNtCs46cA19QElOV_14do_memory_core7episode9retentionNtB5_13CleanupResult12success_rate
FN:379,_RNvMs2_NtNtCs46cA19QElOV_14do_memory_core7episode9retentionNtB5_13CleanupResult3new
FN:390,_RNvMs2_NtNtCs46cA19QElOV_14do_memory_core7episode9retentionNtB5_13CleanupResult8add_kept
FN:396,_RNvMs2_NtNtCs46cA19QElOV_14do_memory_core7episode9retentionNtB5_13CleanupResult9add_error
FN:176,_RNvMs_NtNtCs46cA19QElOV_14do_memory_core7episode9retentionNtB4_22EpisodeRetentionPolicy10aggressive
FN:307,_RNvMs_NtNtCs46cA19QElOV_14do_memory_core7episode9retentionNtB4_22EpisodeRetentionPolicy12check_failed
FN:287,_RNvMs_NtNtCs46cA19QElOV_14do_memory_core7episode9retentionNtB4_22EpisodeRetentionPolicy12check_reward
FN:234,_RNvMs_NtNtCs46cA19QElOV_14do_memory_core7episode9retentionNtB4_22EpisodeRetentionPolicy12with_dry_run
FN:266,_RNvMs_NtNtCs46cA19QElOV_14do_memory_core7episode9retentionNtB4_22EpisodeRetentionPolicy13should_retain
FN:227,_RNvMs_NtNtCs46cA19QElOV_14do_memory_core7episode9retentionNtB4_22EpisodeRetentionPolicy14with_criterion
FN:144,_RNvMs_NtNtCs46cA19QElOV_14do_memory_core7episode9retentionNtB4_22EpisodeRetentionPolicy15storage_limited
FN:295,_RNvMs_NtNtCs46cA19QElOV_14do_memory_core7episode9retentionNtB4_22EpisodeRetentionPolicy16check_references
FN:192,_RNvMs_NtNtCs46cA19QElOV_14do_memory_core7episode9retentionNtB4_22EpisodeRetentionPolicy17with_max_age_days
FN:206,_RNvMs_NtNtCs46cA19QElOV_14do_memory_core7episode9retentionNtB4_22EpisodeRetentionPolicy17with_max_episodes
FN:220,_RNvMs_NtNtCs46cA19QElOV_14do_memory_core7episode9retentionNtB4_22EpisodeRetentionPolicy23with_cleanup_batch_size
FN:199,_RNvMs_NtNtCs46cA19QElOV_14do_memory_core7episode9retentionNtB4_22EpisodeRetentionPolicy25with_min_reward_threshold
FN:138,_RNvMs_NtNtCs46cA19QElOV_14do_memory_core7episode9retentionNtB4_22EpisodeRetentionPolicy3new
FN:160,_RNvMs_NtNtCs46cA19QElOV_14do_memory_core7episode9retentionNtB4_22EpisodeRetentionPolicy8archival
FN:240,_RNvMs_NtNtCs46cA19QElOV_14do_memory_core7episode9retentionNtB4_22EpisodeRetentionPolicy8validate
FN:282,_RNvMs_NtNtCs46cA19QElOV_14do_memory_core7episode9retentionNtB4_22EpisodeRetentionPolicy9check_age
FN:120,_RNvXNtNtCs46cA19QElOV_14do_memory_core7episode9retentionNtB2_22EpisodeRetentionPolicyNtNtCs4kUJL3MZFFz_4core7default7Default7default
FN:318,_RNvMs_NtNtCs46cA19QElOV_14do_memory_core7episode9retentionNtB4_22EpisodeRetentionPolicy16cleanup_interval
FN:213,_RNvMs_NtNtCs46cA19QElOV_14do_memory_core7episode9retentionNtB4_22EpisodeRetentionPolicy21with_cleanup_interval
FN:335,_RNvXs0_NtNtCs46cA19QElOV_14do_memory_core7episode9retentionNtB5_20RetentionPolicyErrorNtNtCs4kUJL3MZFFz_4core3fmt7Display3fmt
FNDA:2,_RNvMs2_NtNtCs46cA19QElOV_14do_memory_core7episode9retentionNtB5_13CleanupResult10has_errors
FNDA:2,_RNvMs2_NtNtCs46cA19QElOV_14do_memory_core7episode9retentionNtB5_13CleanupResult11add_deleted
FNDA:2,_RNvMs2_NtNtCs46cA19QElOV_14do_memory_core7episode9retentionNtB5_13CleanupResult12success_rate
FNDA:2,_RNvMs2_NtNtCs46cA19QElOV_14do_memory_core7episode9retentionNtB5_13CleanupResult3new
FNDA:1,_RNvMs2_NtNtCs46cA19QElOV_14do_memory_core7episode9retentionNtB5_13CleanupResult8add_kept
FNDA:1,_RNvMs2_NtNtCs46cA19QElOV_14do_memory_core7episode9retentionNtB5_13CleanupResult9add_error
FNDA:1,_RNvMs_NtNtCs46cA19QElOV_14do_memory_core7episode9retentionNtB4_22EpisodeRetentionPolicy10aggressive
FNDA:0,_RNvMs_NtNtCs46cA19QElOV_14do_memory_core7episode9retentionNtB4_22EpisodeRetentionPolicy12check_failed
FNDA:0,_RNvMs_NtNtCs46cA19QElOV_14do_memory_core7episode9retentionNtB4_22EpisodeRetentionPolicy12check_reward
FNDA:1,_RNvMs_NtNtCs46cA19QElOV_14do_memory_core7episode9retentionNtB4_22EpisodeRetentionPolicy12with_dry_run
FNDA:3,_RNvMs_NtNtCs46cA19QElOV_14do_memory_core7episode9retentionNtB4_22EpisodeRetentionPolicy13should_retain
FNDA:2,_RNvMs_NtNtCs46cA19QElOV_14do_memory_core7episode9retentionNtB4_22EpisodeRetentionPolicy14with_criterion
FNDA:1,_RNvMs_NtNtCs46cA19QElOV_14do_memory_core7episode9retentionNtB4_22EpisodeRetentionPolicy15storage_limited
FNDA:1,_RNvMs_NtNtCs46cA19QElOV_14do_memory_core7episode9retentionNtB4_22EpisodeRetentionPolicy16check_references
FNDA:3,_RNvMs_NtNtCs46cA19QElOV_14do_memory_core7episode9retentionNtB4_22EpisodeRetentionPolicy17with_max_age_days
FNDA:1,_RNvMs_NtNtCs46cA19QElOV_14do_memory_core7episode9retentionNtB4_22EpisodeRetentionPolicy17with_max_episodes
FNDA:1,_RNvMs_NtNtCs46cA19QElOV_14do_memory_core7episode9retentionNtB4_22EpisodeRetentionPolicy23with_cleanup_batch_size
FNDA:1,_RNvMs_NtNtCs46cA19QElOV_14do_memory_core7episode9retentionNtB4_22EpisodeRetentionPolicy25with_min_reward_threshold
FNDA:1,_RNvMs_NtNtCs46cA19QElOV_14do_memory_core7episode9retentionNtB4_22EpisodeRetentionPolicy3new
FNDA:2,_RNvMs_NtNtCs46cA19QElOV_14do_memory_core7episode9retentionNtB4_22EpisodeRetentionPolicy8archival
FNDA:6,_RNvMs_NtNtCs46cA19QElOV_14do_memory_core7episode9retentionNtB4_22EpisodeRetentionPolicy8validate
FNDA:1,_RNvMs_NtNtCs46cA19QElOV_14do_memory_core7episode9retentionNtB4_22EpisodeRetentionPolicy9check_age
FNDA:6,_RNvXNtNtCs46cA19QElOV_14do_memory_core7episode9retentionNtB2_22EpisodeRetentionPolicyNtNtCs4kUJL3MZFFz_4core7default7Default7default
FNDA:0,_RNvMs_NtNtCs46cA19QElOV_14do_memory_core7episode9retentionNtB4_22EpisodeRetentionPolicy16cleanup_interval
FNDA:0,_RNvMs_NtNtCs46cA19QElOV_14do_memory_core7episode9retentionNtB4_22EpisodeRetentionPolicy21with_cleanup_interval
FNDA:0,_RNvXs0_NtNtCs46cA19QElOV_14do_memory_core7episode9retentionNtB5_20RetentionPolicyErrorNtNtCs4kUJL3MZFFz_4core3fmt7Display3fmt
FNF:26
FNH:21
DA:120,6
DA:121,6
DA:122,6
DA:123,6
DA:124,6
DA:125,6
DA:126,6
DA:127,6
DA:128,6
DA:129,6
DA:130,6
DA:131,6
DA:132,6
DA:138,1
DA:139,1
DA:140,1
DA:144,1
DA:145,1
DA:146,1
DA:147,1
DA:148,1
DA:149,1
DA:150,1
DA:151,1
DA:152,1
DA:153,1
DA:154,1
DA:155,1
DA:156,1
DA:160,2
DA:161,2
DA:162,2
DA:163,2
DA:164,2
DA:165,2
DA:166,2
DA:167,2
DA:168,2
DA:169,2
DA:170,2
DA:171,2
DA:172,2
DA:176,1
DA:177,1
DA:178,1
DA:179,1
DA:180,1
DA:181,1
DA:182,1
DA:183,1
DA:184,1
DA:185,1
DA:186,1
DA:187,1
DA:188,1
DA:192,3
DA:193,3
DA:194,3
DA:195,3
DA:199,1
DA:200,1
DA:201,1
DA:202,1
DA:206,1
DA:207,1
DA:208,1
DA:209,1
DA:213,0
DA:214,0
DA:215,0
DA:216,0
DA:220,1
DA:221,1
DA:222,1
DA:223,1
DA:227,2
DA:228,2
DA:229,2
DA:230,2
DA:234,1
DA:235,1
DA:236,1
DA:237,1
DA:240,6
DA:241,6
DA:242,1
DA:243,5
DA:244,5
DA:245,1
DA:246,1
DA:247,1
DA:248,4
DA:249,4
DA:250,0
DA:251,4
DA:252,4
DA:253,6
DA:266,3
DA:267,3
DA:268,1
DA:269,1
DA:270,0
DA:271,1
DA:272,0
DA:275,0
DA:276,0
DA:277,0
DA:280,3
DA:282,1
DA:283,1
DA:284,1
DA:285,1
DA:287,0
DA:289,0
DA:290,0
DA:291,0
DA:293,0
DA:295,1
DA:297,1
DA:298,1
DA:299,0
DA:300,0
DA:301,0
DA:302,0
DA:304,0
DA:305,1
DA:307,0
DA:309,0
DA:310,0
DA:311,0
DA:312,0
DA:314,0
DA:318,0
DA:319,0
DA:320,0
DA:335,0
DA:336,0
DA:337,0
DA:338,0
DA:339,0
DA:341,0
DA:343,0
DA:379,2
DA:380,2
DA:381,2
DA:384,2
DA:385,2
DA:386,2
DA:387,2
DA:390,1
DA:391,1
DA:392,1
DA:393,1
DA:396,1
DA:397,1
DA:398,1
DA:402,2
DA:403,2
DA:404,2
DA:408,2
DA:409,2
DA:410,0
DA:411,2
DA:412,2
DA:413,2
DA:414,2
BRF:0
BRH:0
LF:166
LH:129
end_of_record
SF:/app/memory-core/src/episode/structs.rs
FN:41,_RNvMNtNtCsl8fXSKtwgoJ_14do_memory_core7episode7structsNtB2_18ApplicationOutcome10is_success
FN:282,_RNvMs0_NtNtCsl8fXSKtwgoJ_14do_memory_core7episode7structsNtB5_7Episode10clear_tags
FN:261,_RNvMs0_NtNtCsl8fXSKtwgoJ_14do_memory_core7episode7structsNtB5_7Episode10remove_tag
FN:184,_RNvMs0_NtNtCsl8fXSKtwgoJ_14do_memory_core7episode7structsNtB5_7Episode11is_complete
FN:218,_RNvMs0_NtNtCsl8fXSKtwgoJ_14do_memory_core7episode7structsNtB5_7Episode13normalize_tag
FN:213,_RNvMs0_NtNtCsl8fXSKtwgoJ_14do_memory_core7episode7structsNtB5_7Episode18failed_steps_count
FN:207,_RNvMs0_NtNtCsl8fXSKtwgoJ_14do_memory_core7episode7structsNtB5_7Episode22successful_steps_count
FN:167,_RNvMs0_NtNtCsl8fXSKtwgoJ_14do_memory_core7episode7structsNtB5_7Episode26record_pattern_application
FN:144,_RNvMs0_NtNtCsl8fXSKtwgoJ_14do_memory_core7episode7structsNtB5_7Episode3new
FN:248,_RNvMs0_NtNtCsl8fXSKtwgoJ_14do_memory_core7episode7structsNtB5_7Episode7add_tag
FN:273,_RNvMs0_NtNtCsl8fXSKtwgoJ_14do_memory_core7episode7structsNtB5_7Episode7has_tag
FN:195,_RNvMs0_NtNtCsl8fXSKtwgoJ_14do_memory_core7episode7structsNtB5_7Episode8add_step
FN:200,_RNvMs0_NtNtCsl8fXSKtwgoJ_14do_memory_core7episode7structsNtB5_7Episode8complete
FN:190,_RNvMs0_NtNtCsl8fXSKtwgoJ_14do_memory_core7episode7structsNtB5_7Episode8duration
FN:288,_RNvMs0_NtNtCsl8fXSKtwgoJ_14do_memory_core7episode7structsNtB5_7Episode8get_tags
FN:93,_RNvMs_NtNtCsl8fXSKtwgoJ_14do_memory_core7episode7structsNtB4_13ExecutionStep10is_success
FN:77,_RNvMs_NtNtCsl8fXSKtwgoJ_14do_memory_core7episode7structsNtB4_13ExecutionStep3new
FN:263,_RNCNvMs0_NtNtCsl8fXSKtwgoJ_14do_memory_core7episode7structsNtB7_7Episode10remove_tag0Bb_
FN:236,_RNCNvMs0_NtNtCsl8fXSKtwgoJ_14do_memory_core7episode7structsNtB7_7Episode13normalize_tag0Bb_
FN:214,_RNCNvMs0_NtNtCsl8fXSKtwgoJ_14do_memory_core7episode7structsNtB7_7Episode18failed_steps_count0Bb_
FN:208,_RNCNvMs0_NtNtCsl8fXSKtwgoJ_14do_memory_core7episode7structsNtB7_7Episode22successful_steps_count0Bb_
FN:191,_RNCNvMs0_NtNtCsl8fXSKtwgoJ_14do_memory_core7episode7structsNtB7_7Episode8duration0Bb_
FN:94,_RNCNvMs_NtNtCsl8fXSKtwgoJ_14do_memory_core7episode7structsNtB6_13ExecutionStep10is_success0Ba_
FN:41,_RNvMNtNtCs46cA19QElOV_14do_memory_core7episode7structsNtB2_18ApplicationOutcome10is_success
FN:167,_RNvMs0_NtNtCs46cA19QElOV_14do_memory_core7episode7structsNtB5_7Episode26record_pattern_application
FN:263,_RNCNvMs0_NtNtCs46cA19QElOV_14do_memory_core7episode7structsNtB7_7Episode10remove_tag0Bb_
FN:236,_RNCNvMs0_NtNtCs46cA19QElOV_14do_memory_core7episode7structsNtB7_7Episode13normalize_tag0Bb_
FN:214,_RNCNvMs0_NtNtCs46cA19QElOV_14do_memory_core7episode7structsNtB7_7Episode18failed_steps_count0Bb_
FN:208,_RNCNvMs0_NtNtCs46cA19QElOV_14do_memory_core7episode7structsNtB7_7Episode22successful_steps_count0Bb_
FN:191,_RNCNvMs0_NtNtCs46cA19QElOV_14do_memory_core7episode7structsNtB7_7Episode8duration0Bb_
FN:94,_RNCNvMs_NtNtCs46cA19QElOV_14do_memory_core7episode7structsNtB6_13ExecutionStep10is_success0Ba_
FN:282,_RNvMs0_NtNtCs46cA19QElOV_14do_memory_core7episode7structsNtB5_7Episode10clear_tags
FN:261,_RNvMs0_NtNtCs46cA19QElOV_14do_memory_core7episode7structsNtB5_7Episode10remove_tag
FN:184,_RNvMs0_NtNtCs46cA19QElOV_14do_memory_core7episode7structsNtB5_7Episode11is_complete
FN:218,_RNvMs0_NtNtCs46cA19QElOV_14do_memory_core7episode7structsNtB5_7Episode13normalize_tag
FN:213,_RNvMs0_NtNtCs46cA19QElOV_14do_memory_core7episode7structsNtB5_7Episode18failed_steps_count
FN:207,_RNvMs0_NtNtCs46cA19QElOV_14do_memory_core7episode7structsNtB5_7Episode22successful_steps_count
FN:144,_RNvMs0_NtNtCs46cA19QElOV_14do_memory_core7episode7structsNtB5_7Episode3new
FN:248,_RNvMs0_NtNtCs46cA19QElOV_14do_memory_core7episode7structsNtB5_7Episode7add_tag
FN:273,_RNvMs0_NtNtCs46cA19QElOV_14do_memory_core7episode7structsNtB5_7Episode7has_tag
FN:195,_RNvMs0_NtNtCs46cA19QElOV_14do_memory_core7episode7structsNtB5_7Episode8add_step
FN:200,_RNvMs0_NtNtCs46cA19QElOV_14do_memory_core7episode7structsNtB5_7Episode8complete
FN:190,_RNvMs0_NtNtCs46cA19QElOV_14do_memory_core7episode7structsNtB5_7Episode8duration
FN:288,_RNvMs0_NtNtCs46cA19QElOV_14do_memory_core7episode7structsNtB5_7Episode8get_tags
FN:93,_RNvMs_NtNtCs46cA19QElOV_14do_memory_core7episode7structsNtB4_13ExecutionStep10is_success
FN:77,_RNvMs_NtNtCs46cA19QElOV_14do_memory_core7episode7structsNtB4_13ExecutionStep3new
FNDA:5,_RNvMNtNtCsl8fXSKtwgoJ_14do_memory_core7episode7structsNtB2_18ApplicationOutcome10is_success
FNDA:0,_RNvMs0_NtNtCsl8fXSKtwgoJ_14do_memory_core7episode7structsNtB5_7Episode10clear_tags
FNDA:0,_RNvMs0_NtNtCsl8fXSKtwgoJ_14do_memory_core7episode7structsNtB5_7Episode10remove_tag
FNDA:43825,_RNvMs0_NtNtCsl8fXSKtwgoJ_14do_memory_core7episode7structsNtB5_7Episode11is_complete
FNDA:26358,_RNvMs0_NtNtCsl8fXSKtwgoJ_14do_memory_core7episode7structsNtB5_7Episode13normalize_tag
FNDA:19436,_RNvMs0_NtNtCsl8fXSKtwgoJ_14do_memory_core7episode7structsNtB5_7Episode18failed_steps_count
FNDA:33940,_RNvMs0_NtNtCsl8fXSKtwgoJ_14do_memory_core7episode7structsNtB5_7Episode22successful_steps_count
FNDA:1,_RNvMs0_NtNtCsl8fXSKtwgoJ_14do_memory_core7episode7structsNtB5_7Episode26record_pattern_application
FNDA:23765,_RNvMs0_NtNtCsl8fXSKtwgoJ_14do_memory_core7episode7structsNtB5_7Episode3new
FNDA:12922,_RNvMs0_NtNtCsl8fXSKtwgoJ_14do_memory_core7episode7structsNtB5_7Episode7add_tag
FNDA:13436,_RNvMs0_NtNtCsl8fXSKtwgoJ_14do_memory_core7episode7structsNtB5_7Episode7has_tag
FNDA:689383,_RNvMs0_NtNtCsl8fXSKtwgoJ_14do_memory_core7episode7structsNtB5_7Episode8add_step
FNDA:11562,_RNvMs0_NtNtCsl8fXSKtwgoJ_14do_memory_core7episode7structsNtB5_7Episode8complete
FNDA:30407,_RNvMs0_NtNtCsl8fXSKtwgoJ_14do_memory_core7episode7structsNtB5_7Episode8duration
FNDA:514,_RNvMs0_NtNtCsl8fXSKtwgoJ_14do_memory_core7episode7structsNtB5_7Episode8get_tags
FNDA:2449528,_RNvMs_NtNtCsl8fXSKtwgoJ_14do_memory_core7episode7structsNtB4_13ExecutionStep10is_success
FNDA:689839,_RNvMs_NtNtCsl8fXSKtwgoJ_14do_memory_core7episode7structsNtB4_13ExecutionStep3new
FNDA:0,_RNCNvMs0_NtNtCsl8fXSKtwgoJ_14do_memory_core7episode7structsNtB7_7Episode10remove_tag0Bb_
FNDA:331730,_RNCNvMs0_NtNtCsl8fXSKtwgoJ_14do_memory_core7episode7structsNtB7_7Episode13normalize_tag0Bb_
FNDA:688315,_RNCNvMs0_NtNtCsl8fXSKtwgoJ_14do_memory_core7episode7structsNtB7_7Episode18failed_steps_count0Bb_
FNDA:730114,_RNCNvMs0_NtNtCsl8fXSKtwgoJ_14do_memory_core7episode7structsNtB7_7Episode22successful_steps_count0Bb_
FNDA:29638,_RNCNvMs0_NtNtCsl8fXSKtwgoJ_14do_memory_core7episode7structsNtB7_7Episode8duration0Bb_
FNDA:2398636,_RNCNvMs_NtNtCsl8fXSKtwgoJ_14do_memory_core7episode7structsNtB6_13ExecutionStep10is_success0Ba_
FNDA:0,_RNvMNtNtCs46cA19QElOV_14do_memory_core7episode7structsNtB2_18ApplicationOutcome10is_success
FNDA:0,_RNvMs0_NtNtCs46cA19QElOV_14do_memory_core7episode7structsNtB5_7Episode26record_pattern_application
FNDA:8,_RNCNvMs0_NtNtCs46cA19QElOV_14do_memory_core7episode7structsNtB7_7Episode10remove_tag0Bb_
FNDA:742,_RNCNvMs0_NtNtCs46cA19QElOV_14do_memory_core7episode7structsNtB7_7Episode13normalize_tag0Bb_
FNDA:2106,_RNCNvMs0_NtNtCs46cA19QElOV_14do_memory_core7episode7structsNtB7_7Episode18failed_steps_count0Bb_
FNDA:4707,_RNCNvMs0_NtNtCs46cA19QElOV_14do_memory_core7episode7structsNtB7_7Episode22successful_steps_count0Bb_
FNDA:357,_RNCNvMs0_NtNtCs46cA19QElOV_14do_memory_core7episode7structsNtB7_7Episode8duration0Bb_
FNDA:11719,_RNCNvMs_NtNtCs46cA19QElOV_14do_memory_core7episode7structsNtB6_13ExecutionStep10is_success0Ba_
FNDA:3,_RNvMs0_NtNtCs46cA19QElOV_14do_memory_core7episode7structsNtB5_7Episode10clear_tags
FNDA:10,_RNvMs0_NtNtCs46cA19QElOV_14do_memory_core7episode7structsNtB5_7Episode10remove_tag
FNDA:149,_RNvMs0_NtNtCs46cA19QElOV_14do_memory_core7episode7structsNtB5_7Episode11is_complete
FNDA:110,_RNvMs0_NtNtCs46cA19QElOV_14do_memory_core7episode7structsNtB5_7Episode13normalize_tag
FNDA:176,_RNvMs0_NtNtCs46cA19QElOV_14do_memory_core7episode7structsNtB5_7Episode18failed_steps_count
FNDA:388,_RNvMs0_NtNtCs46cA19QElOV_14do_memory_core7episode7structsNtB5_7Episode22successful_steps_count
FNDA:716,_RNvMs0_NtNtCs46cA19QElOV_14do_memory_core7episode7structsNtB5_7Episode3new
FNDA:62,_RNvMs0_NtNtCs46cA19QElOV_14do_memory_core7episode7structsNtB5_7Episode7add_tag
FNDA:38,_RNvMs0_NtNtCs46cA19QElOV_14do_memory_core7episode7structsNtB5_7Episode7has_tag
FNDA:3312,_RNvMs0_NtNtCs46cA19QElOV_14do_memory_core7episode7structsNtB5_7Episode8add_step
FNDA:247,_RNvMs0_NtNtCs46cA19QElOV_14do_memory_core7episode7structsNtB5_7Episode8complete
FNDA:363,_RNvMs0_NtNtCs46cA19QElOV_14do_memory_core7episode7structsNtB5_7Episode8duration
FNDA:2,_RNvMs0_NtNtCs46cA19QElOV_14do_memory_core7episode7structsNtB5_7Episode8get_tags
FNDA:11755,_RNvMs_NtNtCs46cA19QElOV_14do_memory_core7episode7structsNtB4_13ExecutionStep10is_success
FNDA:3642,_RNvMs_NtNtCs46cA19QElOV_14do_memory_core7episode7structsNtB4_13ExecutionStep3new
FNF:23
FNH:23
DA:41,5
DA:42,5
DA:43,5
DA:77,693481
DA:78,693481
DA:79,693481
DA:80,693481
DA:81,693481
DA:82,693481
DA:83,693481
DA:84,693481
DA:85,693481
DA:86,693481
DA:87,693481
DA:88,693481
DA:89,693481
DA:93,2461283
DA:94,2461283
DA:95,2461283
DA:144,24481
DA:145,24481
DA:146,24481
DA:147,24481
DA:148,24481
DA:149,24481
DA:150,24481
DA:151,24481
DA:152,24481
DA:153,24481
DA:154,24481
DA:155,24481
DA:156,24481
DA:157,24481
DA:158,24481
DA:159,24481
DA:160,24481
DA:161,24481
DA:162,24481
DA:163,24481
DA:164,24481
DA:167,1
DA:168,1
DA:169,1
DA:170,1
DA:171,1
DA:172,1
DA:173,1
DA:174,1
DA:175,1
DA:176,1
DA:177,1
DA:178,1
DA:179,1
DA:180,1
DA:184,43974
DA:185,43974
DA:186,43974
DA:190,30770
DA:191,30770
DA:192,30770
DA:195,692695
DA:196,692695
DA:197,692695
DA:200,11809
DA:201,11809
DA:202,11809
DA:203,11809
DA:207,34328
DA:208,734821
DA:209,34328
DA:213,19612
DA:214,690421
DA:215,19612
DA:218,26468
DA:219,26468
DA:221,26468
DA:222,8
DA:223,26460
DA:225,26460
DA:226,1
DA:227,26459
DA:229,26459
DA:230,3
DA:231,26456
DA:234,26456
DA:235,26456
DA:236,332472
DA:238,8
DA:239,8
DA:240,8
DA:241,26448
DA:243,26448
DA:244,26468
DA:248,12984
DA:249,12984
DA:251,12972
DA:252,5
DA:253,12967
DA:255,12967
DA:256,12967
DA:257,12984
DA:261,10
DA:262,10
DA:263,8
DA:264,5
DA:265,5
DA:266,1
DA:267,4
DA:268,5
DA:269,10
DA:273,13474
DA:274,13474
DA:275,13470
DA:277,4
DA:279,13474
DA:282,3
DA:283,3
DA:284,3
DA:288,516
DA:289,516
DA:290,516
BRF:0
BRH:0
LF:127
LH:127
end_of_record
SF:/app/memory-core/src/episode/structs/tests_edge.rs
FN:4,_RNvNtNtNtCs46cA19QElOV_14do_memory_core7episode7structs10tests_edges_30test_tag_whitespace_variations
FN:31,_RNvNtNtNtCs46cA19QElOV_14do_memory_core7episode7structs10tests_edges_32test_clear_tags_on_empty_episode
FNDA:1,_RNvNtNtNtCs46cA19QElOV_14do_memory_core7episode7structs10tests_edges_30test_tag_whitespace_variations
FNDA:1,_RNvNtNtNtCs46cA19QElOV_14do_memory_core7episode7structs10tests_edges_32test_clear_tags_on_empty_episode
FNF:2
FNH:2
DA:4,1
DA:5,1
DA:6,1
DA:9,1
DA:10,1
DA:13,1
DA:14,1
DA:17,1
DA:18,1
DA:21,1
DA:22,1
DA:23,1
DA:26,1
DA:27,1
DA:28,1
DA:31,1
DA:32,1
DA:33,1
DA:35,1
DA:36,1
DA:37,1
DA:38,1
BRF:0
BRH:0
LF:22
LH:22
end_of_record
SF:/app/memory-core/src/episode/validation.rs
FN:24,_RNvMNtNtCsl8fXSKtwgoJ_14do_memory_core7episode10validationNtNtB4_7structs13ExecutionStep15validate_result
FN:10,_RNvMNtNtCsl8fXSKtwgoJ_14do_memory_core7episode10validationNtNtB4_7structs13ExecutionStep8validate
FN:54,_RNvMs_NtNtCsl8fXSKtwgoJ_14do_memory_core7episode10validationNtNtB6_7structs7Episode23validate_for_completion
FN:70,_RNvMs_NtNtCsl8fXSKtwgoJ_14do_memory_core7episode10validationNtNtB6_7structs7Episode7summary
FN:43,_RNvMs_NtNtCsl8fXSKtwgoJ_14do_memory_core7episode10validationNtNtB6_7structs7Episode8validate
FN:24,_RNvMNtNtCs46cA19QElOV_14do_memory_core7episode10validationNtNtB4_7structs13ExecutionStep15validate_result
FN:10,_RNvMNtNtCs46cA19QElOV_14do_memory_core7episode10validationNtNtB4_7structs13ExecutionStep8validate
FN:54,_RNvMs_NtNtCs46cA19QElOV_14do_memory_core7episode10validationNtNtB6_7structs7Episode23validate_for_completion
FN:70,_RNvMs_NtNtCs46cA19QElOV_14do_memory_core7episode10validationNtNtB6_7structs7Episode7summary
FN:43,_RNvMs_NtNtCs46cA19QElOV_14do_memory_core7episode10validationNtNtB6_7structs7Episode8validate
FNDA:0,_RNvMNtNtCsl8fXSKtwgoJ_14do_memory_core7episode10validationNtNtB4_7structs13ExecutionStep15validate_result
FNDA:0,_RNvMNtNtCsl8fXSKtwgoJ_14do_memory_core7episode10validationNtNtB4_7structs13ExecutionStep8validate
FNDA:0,_RNvMs_NtNtCsl8fXSKtwgoJ_14do_memory_core7episode10validationNtNtB6_7structs7Episode23validate_for_completion
FNDA:0,_RNvMs_NtNtCsl8fXSKtwgoJ_14do_memory_core7episode10validationNtNtB6_7structs7Episode7summary
FNDA:0,_RNvMs_NtNtCsl8fXSKtwgoJ_14do_memory_core7episode10validationNtNtB6_7structs7Episode8validate
FNDA:0,_RNvMNtNtCs46cA19QElOV_14do_memory_core7episode10validationNtNtB4_7structs13ExecutionStep15validate_result
FNDA:0,_RNvMNtNtCs46cA19QElOV_14do_memory_core7episode10validationNtNtB4_7structs13ExecutionStep8validate
FNDA:0,_RNvMs_NtNtCs46cA19QElOV_14do_memory_core7episode10validationNtNtB6_7structs7Episode23validate_for_completion
FNDA:0,_RNvMs_NtNtCs46cA19QElOV_14do_memory_core7episode10validationNtNtB6_7structs7Episode7summary
FNDA:0,_RNvMs_NtNtCs46cA19QElOV_14do_memory_core7episode10validationNtNtB6_7structs7Episode8validate
FNF:5
FNH:0
DA:10,0
DA:11,0
DA:12,0
DA:13,0
DA:14,0
DA:15,0
DA:16,0
DA:17,0
DA:18,0
DA:19,0
DA:20,0
DA:21,0
DA:24,0
DA:25,0
DA:26,0
DA:27,0
DA:28,0
DA:30,0
DA:31,0
DA:33,0
DA:36,0
DA:38,0
DA:43,0
DA:44,0
DA:45,0
DA:46,0
DA:47,0
DA:48,0
DA:49,0
DA:50,0
DA:51,0
DA:54,0
DA:55,0
DA:57,0
DA:58,0
DA:59,0
DA:61,0
DA:62,0
DA:65,0
DA:66,0
DA:70,0
DA:71,0
DA:75,0
DA:76,0
DA:77,0
DA:78,0
DA:81,0
BRF:0
BRH:0
LF:47
LH:0
end_of_record
SF:/app/memory-core/src/episodic/capacity/manager.rs
FN:189,_RNvMNtNtNtCsl8fXSKtwgoJ_14do_memory_core8episodic8capacity7managerNtB2_15CapacityManager12max_episodes
FN:123,_RNvMNtNtNtCsl8fXSKtwgoJ_14do_memory_core8episodic8capacity7managerNtB2_15CapacityManager15evict_if_needed
FN:195,_RNvMNtNtNtCsl8fXSKtwgoJ_14do_memory_core8episodic8capacity7managerNtB2_15CapacityManager15eviction_policy
FN:165,_RNvMNtNtNtCsl8fXSKtwgoJ_14do_memory_core8episodic8capacity7managerNtB2_15CapacityManager15relevance_score
FN:174,_RNvMNtNtNtCsl8fXSKtwgoJ_14do_memory_core8episodic8capacity7managerNtB2_15CapacityManager21extract_quality_score
FN:183,_RNvMNtNtNtCsl8fXSKtwgoJ_14do_memory_core8episodic8capacity7managerNtB2_15CapacityManager23calculate_recency_score
FN:58,_RNvMNtNtNtCsl8fXSKtwgoJ_14do_memory_core8episodic8capacity7managerNtB2_15CapacityManager3new
FN:87,_RNvMNtNtNtCsl8fXSKtwgoJ_14do_memory_core8episodic8capacity7managerNtB2_15CapacityManager9can_store
FN:201,_RNvXs_NtNtNtCsl8fXSKtwgoJ_14do_memory_core8episodic8capacity7managerNtB4_15CapacityManagerNtNtCs4kUJL3MZFFz_4core7default7Default7default
FN:165,_RNvMNtNtNtCs46cA19QElOV_14do_memory_core8episodic8capacity7managerNtB2_15CapacityManager15relevance_score
FN:174,_RNvMNtNtNtCs46cA19QElOV_14do_memory_core8episodic8capacity7managerNtB2_15CapacityManager21extract_quality_score
FN:183,_RNvMNtNtNtCs46cA19QElOV_14do_memory_core8episodic8capacity7managerNtB2_15CapacityManager23calculate_recency_score
FN:212,_RNvNtNtNtNtCs46cA19QElOV_14do_memory_core8episodic8capacity7manager5tests19create_test_episode
FN:189,_RNvMNtNtNtCs46cA19QElOV_14do_memory_core8episodic8capacity7managerNtB2_15CapacityManager12max_episodes
FN:123,_RNvMNtNtNtCs46cA19QElOV_14do_memory_core8episodic8capacity7managerNtB2_15CapacityManager15evict_if_needed
FN:195,_RNvMNtNtNtCs46cA19QElOV_14do_memory_core8episodic8capacity7managerNtB2_15CapacityManager15eviction_policy
FN:58,_RNvMNtNtNtCs46cA19QElOV_14do_memory_core8episodic8capacity7managerNtB2_15CapacityManager3new
FN:87,_RNvMNtNtNtCs46cA19QElOV_14do_memory_core8episodic8capacity7managerNtB2_15CapacityManager9can_store
FN:201,_RNvXs_NtNtNtCs46cA19QElOV_14do_memory_core8episodic8capacity7managerNtB4_15CapacityManagerNtNtCs4kUJL3MZFFz_4core7default7Default7default
FN:247,_RNvNtNtNtNtCs46cA19QElOV_14do_memory_core8episodic8capacity7manager5testss_26test_can_store_at_capacity
FN:253,_RNvNtNtNtNtCs46cA19QElOV_14do_memory_core8episodic8capacity7manager5testss_28test_can_store_over_capacity
FN:239,_RNvNtNtNtNtCs46cA19QElOV_14do_memory_core8episodic8capacity7manager5testss_29test_can_store_under_capacity
FN:232,_RNvNtNtNtNtCs46cA19QElOV_14do_memory_core8episodic8capacity7manager5testss_29test_default_capacity_manager
FN:225,_RNvNtNtNtNtCs46cA19QElOV_14do_memory_core8episodic8capacity7manager5testss_30test_capacity_manager_creation
FNDA:0,_RNvMNtNtNtCsl8fXSKtwgoJ_14do_memory_core8episodic8capacity7managerNtB2_15CapacityManager12max_episodes
FNDA:776,_RNvMNtNtNtCsl8fXSKtwgoJ_14do_memory_core8episodic8capacity7managerNtB2_15CapacityManager15evict_if_needed
FNDA:0,_RNvMNtNtNtCsl8fXSKtwgoJ_14do_memory_core8episodic8capacity7managerNtB2_15CapacityManager15eviction_policy
FNDA:256,_RNvMNtNtNtCsl8fXSKtwgoJ_14do_memory_core8episodic8capacity7managerNtB2_15CapacityManager15relevance_score
FNDA:256,_RNvMNtNtNtCsl8fXSKtwgoJ_14do_memory_core8episodic8capacity7managerNtB2_15CapacityManager21extract_quality_score
FNDA:256,_RNvMNtNtNtCsl8fXSKtwgoJ_14do_memory_core8episodic8capacity7managerNtB2_15CapacityManager23calculate_recency_score
FNDA:1797,_RNvMNtNtNtCsl8fXSKtwgoJ_14do_memory_core8episodic8capacity7managerNtB2_15CapacityManager3new
FNDA:285,_RNvMNtNtNtCsl8fXSKtwgoJ_14do_memory_core8episodic8capacity7managerNtB2_15CapacityManager9can_store
FNDA:0,_RNvXs_NtNtNtCsl8fXSKtwgoJ_14do_memory_core8episodic8capacity7managerNtB4_15CapacityManagerNtNtCs4kUJL3MZFFz_4core7default7Default7default
FNDA:0,_RNvMNtNtNtCs46cA19QElOV_14do_memory_core8episodic8capacity7managerNtB2_15CapacityManager15relevance_score
FNDA:0,_RNvMNtNtNtCs46cA19QElOV_14do_memory_core8episodic8capacity7managerNtB2_15CapacityManager21extract_quality_score
FNDA:0,_RNvMNtNtNtCs46cA19QElOV_14do_memory_core8episodic8capacity7managerNtB2_15CapacityManager23calculate_recency_score
FNDA:0,_RNvNtNtNtNtCs46cA19QElOV_14do_memory_core8episodic8capacity7manager5tests19create_test_episode
FNDA:2,_RNvMNtNtNtCs46cA19QElOV_14do_memory_core8episodic8capacity7managerNtB2_15CapacityManager12max_episodes
FNDA:0,_RNvMNtNtNtCs46cA19QElOV_14do_memory_core8episodic8capacity7managerNtB2_15CapacityManager15evict_if_needed
FNDA:2,_RNvMNtNtNtCs46cA19QElOV_14do_memory_core8episodic8capacity7managerNtB2_15CapacityManager15eviction_policy
FNDA:5,_RNvMNtNtNtCs46cA19QElOV_14do_memory_core8episodic8capacity7managerNtB2_15CapacityManager3new
FNDA:6,_RNvMNtNtNtCs46cA19QElOV_14do_memory_core8episodic8capacity7managerNtB2_15CapacityManager9can_store
FNDA:1,_RNvXs_NtNtNtCs46cA19QElOV_14do_memory_core8episodic8capacity7managerNtB4_15CapacityManagerNtNtCs4kUJL3MZFFz_4core7default7Default7default
FNDA:1,_RNvNtNtNtNtCs46cA19QElOV_14do_memory_core8episodic8capacity7manager5testss_26test_can_store_at_capacity
FNDA:1,_RNvNtNtNtNtCs46cA19QElOV_14do_memory_core8episodic8capacity7manager5testss_28test_can_store_over_capacity
FNDA:1,_RNvNtNtNtNtCs46cA19QElOV_14do_memory_core8episodic8capacity7manager5testss_29test_can_store_under_capacity
FNDA:1,_RNvNtNtNtNtCs46cA19QElOV_14do_memory_core8episodic8capacity7manager5testss_29test_default_capacity_manager
FNDA:1,_RNvNtNtNtNtCs46cA19QElOV_14do_memory_core8episodic8capacity7manager5testss_30test_capacity_manager_creation
FNF:15
FNH:14
DA:58,1802
DA:59,1802
DA:60,1802
DA:61,1802
DA:62,1802
DA:63,1802
DA:87,291
DA:88,291
DA:89,291
DA:123,776
DA:124,776
DA:125,776
DA:165,256
DA:166,256
DA:167,256
DA:174,256
DA:175,256
DA:176,256
DA:183,256
DA:184,256
DA:185,256
DA:189,2
DA:190,2
DA:191,2
DA:195,2
DA:196,2
DA:197,2
DA:201,1
DA:202,1
DA:203,1
DA:212,0
DA:213,0
DA:214,0
DA:215,0
DA:216,0
DA:217,0
DA:218,0
DA:219,0
DA:221,0
DA:222,0
DA:225,1
DA:226,1
DA:227,1
DA:228,1
DA:229,1
DA:232,1
DA:233,1
DA:234,1
DA:235,1
DA:236,1
DA:239,1
DA:240,1
DA:241,1
DA:242,1
DA:243,1
DA:244,1
DA:247,1
DA:248,1
DA:249,1
DA:250,1
DA:253,1
DA:254,1
DA:255,1
DA:256,1
DA:257,1
BRF:0
BRH:0
LF:65
LH:55
end_of_record
SF:/app/memory-core/src/episodic/capacity/manager/eviction.rs
FN:78,_RNCNvNtNtNtNtCsl8fXSKtwgoJ_14do_memory_core8episodic8capacity7manager8eviction24evict_relevance_weighted0Bb_
FN:85,_RNCNvNtNtNtNtCsl8fXSKtwgoJ_14do_memory_core8episodic8capacity7manager8eviction24evict_relevance_weighteds_0Bb_
FN:55,_RNCNvNtNtNtNtCsl8fXSKtwgoJ_14do_memory_core8episodic8capacity7manager8eviction9evict_lru0Bb_
FN:62,_RNCNvNtNtNtNtCsl8fXSKtwgoJ_14do_memory_core8episodic8capacity7manager8eviction9evict_lrus_0Bb_
FN:28,_RNvNtNtNtNtCsl8fXSKtwgoJ_14do_memory_core8episodic8capacity7manager8eviction15evict_if_needed
FN:75,_RNvNtNtNtNtCsl8fXSKtwgoJ_14do_memory_core8episodic8capacity7manager8eviction24evict_relevance_weighted
FN:52,_RNvNtNtNtNtCsl8fXSKtwgoJ_14do_memory_core8episodic8capacity7manager8eviction9evict_lru
FN:28,_RNvNtNtNtNtCs46cA19QElOV_14do_memory_core8episodic8capacity7manager8eviction15evict_if_needed
FN:75,_RNvNtNtNtNtCs46cA19QElOV_14do_memory_core8episodic8capacity7manager8eviction24evict_relevance_weighted
FN:52,_RNvNtNtNtNtCs46cA19QElOV_14do_memory_core8episodic8capacity7manager8eviction9evict_lru
FN:101,_RNvNtNtNtNtNtCs46cA19QElOV_14do_memory_core8episodic8capacity7manager8eviction5tests19create_test_episode
FN:146,_RNvNtNtNtNtNtCs46cA19QElOV_14do_memory_core8episodic8capacity7manager8eviction5testss_17test_lru_eviction
FN:216,_RNvNtNtNtNtNtCs46cA19QElOV_14do_memory_core8episodic8capacity7manager8eviction5testss_18test_zero_capacity
FN:225,_RNvNtNtNtNtNtCs46cA19QElOV_14do_memory_core8episodic8capacity7manager8eviction5testss_28test_single_episode_capacity
FN:124,_RNvNtNtNtNtNtCs46cA19QElOV_14do_memory_core8episodic8capacity7manager8eviction5testss_32test_evict_if_needed_at_capacity
FN:168,_RNvNtNtNtNtNtCs46cA19QElOV_14do_memory_core8episodic8capacity7manager8eviction5testss_32test_relevance_weighted_eviction
FN:135,_RNvNtNtNtNtNtCs46cA19QElOV_14do_memory_core8episodic8capacity7manager8eviction5testss_34test_evict_if_needed_over_capacity
FN:114,_RNvNtNtNtNtNtCs46cA19QElOV_14do_memory_core8episodic8capacity7manager8eviction5testss_35test_evict_if_needed_under_capacity
FN:232,_RNvNtNtNtNtNtCs46cA19QElOV_14do_memory_core8episodic8capacity7manager8eviction5testss_39test_exactly_at_capacity_needs_eviction
FN:78,_RNCNvNtNtNtNtCs46cA19QElOV_14do_memory_core8episodic8capacity7manager8eviction24evict_relevance_weighted0Bb_
FN:85,_RNCNvNtNtNtNtCs46cA19QElOV_14do_memory_core8episodic8capacity7manager8eviction24evict_relevance_weighteds_0Bb_
FN:55,_RNCNvNtNtNtNtCs46cA19QElOV_14do_memory_core8episodic8capacity7manager8eviction9evict_lru0Bb_
FN:62,_RNCNvNtNtNtNtCs46cA19QElOV_14do_memory_core8episodic8capacity7manager8eviction9evict_lrus_0Bb_
FN:126,_RNCNvNtNtNtNtNtCs46cA19QElOV_14do_memory_core8episodic8capacity7manager8eviction5testss_32test_evict_if_needed_at_capacity0Bd_
FN:137,_RNCNvNtNtNtNtNtCs46cA19QElOV_14do_memory_core8episodic8capacity7manager8eviction5testss_34test_evict_if_needed_over_capacity0Bd_
FN:116,_RNCNvNtNtNtNtNtCs46cA19QElOV_14do_memory_core8episodic8capacity7manager8eviction5testss_35test_evict_if_needed_under_capacity0Bd_
FN:234,_RNCNvNtNtNtNtNtCs46cA19QElOV_14do_memory_core8episodic8capacity7manager8eviction5testss_39test_exactly_at_capacity_needs_eviction0Bd_
FNDA:1945,_RNCNvNtNtNtNtCsl8fXSKtwgoJ_14do_memory_core8episodic8capacity7manager8eviction24evict_relevance_weighted0Bb_
FNDA:1740,_RNCNvNtNtNtNtCsl8fXSKtwgoJ_14do_memory_core8episodic8capacity7manager8eviction24evict_relevance_weighteds_0Bb_
FNDA:1892,_RNCNvNtNtNtNtCsl8fXSKtwgoJ_14do_memory_core8episodic8capacity7manager8eviction9evict_lru0Bb_
FNDA:1708,_RNCNvNtNtNtNtCsl8fXSKtwgoJ_14do_memory_core8episodic8capacity7manager8eviction9evict_lrus_0Bb_
FNDA:776,_RNvNtNtNtNtCsl8fXSKtwgoJ_14do_memory_core8episodic8capacity7manager8eviction15evict_if_needed
FNDA:208,_RNvNtNtNtNtCsl8fXSKtwgoJ_14do_memory_core8episodic8capacity7manager8eviction24evict_relevance_weighted
FNDA:193,_RNvNtNtNtNtCsl8fXSKtwgoJ_14do_memory_core8episodic8capacity7manager8eviction9evict_lru
FNDA:8,_RNvNtNtNtNtCs46cA19QElOV_14do_memory_core8episodic8capacity7manager8eviction15evict_if_needed
FNDA:1,_RNvNtNtNtNtCs46cA19QElOV_14do_memory_core8episodic8capacity7manager8eviction24evict_relevance_weighted
FNDA:6,_RNvNtNtNtNtCs46cA19QElOV_14do_memory_core8episodic8capacity7manager8eviction9evict_lru
FNDA:26,_RNvNtNtNtNtNtCs46cA19QElOV_14do_memory_core8episodic8capacity7manager8eviction5tests19create_test_episode
FNDA:1,_RNvNtNtNtNtNtCs46cA19QElOV_14do_memory_core8episodic8capacity7manager8eviction5testss_17test_lru_eviction
FNDA:1,_RNvNtNtNtNtNtCs46cA19QElOV_14do_memory_core8episodic8capacity7manager8eviction5testss_18test_zero_capacity
FNDA:1,_RNvNtNtNtNtNtCs46cA19QElOV_14do_memory_core8episodic8capacity7manager8eviction5testss_28test_single_episode_capacity
FNDA:1,_RNvNtNtNtNtNtCs46cA19QElOV_14do_memory_core8episodic8capacity7manager8eviction5testss_32test_evict_if_needed_at_capacity
FNDA:1,_RNvNtNtNtNtNtCs46cA19QElOV_14do_memory_core8episodic8capacity7manager8eviction5testss_32test_relevance_weighted_eviction
FNDA:1,_RNvNtNtNtNtNtCs46cA19QElOV_14do_memory_core8episodic8capacity7manager8eviction5testss_34test_evict_if_needed_over_capacity
FNDA:1,_RNvNtNtNtNtNtCs46cA19QElOV_14do_memory_core8episodic8capacity7manager8eviction5testss_35test_evict_if_needed_under_capacity
FNDA:1,_RNvNtNtNtNtNtCs46cA19QElOV_14do_memory_core8episodic8capacity7manager8eviction5testss_39test_exactly_at_capacity_needs_eviction
FNDA:3,_RNCNvNtNtNtNtCs46cA19QElOV_14do_memory_core8episodic8capacity7manager8eviction24evict_relevance_weighted0Bb_
FNDA:2,_RNCNvNtNtNtNtCs46cA19QElOV_14do_memory_core8episodic8capacity7manager8eviction24evict_relevance_weighteds_0Bb_
FNDA:18,_RNCNvNtNtNtNtCs46cA19QElOV_14do_memory_core8episodic8capacity7manager8eviction9evict_lru0Bb_
FNDA:12,_RNCNvNtNtNtNtCs46cA19QElOV_14do_memory_core8episodic8capacity7manager8eviction9evict_lrus_0Bb_
FNDA:3,_RNCNvNtNtNtNtNtCs46cA19QElOV_14do_memory_core8episodic8capacity7manager8eviction5testss_32test_evict_if_needed_at_capacity0Bd_
FNDA:5,_RNCNvNtNtNtNtNtCs46cA19QElOV_14do_memory_core8episodic8capacity7manager8eviction5testss_34test_evict_if_needed_over_capacity0Bd_
FNDA:5,_RNCNvNtNtNtNtNtCs46cA19QElOV_14do_memory_core8episodic8capacity7manager8eviction5testss_35test_evict_if_needed_under_capacity0Bd_
FNDA:5,_RNCNvNtNtNtNtNtCs46cA19QElOV_14do_memory_core8episodic8capacity7manager8eviction5testss_39test_exactly_at_capacity_needs_eviction0Bd_
FNF:20
FNH:20
DA:28,784
DA:29,784
DA:30,784
DA:31,784
DA:32,784
DA:33,784
DA:36,784
DA:37,376
DA:38,408
DA:41,408
DA:43,408
DA:44,199
DA:45,209
DA:47,784
DA:52,199
DA:53,199
DA:54,199
DA:55,1910
DA:56,1910
DA:57,1910
DA:58,1910
DA:59,199
DA:62,1720
DA:65,199
DA:66,199
DA:67,199
DA:68,199
DA:69,199
DA:70,199
DA:75,209
DA:76,209
DA:77,209
DA:78,1948
DA:79,1948
DA:80,1948
DA:81,1948
DA:82,209
DA:85,1742
DA:88,209
DA:89,209
DA:90,209
DA:91,209
DA:92,209
DA:93,209
DA:101,26
DA:102,26
DA:103,26
DA:104,26
DA:105,26
DA:106,26
DA:107,26
DA:108,26
DA:110,26
DA:111,26
DA:114,1
DA:115,1
DA:116,5
DA:117,1
DA:119,1
DA:120,1
DA:121,1
DA:124,1
DA:125,1
DA:126,3
DA:127,1
DA:129,1
DA:131,1
DA:132,1
DA:135,1
DA:136,1
DA:137,5
DA:138,1
DA:140,1
DA:142,1
DA:143,1
DA:146,1
DA:150,1
DA:151,1
DA:153,1
DA:154,1
DA:156,1
DA:158,1
DA:159,1
DA:162,1
DA:163,1
DA:164,1
DA:165,1
DA:168,1
DA:170,1
DA:171,1
DA:172,1
DA:173,1
DA:174,1
DA:175,1
DA:176,1
DA:177,1
DA:178,1
DA:180,1
DA:181,1
DA:182,1
DA:183,1
DA:184,1
DA:185,1
DA:186,1
DA:187,1
DA:188,1
DA:190,1
DA:191,1
DA:192,1
DA:193,1
DA:194,1
DA:195,1
DA:196,1
DA:197,1
DA:198,1
DA:200,1
DA:201,1
DA:202,1
DA:203,1
DA:206,1
DA:207,1
DA:210,1
DA:211,1
DA:212,1
DA:213,1
DA:216,1
DA:217,1
DA:218,1
DA:221,1
DA:222,1
DA:225,1
DA:226,1
DA:227,1
DA:228,1
DA:229,1
DA:232,1
DA:233,1
DA:234,5
DA:235,1
DA:238,1
DA:239,1
DA:240,1
BRF:0
BRH:0
LF:150
LH:150
end_of_record
SF:/app/memory-core/src/episodic/capacity/manager/scoring.rs
FN:59,_RNvNtNtNtNtCsl8fXSKtwgoJ_14do_memory_core8episodic8capacity7manager7scoring21extract_quality_score
FN:88,_RNvNtNtNtNtCsl8fXSKtwgoJ_14do_memory_core8episodic8capacity7manager7scoring23calculate_recency_score
FN:46,_RNvNtNtNtNtCsl8fXSKtwgoJ_14do_memory_core8episodic8capacity7manager7scoring25calculate_relevance_score
FN:112,_RNvNtNtNtNtNtCs46cA19QElOV_14do_memory_core8episodic8capacity7manager7scoring5tests19create_test_episode
FN:194,_RNvNtNtNtNtNtCs46cA19QElOV_14do_memory_core8episodic8capacity7manager7scoring5testss_26test_quality_score_default
FN:176,_RNvNtNtNtNtNtCs46cA19QElOV_14do_memory_core8episodic8capacity7manager7scoring5testss_30test_quality_score_from_reward
FN:145,_RNvNtNtNtNtNtCs46cA19QElOV_14do_memory_core8episodic8capacity7manager7scoring5testss_30test_recency_score_new_episode
FN:158,_RNvNtNtNtNtNtCs46cA19QElOV_14do_memory_core8episodic8capacity7manager7scoring5testss_30test_recency_score_old_episode
FN:125,_RNvNtNtNtNtNtCs46cA19QElOV_14do_memory_core8episodic8capacity7manager7scoring5testss_32test_relevance_score_calculation
FN:59,_RNvNtNtNtNtCs46cA19QElOV_14do_memory_core8episodic8capacity7manager7scoring21extract_quality_score
FN:88,_RNvNtNtNtNtCs46cA19QElOV_14do_memory_core8episodic8capacity7manager7scoring23calculate_recency_score
FN:46,_RNvNtNtNtNtCs46cA19QElOV_14do_memory_core8episodic8capacity7manager7scoring25calculate_relevance_score
FNDA:2457,_RNvNtNtNtNtCsl8fXSKtwgoJ_14do_memory_core8episodic8capacity7manager7scoring21extract_quality_score
FNDA:2457,_RNvNtNtNtNtCsl8fXSKtwgoJ_14do_memory_core8episodic8capacity7manager7scoring23calculate_recency_score
FNDA:2201,_RNvNtNtNtNtCsl8fXSKtwgoJ_14do_memory_core8episodic8capacity7manager7scoring25calculate_relevance_score
FNDA:5,_RNvNtNtNtNtNtCs46cA19QElOV_14do_memory_core8episodic8capacity7manager7scoring5tests19create_test_episode
FNDA:1,_RNvNtNtNtNtNtCs46cA19QElOV_14do_memory_core8episodic8capacity7manager7scoring5testss_26test_quality_score_default
FNDA:1,_RNvNtNtNtNtNtCs46cA19QElOV_14do_memory_core8episodic8capacity7manager7scoring5testss_30test_quality_score_from_reward
FNDA:1,_RNvNtNtNtNtNtCs46cA19QElOV_14do_memory_core8episodic8capacity7manager7scoring5testss_30test_recency_score_new_episode
FNDA:1,_RNvNtNtNtNtNtCs46cA19QElOV_14do_memory_core8episodic8capacity7manager7scoring5testss_30test_recency_score_old_episode
FNDA:1,_RNvNtNtNtNtNtCs46cA19QElOV_14do_memory_core8episodic8capacity7manager7scoring5testss_32test_relevance_score_calculation
FNDA:6,_RNvNtNtNtNtCs46cA19QElOV_14do_memory_core8episodic8capacity7manager7scoring21extract_quality_score
FNDA:6,_RNvNtNtNtNtCs46cA19QElOV_14do_memory_core8episodic8capacity7manager7scoring23calculate_recency_score
FNDA:4,_RNvNtNtNtNtCs46cA19QElOV_14do_memory_core8episodic8capacity7manager7scoring25calculate_relevance_score
FNF:9
FNH:9
DA:46,2205
DA:47,2205
DA:48,2205
DA:51,2205
DA:52,2205
DA:59,2463
DA:61,2463
DA:65,22
DA:66,22
DA:68,22
DA:69,0
DA:70,2441
DA:73,2441
DA:76,381
DA:77,2060
DA:80,2060
DA:81,2463
DA:88,2463
DA:91,2463
DA:92,2463
DA:95,2463
DA:96,2463
DA:100,2463
DA:101,2463
DA:103,2463
DA:104,2463
DA:112,5
DA:113,5
DA:114,5
DA:115,5
DA:116,5
DA:117,5
DA:118,5
DA:119,5
DA:121,5
DA:122,5
DA:125,1
DA:126,1
DA:127,1
DA:128,1
DA:129,1
DA:130,1
DA:131,1
DA:132,1
DA:133,1
DA:134,1
DA:135,1
DA:136,1
DA:137,1
DA:138,1
DA:140,1
DA:141,1
DA:142,1
DA:145,1
DA:146,1
DA:147,1
DA:148,1
DA:149,1
DA:150,1
DA:152,1
DA:154,1
DA:155,1
DA:158,1
DA:159,1
DA:161,1
DA:162,1
DA:163,1
DA:164,1
DA:165,1
DA:166,1
DA:168,1
DA:170,1
DA:172,1
DA:173,1
DA:176,1
DA:177,1
DA:178,1
DA:179,1
DA:180,1
DA:181,1
DA:182,1
DA:183,1
DA:184,1
DA:185,1
DA:187,1
DA:188,1
DA:190,1
DA:191,1
DA:194,1
DA:195,1
DA:198,1
DA:199,1
DA:200,1
BRF:0
BRH:0
LF:93
LH:92
end_of_record
SF:/app/memory-core/src/episodic/capacity/policy.rs
FN:31,_RNvNtNtNtNtCs46cA19QElOV_14do_memory_core8episodic8capacity6policy5testss_25test_eviction_policy_enum
FNDA:1,_RNvNtNtNtNtCs46cA19QElOV_14do_memory_core8episodic8capacity6policy5testss_25test_eviction_policy_enum
FNF:1
FNH:1
DA:31,1
DA:32,1
DA:33,1
DA:34,1
BRF:0
BRH:0
LF:4
LH:4
end_of_record
SF:/app/memory-core/src/error/cache.rs
FN:54,_RNvXNtNtCsl8fXSKtwgoJ_14do_memory_core5error5cacheNtB2_10CacheErrorNtNtCs4kUJL3MZFFz_4core3fmt7Display3fmt
FN:54,_RNvXNtNtCs46cA19QElOV_14do_memory_core5error5cacheNtB2_10CacheErrorNtNtCs4kUJL3MZFFz_4core3fmt7Display3fmt
FN:158,_RNvNtNtNtCs46cA19QElOV_14do_memory_core5error5cache5testss_19test_error_equality
FN:180,_RNvNtNtNtCs46cA19QElOV_14do_memory_core5error5cache5testss_25test_error_is_error_trait
FN:98,_RNvNtNtNtCs46cA19QElOV_14do_memory_core5error5cache5testss_26test_entry_too_large_error
FN:136,_RNvNtNtNtCs46cA19QElOV_14do_memory_core5error5cache5testss_26test_eviction_failed_error
FN:112,_RNvNtNtNtCs46cA19QElOV_14do_memory_core5error5cache5testss_31test_serialization_failed_error
FN:146,_RNvNtNtNtCs46cA19QElOV_14do_memory_core5error5cache5testss_32test_invalid_configuration_error
FN:124,_RNvNtNtNtCs46cA19QElOV_14do_memory_core5error5cache5testss_33test_deserialization_failed_error
FNDA:6,_RNvXNtNtCsl8fXSKtwgoJ_14do_memory_core5error5cacheNtB2_10CacheErrorNtNtCs4kUJL3MZFFz_4core3fmt7Display3fmt
FNDA:6,_RNvXNtNtCs46cA19QElOV_14do_memory_core5error5cacheNtB2_10CacheErrorNtNtCs4kUJL3MZFFz_4core3fmt7Display3fmt
FNDA:1,_RNvNtNtNtCs46cA19QElOV_14do_memory_core5error5cache5testss_19test_error_equality
FNDA:1,_RNvNtNtNtCs46cA19QElOV_14do_memory_core5error5cache5testss_25test_error_is_error_trait
FNDA:1,_RNvNtNtNtCs46cA19QElOV_14do_memory_core5error5cache5testss_26test_entry_too_large_error
FNDA:1,_RNvNtNtNtCs46cA19QElOV_14do_memory_core5error5cache5testss_26test_eviction_failed_error
FNDA:1,_RNvNtNtNtCs46cA19QElOV_14do_memory_core5error5cache5testss_31test_serialization_failed_error
FNDA:1,_RNvNtNtNtCs46cA19QElOV_14do_memory_core5error5cache5testss_32test_invalid_configuration_error
FNDA:1,_RNvNtNtNtCs46cA19QElOV_14do_memory_core5error5cache5testss_33test_deserialization_failed_error
FNF:8
FNH:8
DA:54,12
DA:55,12
DA:57,2
DA:58,2
DA:59,2
DA:61,2
DA:62,2
DA:66,2
DA:67,2
DA:69,2
DA:70,2
DA:72,3
DA:73,3
DA:75,2
DA:76,2
DA:77,2
DA:81,1
DA:82,1
DA:83,1
DA:88,12
DA:98,1
DA:99,1
DA:100,1
DA:101,1
DA:102,1
DA:103,1
DA:104,1
DA:105,1
DA:106,1
DA:107,1
DA:108,1
DA:109,1
DA:112,1
DA:113,1
DA:114,1
DA:115,1
DA:116,1
DA:117,1
DA:118,1
DA:119,1
DA:120,1
DA:121,1
DA:124,1
DA:125,1
DA:126,1
DA:127,1
DA:128,1
DA:129,1
DA:130,1
DA:131,1
DA:132,1
DA:133,1
DA:136,1
DA:137,1
DA:138,1
DA:139,1
DA:140,1
DA:141,1
DA:142,1
DA:143,1
DA:146,1
DA:147,1
DA:148,1
DA:149,1
DA:150,1
DA:151,1
DA:152,1
DA:153,1
DA:154,1
DA:155,1
DA:158,1
DA:159,1
DA:160,1
DA:161,1
DA:162,1
DA:163,1
DA:164,1
DA:165,1
DA:166,1
DA:167,1
DA:168,1
DA:169,1
DA:170,1
DA:171,1
DA:172,1
DA:173,1
DA:175,1
DA:176,1
DA:177,1
DA:180,1
DA:181,1
DA:182,1
DA:183,1
DA:184,1
DA:185,1
BRF:0
BRH:0
LF:95
LH:95
end_of_record
SF:/app/memory-core/src/error/mod.rs
FN:136,_RNvMNtCsl8fXSKtwgoJ_14do_memory_core5errorNtB2_5Error14as_cache_error
FN:121,_RNvMNtCsl8fXSKtwgoJ_14do_memory_core5errorNtB2_5Error14is_cache_error
FN:78,_RNvMNtCsl8fXSKtwgoJ_14do_memory_core5errorNtB2_5Error14is_recoverable
FN:127,_RNvMNtCsl8fXSKtwgoJ_14do_memory_core5errorNtB2_5Error21as_relationship_error
FN:115,_RNvMNtCsl8fXSKtwgoJ_14do_memory_core5errorNtB2_5Error21is_relationship_error
FN:232,_RNvNtNtCs46cA19QElOV_14do_memory_core5error5testss_18test_error_display
FN:185,_RNvNtNtCs46cA19QElOV_14do_memory_core5error5testss_19test_as_cache_error
FN:171,_RNvNtNtCs46cA19QElOV_14do_memory_core5error5testss_26test_as_relationship_error
FN:159,_RNvNtNtCs46cA19QElOV_14do_memory_core5error5testss_27test_error_from_cache_error
FN:199,_RNvNtNtCs46cA19QElOV_14do_memory_core5error5testss_29test_recoverable_cache_errors
FN:149,_RNvNtNtCs46cA19QElOV_14do_memory_core5error5testss_34test_error_from_relationship_error
FN:219,_RNvNtNtCs46cA19QElOV_14do_memory_core5error5testss_36test_recoverable_relationship_errors
FN:136,_RNvMNtCs46cA19QElOV_14do_memory_core5errorNtB2_5Error14as_cache_error
FN:121,_RNvMNtCs46cA19QElOV_14do_memory_core5errorNtB2_5Error14is_cache_error
FN:78,_RNvMNtCs46cA19QElOV_14do_memory_core5errorNtB2_5Error14is_recoverable
FN:127,_RNvMNtCs46cA19QElOV_14do_memory_core5errorNtB2_5Error21as_relationship_error
FN:115,_RNvMNtCs46cA19QElOV_14do_memory_core5errorNtB2_5Error21is_relationship_error
FNDA:2,_RNvMNtCsl8fXSKtwgoJ_14do_memory_core5errorNtB2_5Error14as_cache_error
FNDA:5,_RNvMNtCsl8fXSKtwgoJ_14do_memory_core5errorNtB2_5Error14is_cache_error
FNDA:31,_RNvMNtCsl8fXSKtwgoJ_14do_memory_core5errorNtB2_5Error14is_recoverable
FNDA:2,_RNvMNtCsl8fXSKtwgoJ_14do_memory_core5errorNtB2_5Error21as_relationship_error
FNDA:5,_RNvMNtCsl8fXSKtwgoJ_14do_memory_core5errorNtB2_5Error21is_relationship_error
FNDA:1,_RNvNtNtCs46cA19QElOV_14do_memory_core5error5testss_18test_error_display
FNDA:1,_RNvNtNtCs46cA19QElOV_14do_memory_core5error5testss_19test_as_cache_error
FNDA:1,_RNvNtNtCs46cA19QElOV_14do_memory_core5error5testss_26test_as_relationship_error
FNDA:1,_RNvNtNtCs46cA19QElOV_14do_memory_core5error5testss_27test_error_from_cache_error
FNDA:1,_RNvNtNtCs46cA19QElOV_14do_memory_core5error5testss_29test_recoverable_cache_errors
FNDA:1,_RNvNtNtCs46cA19QElOV_14do_memory_core5error5testss_34test_error_from_relationship_error
FNDA:1,_RNvNtNtCs46cA19QElOV_14do_memory_core5error5testss_36test_recoverable_relationship_errors
FNDA:3,_RNvMNtCs46cA19QElOV_14do_memory_core5errorNtB2_5Error14as_cache_error
FNDA:1,_RNvMNtCs46cA19QElOV_14do_memory_core5errorNtB2_5Error14is_cache_error
FNDA:51,_RNvMNtCs46cA19QElOV_14do_memory_core5errorNtB2_5Error14is_recoverable
FNDA:3,_RNvMNtCs46cA19QElOV_14do_memory_core5errorNtB2_5Error21as_relationship_error
FNDA:1,_RNvMNtCs46cA19QElOV_14do_memory_core5errorNtB2_5Error21is_relationship_error
FNF:12
FNH:12
DA:78,82
DA:79,82
DA:87,47
DA:98,16
DA:100,9
DA:101,9
DA:104,10
DA:105,10
DA:111,82
DA:115,6
DA:116,6
DA:117,6
DA:121,6
DA:122,6
DA:123,6
DA:127,5
DA:128,5
DA:129,3
DA:130,2
DA:132,5
DA:136,5
DA:137,5
DA:138,3
DA:139,2
DA:141,5
DA:149,1
DA:150,1
DA:151,1
DA:152,1
DA:153,1
DA:154,1
DA:155,1
DA:156,1
DA:159,1
DA:160,1
DA:161,1
DA:162,1
DA:163,1
DA:164,1
DA:165,1
DA:166,1
DA:167,1
DA:168,1
DA:171,1
DA:172,1
DA:173,1
DA:174,1
DA:175,1
DA:177,1
DA:178,1
DA:180,1
DA:181,1
DA:182,1
DA:185,1
DA:186,1
DA:187,1
DA:188,1
DA:189,1
DA:191,1
DA:192,1
DA:194,1
DA:195,1
DA:196,1
DA:199,1
DA:200,1
DA:201,1
DA:202,1
DA:203,1
DA:205,1
DA:206,1
DA:207,1
DA:208,1
DA:209,1
DA:211,1
DA:212,1
DA:213,1
DA:214,1
DA:215,1
DA:216,1
DA:219,1
DA:220,1
DA:221,1
DA:222,1
DA:223,1
DA:225,1
DA:226,1
DA:227,1
DA:228,1
DA:229,1
DA:232,1
DA:233,1
DA:234,1
DA:235,1
DA:236,1
DA:237,1
DA:238,1
DA:239,1
BRF:0
BRH:0
LF:97
LH:97
end_of_record
SF:/app/memory-core/src/error/relationship.rs
FN:51,_RNvXNtNtCsl8fXSKtwgoJ_14do_memory_core5error12relationshipNtB2_17RelationshipErrorNtNtCs4kUJL3MZFFz_4core3fmt7Display3fmt
FN:166,_RNvNtNtNtCs46cA19QElOV_14do_memory_core5error12relationship5testss_19test_error_equality
FN:104,_RNvNtNtNtCs46cA19QElOV_14do_memory_core5error12relationship5testss_20test_duplicate_error
FN:135,_RNvNtNtNtCs46cA19QElOV_14do_memory_core5error12relationship5testss_20test_not_found_error
FN:146,_RNvNtNtNtCs46cA19QElOV_14do_memory_core5error12relationship5testss_23test_invalid_type_error
FN:120,_RNvNtNtNtCs46cA19QElOV_14do_memory_core5error12relationship5testss_25test_cycle_detected_error
FN:179,_RNvNtNtNtCs46cA19QElOV_14do_memory_core5error12relationship5testss_25test_error_is_error_trait
FN:95,_RNvNtNtNtCs46cA19QElOV_14do_memory_core5error12relationship5testss_25test_self_reference_error
FN:156,_RNvNtNtNtCs46cA19QElOV_14do_memory_core5error12relationship5testss_28test_validation_failed_error
FN:51,_RNvXNtNtCs46cA19QElOV_14do_memory_core5error12relationshipNtB2_17RelationshipErrorNtNtCs4kUJL3MZFFz_4core3fmt7Display3fmt
FNDA:6,_RNvXNtNtCsl8fXSKtwgoJ_14do_memory_core5error12relationshipNtB2_17RelationshipErrorNtNtCs4kUJL3MZFFz_4core3fmt7Display3fmt
FNDA:1,_RNvNtNtNtCs46cA19QElOV_14do_memory_core5error12relationship5testss_19test_error_equality
FNDA:1,_RNvNtNtNtCs46cA19QElOV_14do_memory_core5error12relationship5testss_20test_duplicate_error
FNDA:1,_RNvNtNtNtCs46cA19QElOV_14do_memory_core5error12relationship5testss_20test_not_found_error
FNDA:1,_RNvNtNtNtCs46cA19QElOV_14do_memory_core5error12relationship5testss_23test_invalid_type_error
FNDA:1,_RNvNtNtNtCs46cA19QElOV_14do_memory_core5error12relationship5testss_25test_cycle_detected_error
FNDA:1,_RNvNtNtNtCs46cA19QElOV_14do_memory_core5error12relationship5testss_25test_error_is_error_trait
FNDA:1,_RNvNtNtNtCs46cA19QElOV_14do_memory_core5error12relationship5testss_25test_self_reference_error
FNDA:1,_RNvNtNtNtCs46cA19QElOV_14do_memory_core5error12relationship5testss_28test_validation_failed_error
FNDA:8,_RNvXNtNtCs46cA19QElOV_14do_memory_core5error12relationshipNtB2_17RelationshipErrorNtNtCs4kUJL3MZFFz_4core3fmt7Display3fmt
FNF:9
FNH:9
DA:51,14
DA:52,14
DA:53,4
DA:54,4
DA:55,4
DA:59,2
DA:60,2
DA:61,2
DA:65,2
DA:66,2
DA:67,8
DA:68,8
DA:69,6
DA:70,2
DA:71,8
DA:73,2
DA:75,2
DA:76,2
DA:78,2
DA:79,2
DA:81,2
DA:82,2
DA:85,14
DA:95,1
DA:96,1
DA:97,1
DA:98,1
DA:99,1
DA:100,1
DA:101,1
DA:104,1
DA:105,1
DA:106,1
DA:107,1
DA:108,1
DA:109,1
DA:110,1
DA:111,1
DA:112,1
DA:113,1
DA:114,1
DA:115,1
DA:116,1
DA:117,1
DA:120,1
DA:121,1
DA:122,1
DA:123,1
DA:124,1
DA:125,1
DA:126,1
DA:127,1
DA:128,1
DA:129,1
DA:130,1
DA:131,1
DA:132,1
DA:135,1
DA:136,1
DA:137,1
DA:138,1
DA:139,1
DA:140,1
DA:141,1
DA:142,1
DA:143,1
DA:146,1
DA:147,1
DA:148,1
DA:149,1
DA:150,1
DA:151,1
DA:152,1
DA:153,1
DA:156,1
DA:157,1
DA:158,1
DA:159,1
DA:160,1
DA:161,1
DA:162,1
DA:163,1
DA:166,1
DA:167,1
DA:168,1
DA:170,1
DA:171,1
DA:172,1
DA:174,1
DA:175,1
DA:176,1
DA:179,1
DA:180,1
DA:181,1
DA:182,1
DA:183,1
DA:184,1
BRF:0
BRH:0
LF:97
LH:97
end_of_record
SF:/app/memory-core/src/extraction/extractor.rs
FN:44,_RNvMs_NtNtCsl8fXSKtwgoJ_14do_memory_core10extraction9extractorNtB4_16PatternExtractor15with_thresholds
FN:105,_RNvMs_NtNtCsl8fXSKtwgoJ_14do_memory_core10extraction9extractorNtB4_16PatternExtractor25calculate_average_latency
FN:94,_RNvMs_NtNtCsl8fXSKtwgoJ_14do_memory_core10extraction9extractorNtB4_16PatternExtractor27calculate_step_success_rate
FN:34,_RNvMs_NtNtCsl8fXSKtwgoJ_14do_memory_core10extraction9extractorNtB4_16PatternExtractor3new
FN:58,_RNvMs_NtNtCsl8fXSKtwgoJ_14do_memory_core10extraction9extractorNtB4_16PatternExtractor7extract
FN:26,_RNvXNtNtCsl8fXSKtwgoJ_14do_memory_core10extraction9extractorNtB2_16PatternExtractorNtNtCs4kUJL3MZFFz_4core7default7Default7default
FN:26,_RNvXNtNtCs46cA19QElOV_14do_memory_core10extraction9extractorNtB2_16PatternExtractorNtNtCs4kUJL3MZFFz_4core7default7Default7default
FN:44,_RNvMs_NtNtCs46cA19QElOV_14do_memory_core10extraction9extractorNtB4_16PatternExtractor15with_thresholds
FN:105,_RNvMs_NtNtCs46cA19QElOV_14do_memory_core10extraction9extractorNtB4_16PatternExtractor25calculate_average_latency
FN:94,_RNvMs_NtNtCs46cA19QElOV_14do_memory_core10extraction9extractorNtB4_16PatternExtractor27calculate_step_success_rate
FN:34,_RNvMs_NtNtCs46cA19QElOV_14do_memory_core10extraction9extractorNtB4_16PatternExtractor3new
FN:58,_RNvMs_NtNtCs46cA19QElOV_14do_memory_core10extraction9extractorNtB4_16PatternExtractor7extract
FNDA:146,_RNvMs_NtNtCsl8fXSKtwgoJ_14do_memory_core10extraction9extractorNtB4_16PatternExtractor15with_thresholds
FNDA:2228,_RNvMs_NtNtCsl8fXSKtwgoJ_14do_memory_core10extraction9extractorNtB4_16PatternExtractor25calculate_average_latency
FNDA:6767,_RNvMs_NtNtCsl8fXSKtwgoJ_14do_memory_core10extraction9extractorNtB4_16PatternExtractor27calculate_step_success_rate
FNDA:8,_RNvMs_NtNtCsl8fXSKtwgoJ_14do_memory_core10extraction9extractorNtB4_16PatternExtractor3new
FNDA:2288,_RNvMs_NtNtCsl8fXSKtwgoJ_14do_memory_core10extraction9extractorNtB4_16PatternExtractor7extract
FNDA:0,_RNvXNtNtCsl8fXSKtwgoJ_14do_memory_core10extraction9extractorNtB2_16PatternExtractorNtNtCs4kUJL3MZFFz_4core7default7Default7default
FNDA:0,_RNvXNtNtCs46cA19QElOV_14do_memory_core10extraction9extractorNtB2_16PatternExtractorNtNtCs4kUJL3MZFFz_4core7default7Default7default
FNDA:47,_RNvMs_NtNtCs46cA19QElOV_14do_memory_core10extraction9extractorNtB4_16PatternExtractor15with_thresholds
FNDA:27,_RNvMs_NtNtCs46cA19QElOV_14do_memory_core10extraction9extractorNtB4_16PatternExtractor25calculate_average_latency
FNDA:99,_RNvMs_NtNtCs46cA19QElOV_14do_memory_core10extraction9extractorNtB4_16PatternExtractor27calculate_step_success_rate
FNDA:13,_RNvMs_NtNtCs46cA19QElOV_14do_memory_core10extraction9extractorNtB4_16PatternExtractor3new
FNDA:34,_RNvMs_NtNtCs46cA19QElOV_14do_memory_core10extraction9extractorNtB4_16PatternExtractor7extract
FNF:6
FNH:5
DA:26,0
DA:27,0
DA:28,0
DA:34,21
DA:35,21
DA:36,21
DA:37,21
DA:38,21
DA:39,21
DA:40,21
DA:44,193
DA:45,193
DA:46,193
DA:47,193
DA:48,193
DA:49,193
DA:50,193
DA:51,193
DA:52,193
DA:53,193
DA:54,193
DA:58,2322
DA:59,2322
DA:62,2322
DA:63,1
DA:64,2321
DA:67,2321
DA:68,2255
DA:69,2255
DA:72,2321
DA:75,2321
DA:76,7
DA:77,2314
DA:80,2321
DA:81,2306
DA:82,2306
DA:84,2321
DA:85,0
DA:89,2321
DA:90,2322
DA:94,6866
DA:95,6866
DA:96,52
DA:97,6814
DA:99,6814
DA:100,6814
DA:101,6866
DA:105,2255
DA:106,2255
DA:107,0
DA:108,2255
DA:110,2255
DA:111,2255
DA:113,2255
DA:114,2255
BRF:0
BRH:0
LF:55
LH:50
end_of_record
SF:/app/memory-core/src/extraction/extractors/mod.rs
FN:28,_RNCNvNtNtCsl8fXSKtwgoJ_14do_memory_core10extraction10extractors21extract_tool_sequence0B7_
FN:152,_RNCNvNtNtCsl8fXSKtwgoJ_14do_memory_core10extraction10extractors23extract_context_pattern0B7_
FN:9,_RNvNtNtCsl8fXSKtwgoJ_14do_memory_core10extraction10extractors21extract_tool_sequence
FN:85,_RNvNtNtCsl8fXSKtwgoJ_14do_memory_core10extraction10extractors22extract_error_recovery
FN:145,_RNvNtNtCsl8fXSKtwgoJ_14do_memory_core10extraction10extractors23extract_context_pattern
FN:43,_RNvNtNtCsl8fXSKtwgoJ_14do_memory_core10extraction10extractors23extract_decision_points
FN:28,_RNCNvNtNtCs46cA19QElOV_14do_memory_core10extraction10extractors21extract_tool_sequence0B7_
FN:152,_RNCNvNtNtCs46cA19QElOV_14do_memory_core10extraction10extractors23extract_context_pattern0B7_
FN:9,_RNvNtNtCs46cA19QElOV_14do_memory_core10extraction10extractors21extract_tool_sequence
FN:85,_RNvNtNtCs46cA19QElOV_14do_memory_core10extraction10extractors22extract_error_recovery
FN:145,_RNvNtNtCs46cA19QElOV_14do_memory_core10extraction10extractors23extract_context_pattern
FN:43,_RNvNtNtCs46cA19QElOV_14do_memory_core10extraction10extractors23extract_decision_points
FNDA:5902,_RNCNvNtNtCsl8fXSKtwgoJ_14do_memory_core10extraction10extractors21extract_tool_sequence0B7_
FNDA:51,_RNCNvNtNtCsl8fXSKtwgoJ_14do_memory_core10extraction10extractors23extract_context_pattern0B7_
FNDA:2288,_RNvNtNtCsl8fXSKtwgoJ_14do_memory_core10extraction10extractors21extract_tool_sequence
FNDA:2288,_RNvNtNtCsl8fXSKtwgoJ_14do_memory_core10extraction10extractors22extract_error_recovery
FNDA:2288,_RNvNtNtCsl8fXSKtwgoJ_14do_memory_core10extraction10extractors23extract_context_pattern
FNDA:2288,_RNvNtNtCsl8fXSKtwgoJ_14do_memory_core10extraction10extractors23extract_decision_points
FNDA:131,_RNCNvNtNtCs46cA19QElOV_14do_memory_core10extraction10extractors21extract_tool_sequence0B7_
FNDA:1,_RNCNvNtNtCs46cA19QElOV_14do_memory_core10extraction10extractors23extract_context_pattern0B7_
FNDA:33,_RNvNtNtCs46cA19QElOV_14do_memory_core10extraction10extractors21extract_tool_sequence
FNDA:33,_RNvNtNtCs46cA19QElOV_14do_memory_core10extraction10extractors22extract_error_recovery
FNDA:33,_RNvNtNtCs46cA19QElOV_14do_memory_core10extraction10extractors23extract_context_pattern
FNDA:33,_RNvNtNtCs46cA19QElOV_14do_memory_core10extraction10extractors23extract_decision_points
FNF:6
FNH:6
DA:9,2321
DA:11,2321
DA:12,52
DA:13,2269
DA:16,2269
DA:17,2269
DA:18,14
DA:19,2255
DA:24,2255
DA:25,2255
DA:26,2255
DA:27,2255
DA:28,6033
DA:29,2255
DA:31,2255
DA:32,2255
DA:33,2255
DA:34,2255
DA:35,2255
DA:36,2255
DA:37,2255
DA:38,2255
DA:39,2255
DA:40,2321
DA:43,2321
DA:44,2321
DA:47,2321
DA:48,2321
DA:49,66
DA:50,2255
DA:53,6596
DA:55,6596
DA:56,6596
DA:57,6586
DA:58,6586
DA:59,6583
DA:60,6563
DA:61,33
DA:62,33
DA:63,33
DA:64,33
DA:65,33
DA:66,33
DA:67,33
DA:68,33
DA:69,33
DA:70,33
DA:71,33
DA:72,33
DA:73,33
DA:74,33
DA:75,33
DA:76,33
DA:77,33
DA:78,6563
DA:81,2255
DA:82,2321
DA:85,2321
DA:89,2321
DA:90,1130
DA:91,1191
DA:94,1191
DA:95,1191
DA:97,4381
DA:98,4381
DA:99,4381
DA:102,4381
DA:104,7
DA:105,7
DA:106,7
DA:107,6
DA:109,1
DA:112,0
DA:115,7
DA:116,4374
DA:120,1191
DA:121,1184
DA:122,7
DA:125,7
DA:130,7
DA:131,0
DA:132,7
DA:134,7
DA:135,7
DA:136,7
DA:137,7
DA:138,7
DA:139,7
DA:140,7
DA:141,7
DA:142,2321
DA:145,2321
DA:150,2321
DA:152,52
DA:153,51
DA:155,1
DA:158,2269
DA:161,2320
DA:162,14
DA:163,2306
DA:166,2306
DA:167,2306
DA:168,2179
DA:169,2179
DA:170,2306
DA:171,1529
DA:172,1529
DA:173,2306
DA:174,2306
DA:177,2306
DA:179,2306
DA:180,2306
DA:181,2306
DA:182,2306
DA:183,2306
DA:184,2306
DA:185,2306
DA:186,2306
DA:187,2321
BRF:0
BRH:0
LF:121
LH:119
end_of_record
SF:/app/memory-core/src/extraction/utils.rs
FN:29,_RNCNvNtNtCsl8fXSKtwgoJ_14do_memory_core10extraction5utils13rank_patterns0B7_
FN:27,_RNvNtNtCsl8fXSKtwgoJ_14do_memory_core10extraction5utils13rank_patterns
FN:8,_RNvNtNtCsl8fXSKtwgoJ_14do_memory_core10extraction5utils20deduplicate_patterns
FN:50,_RNvNtNtCsl8fXSKtwgoJ_14do_memory_core10extraction5utils23calculate_pattern_score
FN:129,_RNvNtNtCsl8fXSKtwgoJ_14do_memory_core10extraction5utils28calculate_context_similarity
FN:29,_RNCNvNtNtCs46cA19QElOV_14do_memory_core10extraction5utils13rank_patterns0B7_
FN:27,_RNvNtNtCs46cA19QElOV_14do_memory_core10extraction5utils13rank_patterns
FN:8,_RNvNtNtCs46cA19QElOV_14do_memory_core10extraction5utils20deduplicate_patterns
FN:50,_RNvNtNtCs46cA19QElOV_14do_memory_core10extraction5utils23calculate_pattern_score
FN:129,_RNvNtNtCs46cA19QElOV_14do_memory_core10extraction5utils28calculate_context_similarity
FNDA:1,_RNCNvNtNtCsl8fXSKtwgoJ_14do_memory_core10extraction5utils13rank_patterns0B7_
FNDA:3,_RNvNtNtCsl8fXSKtwgoJ_14do_memory_core10extraction5utils13rank_patterns
FNDA:3,_RNvNtNtCsl8fXSKtwgoJ_14do_memory_core10extraction5utils20deduplicate_patterns
FNDA:2,_RNvNtNtCsl8fXSKtwgoJ_14do_memory_core10extraction5utils23calculate_pattern_score
FNDA:1,_RNvNtNtCsl8fXSKtwgoJ_14do_memory_core10extraction5utils28calculate_context_similarity
FNDA:2,_RNCNvNtNtCs46cA19QElOV_14do_memory_core10extraction5utils13rank_patterns0B7_
FNDA:4,_RNvNtNtCs46cA19QElOV_14do_memory_core10extraction5utils13rank_patterns
FNDA:3,_RNvNtNtCs46cA19QElOV_14do_memory_core10extraction5utils20deduplicate_patterns
FNDA:4,_RNvNtNtCs46cA19QElOV_14do_memory_core10extraction5utils23calculate_pattern_score
FNDA:4,_RNvNtNtCs46cA19QElOV_14do_memory_core10extraction5utils28calculate_context_similarity
FNF:5
FNH:5
DA:8,6
DA:11,6
DA:12,6
DA:14,7
DA:15,7
DA:17,7
DA:18,6
DA:19,6
DA:22,6
DA:23,6
DA:27,7
DA:29,7
DA:30,3
DA:31,3
DA:34,3
DA:35,3
DA:36,3
DA:37,3
DA:39,7
DA:40,7
DA:50,6
DA:51,6
DA:54,6
DA:57,6
DA:58,6
DA:61,6
DA:62,5
DA:63,5
DA:66,6
DA:67,5
DA:68,5
DA:69,5
DA:70,5
DA:71,5
DA:72,0
DA:73,0
DA:74,0
DA:75,0
DA:76,0
DA:78,0
DA:79,0
DA:80,0
DA:82,1
DA:83,1
DA:84,1
DA:85,1
DA:90,6
DA:94,6
DA:98,6
DA:99,0
DA:100,0
DA:101,0
DA:102,6
DA:106,6
DA:107,0
DA:108,0
DA:109,6
DA:110,0
DA:111,0
DA:112,0
DA:113,6
DA:117,6
DA:119,0
DA:120,0
DA:121,0
DA:122,0
DA:123,6
DA:125,6
DA:126,6
DA:129,5
DA:130,5
DA:131,5
DA:134,5
DA:135,4
DA:136,4
DA:137,5
DA:140,5
DA:141,5
DA:142,5
DA:143,5
DA:146,5
DA:147,4
DA:148,4
DA:149,5
DA:152,5
DA:153,5
DA:154,5
DA:155,5
DA:158,5
DA:159,1
DA:160,1
DA:161,1
DA:162,1
DA:164,1
DA:165,1
DA:166,1
DA:167,1
DA:168,4
DA:170,5
DA:171,5
DA:173,0
DA:175,5
BRF:0
BRH:0
LF:103
LH:81
end_of_record
SF:/app/memory-core/src/indexing/hierarchical/mod.rs
FN:284,_RNCNvMNtNtCsl8fXSKtwgoJ_14do_memory_core8indexing12hierarchicalNtB4_17HierarchicalIndex21task_types_for_domain0B8_
FN:65,_RNCNvMNtNtCsl8fXSKtwgoJ_14do_memory_core8indexing12hierarchicalNtB4_17HierarchicalIndex6insert0B8_
FN:75,_RNCNvMNtNtCsl8fXSKtwgoJ_14do_memory_core8indexing12hierarchicalNtB4_17HierarchicalIndex6inserts_0B8_
FN:239,_RNvMNtNtCs46cA19QElOV_14do_memory_core8indexing12hierarchicalNtB2_17HierarchicalIndex15query_by_bucket
FN:257,_RNvMNtNtCs46cA19QElOV_14do_memory_core8indexing12hierarchicalNtB2_17HierarchicalIndex5stats
FN:400,_RNvXs_NtNtCs46cA19QElOV_14do_memory_core8indexing12hierarchicalNtB4_17HierarchicalIndexNtNtCs4kUJL3MZFFz_4core7default7Default7default
FN:263,_RNvMNtNtCs46cA19QElOV_14do_memory_core8indexing12hierarchicalNtB2_17HierarchicalIndex12domain_count
FN:393,_RNvMNtNtCs46cA19QElOV_14do_memory_core8indexing12hierarchicalNtB2_17HierarchicalIndex12update_stats
FN:193,_RNvMNtNtCs46cA19QElOV_14do_memory_core8indexing12hierarchicalNtB2_17HierarchicalIndex15query_by_domain
FN:214,_RNvMNtNtCs46cA19QElOV_14do_memory_core8indexing12hierarchicalNtB2_17HierarchicalIndex18query_by_task_type
FN:228,_RNvMNtNtCs46cA19QElOV_14do_memory_core8indexing12hierarchicalNtB2_17HierarchicalIndex19query_by_time_range
FN:350,_RNvMNtNtCs46cA19QElOV_14do_memory_core8indexing12hierarchicalNtB2_17HierarchicalIndex19query_domain_bucket
FN:269,_RNvMNtNtCs46cA19QElOV_14do_memory_core8indexing12hierarchicalNtB2_17HierarchicalIndex20domain_episode_count
FN:299,_RNvMNtNtCs46cA19QElOV_14do_memory_core8indexing12hierarchicalNtB2_17HierarchicalIndex21memory_usage_estimate
FN:281,_RNvMNtNtCs46cA19QElOV_14do_memory_core8indexing12hierarchicalNtB2_17HierarchicalIndex21task_types_for_domain
FN:357,_RNvMNtNtCs46cA19QElOV_14do_memory_core8indexing12hierarchicalNtB2_17HierarchicalIndex23query_domain_time_range
FN:387,_RNvMNtNtCs46cA19QElOV_14do_memory_core8indexing12hierarchicalNtB2_17HierarchicalIndex27collect_from_temporal_index
FN:333,_RNvMNtNtCs46cA19QElOV_14do_memory_core8indexing12hierarchicalNtB2_17HierarchicalIndex28query_domain_task_type_range
FN:319,_RNvMNtNtCs46cA19QElOV_14do_memory_core8indexing12hierarchicalNtB2_17HierarchicalIndex29query_domain_task_type_bucket
FN:371,_RNvMNtNtCs46cA19QElOV_14do_memory_core8indexing12hierarchicalNtB2_17HierarchicalIndex30query_task_type_across_domains
FN:245,_RNvMNtNtCs46cA19QElOV_14do_memory_core8indexing12hierarchicalNtB2_17HierarchicalIndex3len
FN:42,_RNvMNtNtCs46cA19QElOV_14do_memory_core8indexing12hierarchicalNtB2_17HierarchicalIndex3new
FN:289,_RNvMNtNtCs46cA19QElOV_14do_memory_core8indexing12hierarchicalNtB2_17HierarchicalIndex5clear
FN:136,_RNvMNtNtCs46cA19QElOV_14do_memory_core8indexing12hierarchicalNtB2_17HierarchicalIndex5query
FN:54,_RNvMNtNtCs46cA19QElOV_14do_memory_core8indexing12hierarchicalNtB2_17HierarchicalIndex6insert
FN:86,_RNvMNtNtCs46cA19QElOV_14do_memory_core8indexing12hierarchicalNtB2_17HierarchicalIndex6remove
FN:275,_RNvMNtNtCs46cA19QElOV_14do_memory_core8indexing12hierarchicalNtB2_17HierarchicalIndex7domains
FN:251,_RNvMNtNtCs46cA19QElOV_14do_memory_core8indexing12hierarchicalNtB2_17HierarchicalIndex8is_empty
FN:284,_RNCNvMNtNtCs46cA19QElOV_14do_memory_core8indexing12hierarchicalNtB4_17HierarchicalIndex21task_types_for_domain0B8_
FN:65,_RNCNvMNtNtCs46cA19QElOV_14do_memory_core8indexing12hierarchicalNtB4_17HierarchicalIndex6insert0B8_
FN:75,_RNCNvMNtNtCs46cA19QElOV_14do_memory_core8indexing12hierarchicalNtB4_17HierarchicalIndex6inserts_0B8_
FNDA:0,_RNCNvMNtNtCsl8fXSKtwgoJ_14do_memory_core8indexing12hierarchicalNtB4_17HierarchicalIndex21task_types_for_domain0B8_
FNDA:0,_RNCNvMNtNtCsl8fXSKtwgoJ_14do_memory_core8indexing12hierarchicalNtB4_17HierarchicalIndex6insert0B8_
FNDA:0,_RNCNvMNtNtCsl8fXSKtwgoJ_14do_memory_core8indexing12hierarchicalNtB4_17HierarchicalIndex6inserts_0B8_
FNDA:0,_RNvMNtNtCs46cA19QElOV_14do_memory_core8indexing12hierarchicalNtB2_17HierarchicalIndex15query_by_bucket
FNDA:0,_RNvMNtNtCs46cA19QElOV_14do_memory_core8indexing12hierarchicalNtB2_17HierarchicalIndex5stats
FNDA:0,_RNvXs_NtNtCs46cA19QElOV_14do_memory_core8indexing12hierarchicalNtB4_17HierarchicalIndexNtNtCs4kUJL3MZFFz_4core7default7Default7default
FNDA:5,_RNvMNtNtCs46cA19QElOV_14do_memory_core8indexing12hierarchicalNtB2_17HierarchicalIndex12domain_count
FNDA:3,_RNvMNtNtCs46cA19QElOV_14do_memory_core8indexing12hierarchicalNtB2_17HierarchicalIndex12update_stats
FNDA:4,_RNvMNtNtCs46cA19QElOV_14do_memory_core8indexing12hierarchicalNtB2_17HierarchicalIndex15query_by_domain
FNDA:4,_RNvMNtNtCs46cA19QElOV_14do_memory_core8indexing12hierarchicalNtB2_17HierarchicalIndex18query_by_task_type
FNDA:1,_RNvMNtNtCs46cA19QElOV_14do_memory_core8indexing12hierarchicalNtB2_17HierarchicalIndex19query_by_time_range
FNDA:0,_RNvMNtNtCs46cA19QElOV_14do_memory_core8indexing12hierarchicalNtB2_17HierarchicalIndex19query_domain_bucket
FNDA:3,_RNvMNtNtCs46cA19QElOV_14do_memory_core8indexing12hierarchicalNtB2_17HierarchicalIndex20domain_episode_count
FNDA:2,_RNvMNtNtCs46cA19QElOV_14do_memory_core8indexing12hierarchicalNtB2_17HierarchicalIndex21memory_usage_estimate
FNDA:1,_RNvMNtNtCs46cA19QElOV_14do_memory_core8indexing12hierarchicalNtB2_17HierarchicalIndex21task_types_for_domain
FNDA:0,_RNvMNtNtCs46cA19QElOV_14do_memory_core8indexing12hierarchicalNtB2_17HierarchicalIndex23query_domain_time_range
FNDA:6,_RNvMNtNtCs46cA19QElOV_14do_memory_core8indexing12hierarchicalNtB2_17HierarchicalIndex27collect_from_temporal_index
FNDA:0,_RNvMNtNtCs46cA19QElOV_14do_memory_core8indexing12hierarchicalNtB2_17HierarchicalIndex28query_domain_task_type_range
FNDA:0,_RNvMNtNtCs46cA19QElOV_14do_memory_core8indexing12hierarchicalNtB2_17HierarchicalIndex29query_domain_task_type_bucket
FNDA:0,_RNvMNtNtCs46cA19QElOV_14do_memory_core8indexing12hierarchicalNtB2_17HierarchicalIndex30query_task_type_across_domains
FNDA:6,_RNvMNtNtCs46cA19QElOV_14do_memory_core8indexing12hierarchicalNtB2_17HierarchicalIndex3len
FNDA:12,_RNvMNtNtCs46cA19QElOV_14do_memory_core8indexing12hierarchicalNtB2_17HierarchicalIndex3new
FNDA:1,_RNvMNtNtCs46cA19QElOV_14do_memory_core8indexing12hierarchicalNtB2_17HierarchicalIndex5clear
FNDA:3,_RNvMNtNtCs46cA19QElOV_14do_memory_core8indexing12hierarchicalNtB2_17HierarchicalIndex5query
FNDA:139,_RNvMNtNtCs46cA19QElOV_14do_memory_core8indexing12hierarchicalNtB2_17HierarchicalIndex6insert
FNDA:2,_RNvMNtNtCs46cA19QElOV_14do_memory_core8indexing12hierarchicalNtB2_17HierarchicalIndex6remove
FNDA:1,_RNvMNtNtCs46cA19QElOV_14do_memory_core8indexing12hierarchicalNtB2_17HierarchicalIndex7domains
FNDA:2,_RNvMNtNtCs46cA19QElOV_14do_memory_core8indexing12hierarchicalNtB2_17HierarchicalIndex8is_empty
FNDA:1,_RNCNvMNtNtCs46cA19QElOV_14do_memory_core8indexing12hierarchicalNtB4_17HierarchicalIndex21task_types_for_domain0B8_
FNDA:15,_RNCNvMNtNtCs46cA19QElOV_14do_memory_core8indexing12hierarchicalNtB4_17HierarchicalIndex6insert0B8_
FNDA:19,_RNCNvMNtNtCs46cA19QElOV_14do_memory_core8indexing12hierarchicalNtB4_17HierarchicalIndex6inserts_0B8_
FNF:28
FNH:20
DA:42,12
DA:43,12
DA:44,12
DA:45,12
DA:46,12
DA:47,12
DA:48,12
DA:49,12
DA:50,12
DA:51,12
DA:54,139
DA:55,139
DA:56,139
DA:59,139
DA:62,139
DA:63,139
DA:64,139
DA:65,139
DA:68,139
DA:69,139
DA:72,139
DA:73,139
DA:74,139
DA:75,139
DA:78,139
DA:79,139
DA:81,139
DA:82,139
DA:83,139
DA:86,2
DA:87,2
DA:88,2
DA:89,2
DA:90,2
DA:92,2
DA:95,2
DA:96,1
DA:97,1
DA:100,2
DA:101,1
DA:102,1
DA:103,1
DA:104,1
DA:107,1
DA:108,1
DA:109,1
DA:110,1
DA:111,1
DA:112,1
DA:115,1
DA:116,1
DA:117,1
DA:118,0
DA:121,1
DA:122,1
DA:123,1
DA:124,1
DA:126,2
DA:127,1
DA:128,1
DA:129,1
DA:131,2
DA:132,2
DA:136,3
DA:137,3
DA:138,3
DA:141,3
DA:143,0
DA:144,0
DA:145,0
DA:147,2
DA:148,2
DA:149,0
DA:150,2
DA:151,2
DA:152,2
DA:155,0
DA:156,0
DA:157,0
DA:159,1
DA:160,1
DA:161,0
DA:162,1
DA:163,1
DA:164,1
DA:167,0
DA:168,0
DA:169,0
DA:172,0
DA:173,0
DA:174,0
DA:177,0
DA:178,0
DA:179,0
DA:183,3
DA:184,3
DA:187,3
DA:188,3
DA:189,3
DA:193,4
DA:194,4
DA:195,3
DA:198,4
DA:199,4
DA:200,4
DA:201,0
DA:202,4
DA:205,3
DA:206,3
DA:208,1
DA:210,4
DA:214,4
DA:215,4
DA:216,4
DA:217,2
DA:218,2
DA:219,2
DA:220,2
DA:221,0
DA:223,2
DA:224,4
DA:228,1
DA:229,1
DA:230,1
DA:231,1
DA:232,1
DA:233,1
DA:234,1
DA:235,1
DA:239,0
DA:240,0
DA:241,0
DA:245,6
DA:246,6
DA:247,6
DA:251,2
DA:252,2
DA:253,2
DA:257,0
DA:258,0
DA:259,0
DA:263,5
DA:264,5
DA:265,5
DA:269,3
DA:270,3
DA:271,3
DA:275,1
DA:276,1
DA:277,1
DA:281,1
DA:282,1
DA:283,1
DA:284,1
DA:285,1
DA:286,1
DA:289,1
DA:290,1
DA:291,1
DA:292,1
DA:293,1
DA:294,1
DA:295,1
DA:299,2
DA:300,2
DA:301,2
DA:303,2
DA:304,1
DA:305,1
DA:306,1
DA:308,1
DA:309,1
DA:310,1
DA:311,1
DA:314,2
DA:315,2
DA:319,0
DA:320,0
DA:321,0
DA:322,0
DA:323,0
DA:324,0
DA:325,0
DA:326,0
DA:327,0
DA:328,0
DA:329,0
DA:330,0
DA:331,0
DA:333,0
DA:334,0
DA:335,0
DA:336,0
DA:337,0
DA:338,0
DA:339,0
DA:340,0
DA:341,0
DA:342,0
DA:343,0
DA:344,0
DA:345,0
DA:346,0
DA:347,0
DA:348,0
DA:350,0
DA:351,0
DA:352,0
DA:353,0
DA:354,0
DA:355,0
DA:357,0
DA:358,0
DA:359,0
DA:360,0
DA:361,0
DA:362,0
DA:363,0
DA:364,0
DA:365,0
DA:366,0
DA:367,0
DA:368,0
DA:369,0
DA:371,0
DA:372,0
DA:374,0
DA:375,0
DA:376,0
DA:377,0
DA:378,0
DA:379,0
DA:380,0
DA:383,0
DA:384,0
DA:385,0
DA:387,6
DA:388,6
DA:389,6
DA:390,6
DA:391,6
DA:393,3
DA:394,3
DA:395,3
DA:396,3
DA:400,0
DA:401,0
DA:402,0
BRF:0
BRH:0
LF:251
LH:162
end_of_record
SF:/app/memory-core/src/indexing/hierarchical/types.rs
FN:107,_RINvMs1_NtNtNtCsl8fXSKtwgoJ_14do_memory_core8indexing12hierarchical5typesNtB6_17HierarchicalQuery11with_domainpEBc_
FN:72,_RNvMs0_NtNtNtCsl8fXSKtwgoJ_14do_memory_core8indexing12hierarchical5typesNtB5_18TaskTypeLevelIndex3new
FN:136,_RNvMs1_NtNtNtCsl8fXSKtwgoJ_14do_memory_core8indexing12hierarchical5typesNtB5_17HierarchicalQuery10with_limit
FN:114,_RNvMs1_NtNtNtCsl8fXSKtwgoJ_14do_memory_core8indexing12hierarchical5typesNtB5_17HierarchicalQuery14with_task_type
FN:121,_RNvMs1_NtNtNtCsl8fXSKtwgoJ_14do_memory_core8indexing12hierarchical5typesNtB5_17HierarchicalQuery15with_time_range
FN:129,_RNvMs1_NtNtNtCsl8fXSKtwgoJ_14do_memory_core8indexing12hierarchical5typesNtB5_17HierarchicalQuery16with_time_bucket
FN:101,_RNvMs1_NtNtNtCsl8fXSKtwgoJ_14do_memory_core8indexing12hierarchical5typesNtB5_17HierarchicalQuery3new
FN:50,_RNvMs_NtNtNtCsl8fXSKtwgoJ_14do_memory_core8indexing12hierarchical5typesNtB4_16DomainLevelIndex3new
FN:25,_RNvXNtNtNtCsl8fXSKtwgoJ_14do_memory_core8indexing12hierarchical5typesNtB2_22HierarchicalIndexStatsNtNtCs4kUJL3MZFFz_4core7default7Default7default
FN:121,_RNvMs1_NtNtNtCs46cA19QElOV_14do_memory_core8indexing12hierarchical5typesNtB5_17HierarchicalQuery15with_time_range
FN:129,_RNvMs1_NtNtNtCs46cA19QElOV_14do_memory_core8indexing12hierarchical5typesNtB5_17HierarchicalQuery16with_time_bucket
FN:72,_RNvMs0_NtNtNtCs46cA19QElOV_14do_memory_core8indexing12hierarchical5typesNtB5_18TaskTypeLevelIndex3new
FN:136,_RNvMs1_NtNtNtCs46cA19QElOV_14do_memory_core8indexing12hierarchical5typesNtB5_17HierarchicalQuery10with_limit
FN:114,_RNvMs1_NtNtNtCs46cA19QElOV_14do_memory_core8indexing12hierarchical5typesNtB5_17HierarchicalQuery14with_task_type
FN:101,_RNvMs1_NtNtNtCs46cA19QElOV_14do_memory_core8indexing12hierarchical5typesNtB5_17HierarchicalQuery3new
FN:50,_RNvMs_NtNtNtCs46cA19QElOV_14do_memory_core8indexing12hierarchical5typesNtB4_16DomainLevelIndex3new
FN:25,_RNvXNtNtNtCs46cA19QElOV_14do_memory_core8indexing12hierarchical5typesNtB2_22HierarchicalIndexStatsNtNtCs4kUJL3MZFFz_4core7default7Default7default
FN:107,_RINvMs1_NtNtNtCs46cA19QElOV_14do_memory_core8indexing12hierarchical5typesNtB6_17HierarchicalQuery11with_domainReEBc_
FNDA:0,_RINvMs1_NtNtNtCsl8fXSKtwgoJ_14do_memory_core8indexing12hierarchical5typesNtB6_17HierarchicalQuery11with_domainpEBc_
FNDA:0,_RNvMs0_NtNtNtCsl8fXSKtwgoJ_14do_memory_core8indexing12hierarchical5typesNtB5_18TaskTypeLevelIndex3new
FNDA:0,_RNvMs1_NtNtNtCsl8fXSKtwgoJ_14do_memory_core8indexing12hierarchical5typesNtB5_17HierarchicalQuery10with_limit
FNDA:0,_RNvMs1_NtNtNtCsl8fXSKtwgoJ_14do_memory_core8indexing12hierarchical5typesNtB5_17HierarchicalQuery14with_task_type
FNDA:0,_RNvMs1_NtNtNtCsl8fXSKtwgoJ_14do_memory_core8indexing12hierarchical5typesNtB5_17HierarchicalQuery15with_time_range
FNDA:0,_RNvMs1_NtNtNtCsl8fXSKtwgoJ_14do_memory_core8indexing12hierarchical5typesNtB5_17HierarchicalQuery16with_time_bucket
FNDA:0,_RNvMs1_NtNtNtCsl8fXSKtwgoJ_14do_memory_core8indexing12hierarchical5typesNtB5_17HierarchicalQuery3new
FNDA:0,_RNvMs_NtNtNtCsl8fXSKtwgoJ_14do_memory_core8indexing12hierarchical5typesNtB4_16DomainLevelIndex3new
FNDA:0,_RNvXNtNtNtCsl8fXSKtwgoJ_14do_memory_core8indexing12hierarchical5typesNtB2_22HierarchicalIndexStatsNtNtCs4kUJL3MZFFz_4core7default7Default7default
FNDA:0,_RNvMs1_NtNtNtCs46cA19QElOV_14do_memory_core8indexing12hierarchical5typesNtB5_17HierarchicalQuery15with_time_range
FNDA:0,_RNvMs1_NtNtNtCs46cA19QElOV_14do_memory_core8indexing12hierarchical5typesNtB5_17HierarchicalQuery16with_time_bucket
FNDA:19,_RNvMs0_NtNtNtCs46cA19QElOV_14do_memory_core8indexing12hierarchical5typesNtB5_18TaskTypeLevelIndex3new
FNDA:4,_RNvMs1_NtNtNtCs46cA19QElOV_14do_memory_core8indexing12hierarchical5typesNtB5_17HierarchicalQuery10with_limit
FNDA:3,_RNvMs1_NtNtNtCs46cA19QElOV_14do_memory_core8indexing12hierarchical5typesNtB5_17HierarchicalQuery14with_task_type
FNDA:4,_RNvMs1_NtNtNtCs46cA19QElOV_14do_memory_core8indexing12hierarchical5typesNtB5_17HierarchicalQuery3new
FNDA:15,_RNvMs_NtNtNtCs46cA19QElOV_14do_memory_core8indexing12hierarchical5typesNtB4_16DomainLevelIndex3new
FNDA:13,_RNvXNtNtNtCs46cA19QElOV_14do_memory_core8indexing12hierarchical5typesNtB2_22HierarchicalIndexStatsNtNtCs4kUJL3MZFFz_4core7default7Default7default
FNDA:4,_RINvMs1_NtNtNtCs46cA19QElOV_14do_memory_core8indexing12hierarchical5typesNtB6_17HierarchicalQuery11with_domainReEBc_
FNF:9
FNH:7
DA:25,13
DA:26,13
DA:27,13
DA:28,13
DA:29,13
DA:30,13
DA:31,13
DA:32,13
DA:33,13
DA:50,15
DA:51,15
DA:52,15
DA:53,15
DA:54,15
DA:55,15
DA:56,15
DA:57,15
DA:72,19
DA:73,19
DA:74,19
DA:75,19
DA:76,19
DA:77,19
DA:78,19
DA:101,4
DA:102,4
DA:103,4
DA:107,4
DA:108,4
DA:109,4
DA:110,4
DA:114,3
DA:115,3
DA:116,3
DA:117,3
DA:121,0
DA:122,0
DA:123,0
DA:124,0
DA:125,0
DA:129,0
DA:130,0
DA:131,0
DA:132,0
DA:136,4
DA:137,4
DA:138,4
DA:139,4
BRF:0
BRH:0
LF:48
LH:39
end_of_record
SF:/app/memory-core/src/indexing/mod.rs
FN:151,_RNvMNtCsl8fXSKtwgoJ_14do_memory_core8indexingNtB2_16QueryPerformance17calculate_speedup
FN:151,_RNvMNtCs46cA19QElOV_14do_memory_core8indexingNtB2_16QueryPerformance17calculate_speedup
FN:203,_RNvNtNtCs46cA19QElOV_14do_memory_core8indexing5tests19create_test_episode
FN:287,_RNvNtNtCs46cA19QElOV_14do_memory_core8indexing5testss_18test_index_metrics
FN:304,_RNvNtNtCs46cA19QElOV_14do_memory_core8indexing5testss_21test_benchmark_result
FN:239,_RNvNtNtCs46cA19QElOV_14do_memory_core8indexing5testss_25test_time_bucket_variants
FN:340,_RNvNtNtCs46cA19QElOV_14do_memory_core8indexing5testss_29test_hierarchical_index_basic
FN:227,_RNvNtNtCs46cA19QElOV_14do_memory_core8indexing5testss_31test_hierarchical_query_builder
FN:320,_RNvNtNtCs46cA19QElOV_14do_memory_core8indexing5testss_31test_spatiotemporal_index_basic
FN:214,_RNvNtNtCs46cA19QElOV_14do_memory_core8indexing5testss_34test_query_performance_calculation
FNDA:0,_RNvMNtCsl8fXSKtwgoJ_14do_memory_core8indexingNtB2_16QueryPerformance17calculate_speedup
FNDA:1,_RNvMNtCs46cA19QElOV_14do_memory_core8indexingNtB2_16QueryPerformance17calculate_speedup
FNDA:2,_RNvNtNtCs46cA19QElOV_14do_memory_core8indexing5tests19create_test_episode
FNDA:1,_RNvNtNtCs46cA19QElOV_14do_memory_core8indexing5testss_18test_index_metrics
FNDA:1,_RNvNtNtCs46cA19QElOV_14do_memory_core8indexing5testss_21test_benchmark_result
FNDA:1,_RNvNtNtCs46cA19QElOV_14do_memory_core8indexing5testss_25test_time_bucket_variants
FNDA:1,_RNvNtNtCs46cA19QElOV_14do_memory_core8indexing5testss_29test_hierarchical_index_basic
FNDA:1,_RNvNtNtCs46cA19QElOV_14do_memory_core8indexing5testss_31test_hierarchical_query_builder
FNDA:1,_RNvNtNtCs46cA19QElOV_14do_memory_core8indexing5testss_31test_spatiotemporal_index_basic
FNDA:1,_RNvNtNtCs46cA19QElOV_14do_memory_core8indexing5testss_34test_query_performance_calculation
FNF:9
FNH:9
DA:151,1
DA:152,1
DA:153,1
DA:155,0
DA:157,1
DA:203,2
DA:204,2
DA:205,2
DA:206,2
DA:207,2
DA:208,2
DA:209,2
DA:210,2
DA:211,2
DA:214,1
DA:215,1
DA:216,1
DA:217,1
DA:218,1
DA:219,1
DA:220,1
DA:221,1
DA:223,1
DA:224,1
DA:227,1
DA:228,1
DA:229,1
DA:230,1
DA:231,1
DA:233,1
DA:234,1
DA:235,1
DA:236,1
DA:239,1
DA:240,1
DA:241,1
DA:243,1
DA:244,1
DA:245,1
DA:246,1
DA:247,1
DA:255,1
DA:256,1
DA:257,1
DA:258,1
DA:259,1
DA:260,1
DA:269,1
DA:270,1
DA:271,1
DA:272,1
DA:273,1
DA:274,1
DA:275,1
DA:284,1
DA:287,1
DA:288,1
DA:289,1
DA:290,1
DA:291,1
DA:292,1
DA:293,1
DA:294,1
DA:295,1
DA:296,1
DA:298,1
DA:299,1
DA:300,1
DA:301,1
DA:304,1
DA:305,1
DA:306,1
DA:307,1
DA:308,1
DA:309,1
DA:310,1
DA:311,1
DA:312,1
DA:314,1
DA:315,1
DA:316,1
DA:317,1
DA:320,1
DA:321,1
DA:322,1
DA:324,1
DA:326,1
DA:327,1
DA:329,1
DA:330,1
DA:331,1
DA:332,1
DA:334,1
DA:335,1
DA:336,1
DA:337,1
DA:340,1
DA:341,1
DA:342,1
DA:344,1
DA:346,1
DA:347,1
DA:349,1
DA:350,1
DA:351,1
DA:352,1
BRF:0
BRH:0
LF:106
LH:105
end_of_record
SF:/app/memory-core/src/indexing/spatiotemporal/mod.rs
FN:284,_RNCNvMNtNtCsl8fXSKtwgoJ_14do_memory_core8indexing14spatiotemporalNtB4_19SpatiotemporalIndex10query_hour0B8_
FN:286,_RNCNvMNtNtCsl8fXSKtwgoJ_14do_memory_core8indexing14spatiotemporalNtB4_19SpatiotemporalIndex10query_hours0_0B8_
FN:287,_RNCNvMNtNtCsl8fXSKtwgoJ_14do_memory_core8indexing14spatiotemporalNtB4_19SpatiotemporalIndex10query_hours1_0B8_
FN:285,_RNCNvMNtNtCsl8fXSKtwgoJ_14do_memory_core8indexing14spatiotemporalNtB4_19SpatiotemporalIndex10query_hours_0B8_
FN:251,_RNCNvMNtNtCsl8fXSKtwgoJ_14do_memory_core8indexing14spatiotemporalNtB4_19SpatiotemporalIndex10query_year0B8_
FN:261,_RNCNvMNtNtCsl8fXSKtwgoJ_14do_memory_core8indexing14spatiotemporalNtB4_19SpatiotemporalIndex11query_month0B8_
FN:262,_RNCNvMNtNtCsl8fXSKtwgoJ_14do_memory_core8indexing14spatiotemporalNtB4_19SpatiotemporalIndex11query_months_0B8_
FN:461,_RNCNvMNtNtCsl8fXSKtwgoJ_14do_memory_core8indexing14spatiotemporalNtB4_19SpatiotemporalIndex16cleanup_if_empty0B8_
FN:463,_RNCNvMNtNtCsl8fXSKtwgoJ_14do_memory_core8indexing14spatiotemporalNtB4_19SpatiotemporalIndex16cleanup_if_emptys0_0B8_
FN:464,_RNCNvMNtNtCsl8fXSKtwgoJ_14do_memory_core8indexing14spatiotemporalNtB4_19SpatiotemporalIndex16cleanup_if_emptys1_0B8_
FN:462,_RNCNvMNtNtCsl8fXSKtwgoJ_14do_memory_core8indexing14spatiotemporalNtB4_19SpatiotemporalIndex16cleanup_if_emptys_0B8_
FN:71,_RNCNvMNtNtCsl8fXSKtwgoJ_14do_memory_core8indexing14spatiotemporalNtB4_19SpatiotemporalIndex6insert0B8_
FN:83,_RNCNvMNtNtCsl8fXSKtwgoJ_14do_memory_core8indexing14spatiotemporalNtB4_19SpatiotemporalIndex6inserts0_0B8_
FN:89,_RNCNvMNtNtCsl8fXSKtwgoJ_14do_memory_core8indexing14spatiotemporalNtB4_19SpatiotemporalIndex6inserts1_0B8_
FN:77,_RNCNvMNtNtCsl8fXSKtwgoJ_14do_memory_core8indexing14spatiotemporalNtB4_19SpatiotemporalIndex6inserts_0B8_
FN:272,_RNCNvMNtNtCsl8fXSKtwgoJ_14do_memory_core8indexing14spatiotemporalNtB4_19SpatiotemporalIndex9query_day0B8_
FN:274,_RNCNvMNtNtCsl8fXSKtwgoJ_14do_memory_core8indexing14spatiotemporalNtB4_19SpatiotemporalIndex9query_days0_0B8_
FN:273,_RNCNvMNtNtCsl8fXSKtwgoJ_14do_memory_core8indexing14spatiotemporalNtB4_19SpatiotemporalIndex9query_days_0B8_
FN:281,_RNvMNtNtCsl8fXSKtwgoJ_14do_memory_core8indexing14spatiotemporalNtB2_19SpatiotemporalIndex10query_hour
FN:250,_RNvMNtNtCsl8fXSKtwgoJ_14do_memory_core8indexing14spatiotemporalNtB2_19SpatiotemporalIndex10query_year
FN:318,_RNvMNtNtCsl8fXSKtwgoJ_14do_memory_core8indexing14spatiotemporalNtB2_19SpatiotemporalIndex10year_count
FN:258,_RNvMNtNtCsl8fXSKtwgoJ_14do_memory_core8indexing14spatiotemporalNtB2_19SpatiotemporalIndex11query_month
FN:170,_RNvMNtNtCsl8fXSKtwgoJ_14do_memory_core8indexing14spatiotemporalNtB2_19SpatiotemporalIndex11query_range
FN:234,_RNvMNtNtCsl8fXSKtwgoJ_14do_memory_core8indexing14spatiotemporalNtB2_19SpatiotemporalIndex12query_bucket
FN:456,_RNvMNtNtCsl8fXSKtwgoJ_14do_memory_core8indexing14spatiotemporalNtB2_19SpatiotemporalIndex16cleanup_if_empty
FN:400,_RNvMNtNtCsl8fXSKtwgoJ_14do_memory_core8indexing14spatiotemporalNtB2_19SpatiotemporalIndex17query_month_range
FN:449,_RNvMNtNtCsl8fXSKtwgoJ_14do_memory_core8indexing14spatiotemporalNtB2_19SpatiotemporalIndex18update_query_stats
FN:324,_RNvMNtNtCsl8fXSKtwgoJ_14do_memory_core8indexing14spatiotemporalNtB2_19SpatiotemporalIndex21memory_usage_estimate
FN:370,_RNvMNtNtCsl8fXSKtwgoJ_14do_memory_core8indexing14spatiotemporalNtB2_19SpatiotemporalIndex23calculate_day_node_size
FN:365,_RNvMNtNtCsl8fXSKtwgoJ_14do_memory_core8indexing14spatiotemporalNtB2_19SpatiotemporalIndex24calculate_hour_node_size
FN:390,_RNvMNtNtCsl8fXSKtwgoJ_14do_memory_core8indexing14spatiotemporalNtB2_19SpatiotemporalIndex24calculate_year_node_size
FN:380,_RNvMNtNtCsl8fXSKtwgoJ_14do_memory_core8indexing14spatiotemporalNtB2_19SpatiotemporalIndex25calculate_month_node_size
FN:335,_RNvMNtNtCsl8fXSKtwgoJ_14do_memory_core8indexing14spatiotemporalNtB2_19SpatiotemporalIndex25collect_episodes_from_day
FN:355,_RNvMNtNtCsl8fXSKtwgoJ_14do_memory_core8indexing14spatiotemporalNtB2_19SpatiotemporalIndex26collect_episodes_from_year
FN:345,_RNvMNtNtCsl8fXSKtwgoJ_14do_memory_core8indexing14spatiotemporalNtB2_19SpatiotemporalIndex27collect_episodes_from_month
FN:292,_RNvMNtNtCsl8fXSKtwgoJ_14do_memory_core8indexing14spatiotemporalNtB2_19SpatiotemporalIndex3len
FN:44,_RNvMNtNtCsl8fXSKtwgoJ_14do_memory_core8indexing14spatiotemporalNtB2_19SpatiotemporalIndex3new
FN:309,_RNvMNtNtCsl8fXSKtwgoJ_14do_memory_core8indexing14spatiotemporalNtB2_19SpatiotemporalIndex5clear
FN:304,_RNvMNtNtCsl8fXSKtwgoJ_14do_memory_core8indexing14spatiotemporalNtB2_19SpatiotemporalIndex5stats
FN:63,_RNvMNtNtCsl8fXSKtwgoJ_14do_memory_core8indexing14spatiotemporalNtB2_19SpatiotemporalIndex6insert
FN:117,_RNvMNtNtCsl8fXSKtwgoJ_14do_memory_core8indexing14spatiotemporalNtB2_19SpatiotemporalIndex6remove
FN:298,_RNvMNtNtCsl8fXSKtwgoJ_14do_memory_core8indexing14spatiotemporalNtB2_19SpatiotemporalIndex8is_empty
FN:269,_RNvMNtNtCsl8fXSKtwgoJ_14do_memory_core8indexing14spatiotemporalNtB2_19SpatiotemporalIndex9query_day
FN:485,_RNvXs_NtNtCsl8fXSKtwgoJ_14do_memory_core8indexing14spatiotemporalNtB4_19SpatiotemporalIndexNtNtCs4kUJL3MZFFz_4core7default7Default7default
FN:304,_RNvMNtNtCs46cA19QElOV_14do_memory_core8indexing14spatiotemporalNtB2_19SpatiotemporalIndex5stats
FN:485,_RNvXs_NtNtCs46cA19QElOV_14do_memory_core8indexing14spatiotemporalNtB4_19SpatiotemporalIndexNtNtCs4kUJL3MZFFz_4core7default7Default7default
FN:284,_RNCNvMNtNtCs46cA19QElOV_14do_memory_core8indexing14spatiotemporalNtB4_19SpatiotemporalIndex10query_hour0B8_
FN:286,_RNCNvMNtNtCs46cA19QElOV_14do_memory_core8indexing14spatiotemporalNtB4_19SpatiotemporalIndex10query_hours0_0B8_
FN:287,_RNCNvMNtNtCs46cA19QElOV_14do_memory_core8indexing14spatiotemporalNtB4_19SpatiotemporalIndex10query_hours1_0B8_
FN:285,_RNCNvMNtNtCs46cA19QElOV_14do_memory_core8indexing14spatiotemporalNtB4_19SpatiotemporalIndex10query_hours_0B8_
FN:251,_RNCNvMNtNtCs46cA19QElOV_14do_memory_core8indexing14spatiotemporalNtB4_19SpatiotemporalIndex10query_year0B8_
FN:261,_RNCNvMNtNtCs46cA19QElOV_14do_memory_core8indexing14spatiotemporalNtB4_19SpatiotemporalIndex11query_month0B8_
FN:262,_RNCNvMNtNtCs46cA19QElOV_14do_memory_core8indexing14spatiotemporalNtB4_19SpatiotemporalIndex11query_months_0B8_
FN:461,_RNCNvMNtNtCs46cA19QElOV_14do_memory_core8indexing14spatiotemporalNtB4_19SpatiotemporalIndex16cleanup_if_empty0B8_
FN:463,_RNCNvMNtNtCs46cA19QElOV_14do_memory_core8indexing14spatiotemporalNtB4_19SpatiotemporalIndex16cleanup_if_emptys0_0B8_
FN:464,_RNCNvMNtNtCs46cA19QElOV_14do_memory_core8indexing14spatiotemporalNtB4_19SpatiotemporalIndex16cleanup_if_emptys1_0B8_
FN:462,_RNCNvMNtNtCs46cA19QElOV_14do_memory_core8indexing14spatiotemporalNtB4_19SpatiotemporalIndex16cleanup_if_emptys_0B8_
FN:71,_RNCNvMNtNtCs46cA19QElOV_14do_memory_core8indexing14spatiotemporalNtB4_19SpatiotemporalIndex6insert0B8_
FN:83,_RNCNvMNtNtCs46cA19QElOV_14do_memory_core8indexing14spatiotemporalNtB4_19SpatiotemporalIndex6inserts0_0B8_
FN:89,_RNCNvMNtNtCs46cA19QElOV_14do_memory_core8indexing14spatiotemporalNtB4_19SpatiotemporalIndex6inserts1_0B8_
FN:77,_RNCNvMNtNtCs46cA19QElOV_14do_memory_core8indexing14spatiotemporalNtB4_19SpatiotemporalIndex6inserts_0B8_
FN:272,_RNCNvMNtNtCs46cA19QElOV_14do_memory_core8indexing14spatiotemporalNtB4_19SpatiotemporalIndex9query_day0B8_
FN:274,_RNCNvMNtNtCs46cA19QElOV_14do_memory_core8indexing14spatiotemporalNtB4_19SpatiotemporalIndex9query_days0_0B8_
FN:273,_RNCNvMNtNtCs46cA19QElOV_14do_memory_core8indexing14spatiotemporalNtB4_19SpatiotemporalIndex9query_days_0B8_
FN:281,_RNvMNtNtCs46cA19QElOV_14do_memory_core8indexing14spatiotemporalNtB2_19SpatiotemporalIndex10query_hour
FN:250,_RNvMNtNtCs46cA19QElOV_14do_memory_core8indexing14spatiotemporalNtB2_19SpatiotemporalIndex10query_year
FN:318,_RNvMNtNtCs46cA19QElOV_14do_memory_core8indexing14spatiotemporalNtB2_19SpatiotemporalIndex10year_count
FN:258,_RNvMNtNtCs46cA19QElOV_14do_memory_core8indexing14spatiotemporalNtB2_19SpatiotemporalIndex11query_month
FN:170,_RNvMNtNtCs46cA19QElOV_14do_memory_core8indexing14spatiotemporalNtB2_19SpatiotemporalIndex11query_range
FN:234,_RNvMNtNtCs46cA19QElOV_14do_memory_core8indexing14spatiotemporalNtB2_19SpatiotemporalIndex12query_bucket
FN:456,_RNvMNtNtCs46cA19QElOV_14do_memory_core8indexing14spatiotemporalNtB2_19SpatiotemporalIndex16cleanup_if_empty
FN:400,_RNvMNtNtCs46cA19QElOV_14do_memory_core8indexing14spatiotemporalNtB2_19SpatiotemporalIndex17query_month_range
FN:449,_RNvMNtNtCs46cA19QElOV_14do_memory_core8indexing14spatiotemporalNtB2_19SpatiotemporalIndex18update_query_stats
FN:324,_RNvMNtNtCs46cA19QElOV_14do_memory_core8indexing14spatiotemporalNtB2_19SpatiotemporalIndex21memory_usage_estimate
FN:370,_RNvMNtNtCs46cA19QElOV_14do_memory_core8indexing14spatiotemporalNtB2_19SpatiotemporalIndex23calculate_day_node_size
FN:365,_RNvMNtNtCs46cA19QElOV_14do_memory_core8indexing14spatiotemporalNtB2_19SpatiotemporalIndex24calculate_hour_node_size
FN:390,_RNvMNtNtCs46cA19QElOV_14do_memory_core8indexing14spatiotemporalNtB2_19SpatiotemporalIndex24calculate_year_node_size
FN:380,_RNvMNtNtCs46cA19QElOV_14do_memory_core8indexing14spatiotemporalNtB2_19SpatiotemporalIndex25calculate_month_node_size
FN:335,_RNvMNtNtCs46cA19QElOV_14do_memory_core8indexing14spatiotemporalNtB2_19SpatiotemporalIndex25collect_episodes_from_day
FN:355,_RNvMNtNtCs46cA19QElOV_14do_memory_core8indexing14spatiotemporalNtB2_19SpatiotemporalIndex26collect_episodes_from_year
FN:345,_RNvMNtNtCs46cA19QElOV_14do_memory_core8indexing14spatiotemporalNtB2_19SpatiotemporalIndex27collect_episodes_from_month
FN:292,_RNvMNtNtCs46cA19QElOV_14do_memory_core8indexing14spatiotemporalNtB2_19SpatiotemporalIndex3len
FN:44,_RNvMNtNtCs46cA19QElOV_14do_memory_core8indexing14spatiotemporalNtB2_19SpatiotemporalIndex3new
FN:309,_RNvMNtNtCs46cA19QElOV_14do_memory_core8indexing14spatiotemporalNtB2_19SpatiotemporalIndex5clear
FN:63,_RNvMNtNtCs46cA19QElOV_14do_memory_core8indexing14spatiotemporalNtB2_19SpatiotemporalIndex6insert
FN:117,_RNvMNtNtCs46cA19QElOV_14do_memory_core8indexing14spatiotemporalNtB2_19SpatiotemporalIndex6remove
FN:298,_RNvMNtNtCs46cA19QElOV_14do_memory_core8indexing14spatiotemporalNtB2_19SpatiotemporalIndex8is_empty
FN:269,_RNvMNtNtCs46cA19QElOV_14do_memory_core8indexing14spatiotemporalNtB2_19SpatiotemporalIndex9query_day
FNDA:0,_RNCNvMNtNtCsl8fXSKtwgoJ_14do_memory_core8indexing14spatiotemporalNtB4_19SpatiotemporalIndex10query_hour0B8_
FNDA:0,_RNCNvMNtNtCsl8fXSKtwgoJ_14do_memory_core8indexing14spatiotemporalNtB4_19SpatiotemporalIndex10query_hours0_0B8_
FNDA:0,_RNCNvMNtNtCsl8fXSKtwgoJ_14do_memory_core8indexing14spatiotemporalNtB4_19SpatiotemporalIndex10query_hours1_0B8_
FNDA:0,_RNCNvMNtNtCsl8fXSKtwgoJ_14do_memory_core8indexing14spatiotemporalNtB4_19SpatiotemporalIndex10query_hours_0B8_
FNDA:0,_RNCNvMNtNtCsl8fXSKtwgoJ_14do_memory_core8indexing14spatiotemporalNtB4_19SpatiotemporalIndex10query_year0B8_
FNDA:0,_RNCNvMNtNtCsl8fXSKtwgoJ_14do_memory_core8indexing14spatiotemporalNtB4_19SpatiotemporalIndex11query_month0B8_
FNDA:0,_RNCNvMNtNtCsl8fXSKtwgoJ_14do_memory_core8indexing14spatiotemporalNtB4_19SpatiotemporalIndex11query_months_0B8_
FNDA:0,_RNCNvMNtNtCsl8fXSKtwgoJ_14do_memory_core8indexing14spatiotemporalNtB4_19SpatiotemporalIndex16cleanup_if_empty0B8_
FNDA:0,_RNCNvMNtNtCsl8fXSKtwgoJ_14do_memory_core8indexing14spatiotemporalNtB4_19SpatiotemporalIndex16cleanup_if_emptys0_0B8_
FNDA:0,_RNCNvMNtNtCsl8fXSKtwgoJ_14do_memory_core8indexing14spatiotemporalNtB4_19SpatiotemporalIndex16cleanup_if_emptys1_0B8_
FNDA:0,_RNCNvMNtNtCsl8fXSKtwgoJ_14do_memory_core8indexing14spatiotemporalNtB4_19SpatiotemporalIndex16cleanup_if_emptys_0B8_
FNDA:0,_RNCNvMNtNtCsl8fXSKtwgoJ_14do_memory_core8indexing14spatiotemporalNtB4_19SpatiotemporalIndex6insert0B8_
FNDA:0,_RNCNvMNtNtCsl8fXSKtwgoJ_14do_memory_core8indexing14spatiotemporalNtB4_19SpatiotemporalIndex6inserts0_0B8_
FNDA:0,_RNCNvMNtNtCsl8fXSKtwgoJ_14do_memory_core8indexing14spatiotemporalNtB4_19SpatiotemporalIndex6inserts1_0B8_
FNDA:0,_RNCNvMNtNtCsl8fXSKtwgoJ_14do_memory_core8indexing14spatiotemporalNtB4_19SpatiotemporalIndex6inserts_0B8_
FNDA:0,_RNCNvMNtNtCsl8fXSKtwgoJ_14do_memory_core8indexing14spatiotemporalNtB4_19SpatiotemporalIndex9query_day0B8_
FNDA:0,_RNCNvMNtNtCsl8fXSKtwgoJ_14do_memory_core8indexing14spatiotemporalNtB4_19SpatiotemporalIndex9query_days0_0B8_
FNDA:0,_RNCNvMNtNtCsl8fXSKtwgoJ_14do_memory_core8indexing14spatiotemporalNtB4_19SpatiotemporalIndex9query_days_0B8_
FNDA:0,_RNvMNtNtCsl8fXSKtwgoJ_14do_memory_core8indexing14spatiotemporalNtB2_19SpatiotemporalIndex10query_hour
FNDA:0,_RNvMNtNtCsl8fXSKtwgoJ_14do_memory_core8indexing14spatiotemporalNtB2_19SpatiotemporalIndex10query_year
FNDA:0,_RNvMNtNtCsl8fXSKtwgoJ_14do_memory_core8indexing14spatiotemporalNtB2_19SpatiotemporalIndex10year_count
FNDA:0,_RNvMNtNtCsl8fXSKtwgoJ_14do_memory_core8indexing14spatiotemporalNtB2_19SpatiotemporalIndex11query_month
FNDA:0,_RNvMNtNtCsl8fXSKtwgoJ_14do_memory_core8indexing14spatiotemporalNtB2_19SpatiotemporalIndex11query_range
FNDA:0,_RNvMNtNtCsl8fXSKtwgoJ_14do_memory_core8indexing14spatiotemporalNtB2_19SpatiotemporalIndex12query_bucket
FNDA:0,_RNvMNtNtCsl8fXSKtwgoJ_14do_memory_core8indexing14spatiotemporalNtB2_19SpatiotemporalIndex16cleanup_if_empty
FNDA:0,_RNvMNtNtCsl8fXSKtwgoJ_14do_memory_core8indexing14spatiotemporalNtB2_19SpatiotemporalIndex17query_month_range
FNDA:0,_RNvMNtNtCsl8fXSKtwgoJ_14do_memory_core8indexing14spatiotemporalNtB2_19SpatiotemporalIndex18update_query_stats
FNDA:0,_RNvMNtNtCsl8fXSKtwgoJ_14do_memory_core8indexing14spatiotemporalNtB2_19SpatiotemporalIndex21memory_usage_estimate
FNDA:0,_RNvMNtNtCsl8fXSKtwgoJ_14do_memory_core8indexing14spatiotemporalNtB2_19SpatiotemporalIndex23calculate_day_node_size
FNDA:0,_RNvMNtNtCsl8fXSKtwgoJ_14do_memory_core8indexing14spatiotemporalNtB2_19SpatiotemporalIndex24calculate_hour_node_size
FNDA:0,_RNvMNtNtCsl8fXSKtwgoJ_14do_memory_core8indexing14spatiotemporalNtB2_19SpatiotemporalIndex24calculate_year_node_size
FNDA:0,_RNvMNtNtCsl8fXSKtwgoJ_14do_memory_core8indexing14spatiotemporalNtB2_19SpatiotemporalIndex25calculate_month_node_size
FNDA:0,_RNvMNtNtCsl8fXSKtwgoJ_14do_memory_core8indexing14spatiotemporalNtB2_19SpatiotemporalIndex25collect_episodes_from_day
FNDA:0,_RNvMNtNtCsl8fXSKtwgoJ_14do_memory_core8indexing14spatiotemporalNtB2_19SpatiotemporalIndex26collect_episodes_from_year
FNDA:0,_RNvMNtNtCsl8fXSKtwgoJ_14do_memory_core8indexing14spatiotemporalNtB2_19SpatiotemporalIndex27collect_episodes_from_month
FNDA:0,_RNvMNtNtCsl8fXSKtwgoJ_14do_memory_core8indexing14spatiotemporalNtB2_19SpatiotemporalIndex3len
FNDA:0,_RNvMNtNtCsl8fXSKtwgoJ_14do_memory_core8indexing14spatiotemporalNtB2_19SpatiotemporalIndex3new
FNDA:0,_RNvMNtNtCsl8fXSKtwgoJ_14do_memory_core8indexing14spatiotemporalNtB2_19SpatiotemporalIndex5clear
FNDA:0,_RNvMNtNtCsl8fXSKtwgoJ_14do_memory_core8indexing14spatiotemporalNtB2_19SpatiotemporalIndex5stats
FNDA:0,_RNvMNtNtCsl8fXSKtwgoJ_14do_memory_core8indexing14spatiotemporalNtB2_19SpatiotemporalIndex6insert
FNDA:0,_RNvMNtNtCsl8fXSKtwgoJ_14do_memory_core8indexing14spatiotemporalNtB2_19SpatiotemporalIndex6remove
FNDA:0,_RNvMNtNtCsl8fXSKtwgoJ_14do_memory_core8indexing14spatiotemporalNtB2_19SpatiotemporalIndex8is_empty
FNDA:0,_RNvMNtNtCsl8fXSKtwgoJ_14do_memory_core8indexing14spatiotemporalNtB2_19SpatiotemporalIndex9query_day
FNDA:0,_RNvXs_NtNtCsl8fXSKtwgoJ_14do_memory_core8indexing14spatiotemporalNtB4_19SpatiotemporalIndexNtNtCs4kUJL3MZFFz_4core7default7Default7default
FNDA:0,_RNvMNtNtCs46cA19QElOV_14do_memory_core8indexing14spatiotemporalNtB2_19SpatiotemporalIndex5stats
FNDA:0,_RNvXs_NtNtCs46cA19QElOV_14do_memory_core8indexing14spatiotemporalNtB4_19SpatiotemporalIndexNtNtCs4kUJL3MZFFz_4core7default7Default7default
FNDA:3,_RNCNvMNtNtCs46cA19QElOV_14do_memory_core8indexing14spatiotemporalNtB4_19SpatiotemporalIndex10query_hour0B8_
FNDA:3,_RNCNvMNtNtCs46cA19QElOV_14do_memory_core8indexing14spatiotemporalNtB4_19SpatiotemporalIndex10query_hours0_0B8_
FNDA:3,_RNCNvMNtNtCs46cA19QElOV_14do_memory_core8indexing14spatiotemporalNtB4_19SpatiotemporalIndex10query_hours1_0B8_
FNDA:3,_RNCNvMNtNtCs46cA19QElOV_14do_memory_core8indexing14spatiotemporalNtB4_19SpatiotemporalIndex10query_hours_0B8_
FNDA:1,_RNCNvMNtNtCs46cA19QElOV_14do_memory_core8indexing14spatiotemporalNtB4_19SpatiotemporalIndex10query_year0B8_
FNDA:1,_RNCNvMNtNtCs46cA19QElOV_14do_memory_core8indexing14spatiotemporalNtB4_19SpatiotemporalIndex11query_month0B8_
FNDA:1,_RNCNvMNtNtCs46cA19QElOV_14do_memory_core8indexing14spatiotemporalNtB4_19SpatiotemporalIndex11query_months_0B8_
FNDA:4,_RNCNvMNtNtCs46cA19QElOV_14do_memory_core8indexing14spatiotemporalNtB4_19SpatiotemporalIndex16cleanup_if_empty0B8_
FNDA:4,_RNCNvMNtNtCs46cA19QElOV_14do_memory_core8indexing14spatiotemporalNtB4_19SpatiotemporalIndex16cleanup_if_emptys0_0B8_
FNDA:4,_RNCNvMNtNtCs46cA19QElOV_14do_memory_core8indexing14spatiotemporalNtB4_19SpatiotemporalIndex16cleanup_if_emptys1_0B8_
FNDA:4,_RNCNvMNtNtCs46cA19QElOV_14do_memory_core8indexing14spatiotemporalNtB4_19SpatiotemporalIndex16cleanup_if_emptys_0B8_
FNDA:54,_RNCNvMNtNtCs46cA19QElOV_14do_memory_core8indexing14spatiotemporalNtB4_19SpatiotemporalIndex6insert0B8_
FNDA:54,_RNCNvMNtNtCs46cA19QElOV_14do_memory_core8indexing14spatiotemporalNtB4_19SpatiotemporalIndex6inserts0_0B8_
FNDA:70,_RNCNvMNtNtCs46cA19QElOV_14do_memory_core8indexing14spatiotemporalNtB4_19SpatiotemporalIndex6inserts1_0B8_
FNDA:54,_RNCNvMNtNtCs46cA19QElOV_14do_memory_core8indexing14spatiotemporalNtB4_19SpatiotemporalIndex6inserts_0B8_
FNDA:0,_RNCNvMNtNtCs46cA19QElOV_14do_memory_core8indexing14spatiotemporalNtB4_19SpatiotemporalIndex9query_day0B8_
FNDA:0,_RNCNvMNtNtCs46cA19QElOV_14do_memory_core8indexing14spatiotemporalNtB4_19SpatiotemporalIndex9query_days0_0B8_
FNDA:0,_RNCNvMNtNtCs46cA19QElOV_14do_memory_core8indexing14spatiotemporalNtB4_19SpatiotemporalIndex9query_days_0B8_
FNDA:3,_RNvMNtNtCs46cA19QElOV_14do_memory_core8indexing14spatiotemporalNtB2_19SpatiotemporalIndex10query_hour
FNDA:2,_RNvMNtNtCs46cA19QElOV_14do_memory_core8indexing14spatiotemporalNtB2_19SpatiotemporalIndex10query_year
FNDA:3,_RNvMNtNtCs46cA19QElOV_14do_memory_core8indexing14spatiotemporalNtB2_19SpatiotemporalIndex10year_count
FNDA:1,_RNvMNtNtCs46cA19QElOV_14do_memory_core8indexing14spatiotemporalNtB2_19SpatiotemporalIndex11query_month
FNDA:9,_RNvMNtNtCs46cA19QElOV_14do_memory_core8indexing14spatiotemporalNtB2_19SpatiotemporalIndex11query_range
FNDA:3,_RNvMNtNtCs46cA19QElOV_14do_memory_core8indexing14spatiotemporalNtB2_19SpatiotemporalIndex12query_bucket
FNDA:4,_RNvMNtNtCs46cA19QElOV_14do_memory_core8indexing14spatiotemporalNtB2_19SpatiotemporalIndex16cleanup_if_empty
FNDA:9,_RNvMNtNtCs46cA19QElOV_14do_memory_core8indexing14spatiotemporalNtB2_19SpatiotemporalIndex17query_month_range
FNDA:8,_RNvMNtNtCs46cA19QElOV_14do_memory_core8indexing14spatiotemporalNtB2_19SpatiotemporalIndex18update_query_stats
FNDA:6,_RNvMNtNtCs46cA19QElOV_14do_memory_core8indexing14spatiotemporalNtB2_19SpatiotemporalIndex21memory_usage_estimate
FNDA:4,_RNvMNtNtCs46cA19QElOV_14do_memory_core8indexing14spatiotemporalNtB2_19SpatiotemporalIndex23calculate_day_node_size
FNDA:4,_RNvMNtNtCs46cA19QElOV_14do_memory_core8indexing14spatiotemporalNtB2_19SpatiotemporalIndex24calculate_hour_node_size
FNDA:4,_RNvMNtNtCs46cA19QElOV_14do_memory_core8indexing14spatiotemporalNtB2_19SpatiotemporalIndex24calculate_year_node_size
FNDA:4,_RNvMNtNtCs46cA19QElOV_14do_memory_core8indexing14spatiotemporalNtB2_19SpatiotemporalIndex25calculate_month_node_size
FNDA:2,_RNvMNtNtCs46cA19QElOV_14do_memory_core8indexing14spatiotemporalNtB2_19SpatiotemporalIndex25collect_episodes_from_day
FNDA:1,_RNvMNtNtCs46cA19QElOV_14do_memory_core8indexing14spatiotemporalNtB2_19SpatiotemporalIndex26collect_episodes_from_year
FNDA:2,_RNvMNtNtCs46cA19QElOV_14do_memory_core8indexing14spatiotemporalNtB2_19SpatiotemporalIndex27collect_episodes_from_month
FNDA:7,_RNvMNtNtCs46cA19QElOV_14do_memory_core8indexing14spatiotemporalNtB2_19SpatiotemporalIndex3len
FNDA:56,_RNvMNtNtCs46cA19QElOV_14do_memory_core8indexing14spatiotemporalNtB2_19SpatiotemporalIndex3new
FNDA:2,_RNvMNtNtCs46cA19QElOV_14do_memory_core8indexing14spatiotemporalNtB2_19SpatiotemporalIndex5clear
FNDA:548,_RNvMNtNtCs46cA19QElOV_14do_memory_core8indexing14spatiotemporalNtB2_19SpatiotemporalIndex6insert
FNDA:6,_RNvMNtNtCs46cA19QElOV_14do_memory_core8indexing14spatiotemporalNtB2_19SpatiotemporalIndex6remove
FNDA:3,_RNvMNtNtCs46cA19QElOV_14do_memory_core8indexing14spatiotemporalNtB2_19SpatiotemporalIndex8is_empty
FNDA:0,_RNvMNtNtCs46cA19QElOV_14do_memory_core8indexing14spatiotemporalNtB2_19SpatiotemporalIndex9query_day
FNF:44
FNH:38
DA:44,56
DA:45,56
DA:46,56
DA:47,56
DA:48,56
DA:49,56
DA:50,56
DA:51,56
DA:52,56
DA:63,548
DA:64,548
DA:65,548
DA:68,548
DA:69,548
DA:70,548
DA:71,548
DA:74,548
DA:75,548
DA:76,548
DA:77,548
DA:80,548
DA:81,548
DA:82,548
DA:83,548
DA:86,548
DA:87,548
DA:88,548
DA:89,548
DA:92,548
DA:95,548
DA:96,548
DA:97,548
DA:98,548
DA:99,548
DA:100,548
DA:101,548
DA:117,6
DA:118,6
DA:120,6
DA:121,0
DA:124,6
DA:125,0
DA:128,6
DA:129,0
DA:132,6
DA:133,2
DA:136,4
DA:138,4
DA:139,4
DA:140,4
DA:141,4
DA:142,4
DA:143,4
DA:144,4
DA:145,4
DA:146,4
DA:147,4
DA:148,4
DA:150,4
DA:151,6
DA:170,9
DA:171,9
DA:172,9
DA:173,9
DA:176,69
DA:177,69
DA:178,60
DA:180,9
DA:181,3
DA:183,6
DA:185,9
DA:186,9
DA:188,0
DA:191,27
DA:192,27
DA:193,18
DA:195,9
DA:196,9
DA:197,9
DA:198,9
DA:199,1
DA:200,1
DA:201,8
DA:206,8
DA:207,8
DA:209,8
DA:210,9
DA:234,3
DA:235,3
DA:236,2
DA:237,1
DA:238,0
DA:240,0
DA:241,0
DA:242,0
DA:243,0
DA:244,0
DA:246,3
DA:250,2
DA:251,2
DA:252,1
DA:253,1
DA:254,2
DA:258,1
DA:259,1
DA:260,1
DA:261,1
DA:262,1
DA:263,1
DA:264,1
DA:265,1
DA:269,0
DA:270,0
DA:271,0
DA:272,0
DA:273,0
DA:274,0
DA:275,0
DA:276,0
DA:277,0
DA:281,3
DA:282,3
DA:283,3
DA:284,3
DA:285,3
DA:286,3
DA:287,3
DA:288,3
DA:292,7
DA:293,7
DA:294,7
DA:298,3
DA:299,3
DA:300,3
DA:304,0
DA:305,0
DA:306,0
DA:309,2
DA:310,2
DA:311,2
DA:312,2
DA:313,2
DA:314,2
DA:318,3
DA:319,3
DA:320,3
DA:324,6
DA:325,6
DA:326,6
DA:327,4
DA:328,4
DA:329,6
DA:330,6
DA:335,2
DA:336,2
DA:337,2
DA:338,2
DA:339,2
DA:340,2
DA:341,2
DA:342,2
DA:345,2
DA:346,2
DA:347,2
DA:348,2
DA:349,2
DA:350,2
DA:351,2
DA:352,2
DA:355,1
DA:356,1
DA:357,1
DA:358,1
DA:359,1
DA:360,1
DA:361,1
DA:362,1
DA:365,4
DA:366,4
DA:367,4
DA:370,4
DA:371,4
DA:372,4
DA:373,4
DA:374,4
DA:375,4
DA:376,4
DA:377,4
DA:380,4
DA:381,4
DA:382,4
DA:383,4
DA:384,4
DA:385,4
DA:386,4
DA:387,4
DA:390,4
DA:391,4
DA:392,4
DA:393,4
DA:394,4
DA:395,4
DA:396,4
DA:397,4
DA:400,9
DA:401,9
DA:402,9
DA:403,9
DA:404,9
DA:405,9
DA:406,9
DA:407,9
DA:408,9
DA:409,3
DA:411,6
DA:413,9
DA:414,9
DA:416,0
DA:419,99
DA:420,99
DA:421,90
DA:424,9
DA:425,3
DA:427,6
DA:429,9
DA:430,9
DA:432,0
DA:435,63
DA:436,63
DA:437,49
DA:439,14
DA:440,14
DA:441,1
DA:442,13
DA:445,8
DA:446,9
DA:449,8
DA:452,8
DA:453,8
DA:456,4
DA:458,4
DA:459,4
DA:460,4
DA:461,4
DA:462,4
DA:463,4
DA:464,4
DA:466,4
DA:467,0
DA:468,4
DA:471,4
DA:472,0
DA:474,4
DA:475,0
DA:477,4
DA:478,0
DA:480,4
DA:481,4
DA:485,0
DA:486,0
DA:487,0
BRF:0
BRH:0
LF:279
LH:245
end_of_record
SF:/app/memory-core/src/indexing/spatiotemporal/types.rs
FN:135,_RNCNvMs2_NtNtNtCsl8fXSKtwgoJ_14do_memory_core8indexing14spatiotemporal5typesNtB7_8HourNode14remove_episode0Bd_
FN:73,_RNvMs0_NtNtNtCsl8fXSKtwgoJ_14do_memory_core8indexing14spatiotemporal5typesNtB5_9MonthNode3new
FN:97,_RNvMs1_NtNtNtCsl8fXSKtwgoJ_14do_memory_core8indexing14spatiotemporal5typesNtB5_7DayNode3new
FN:127,_RNvMs2_NtNtNtCsl8fXSKtwgoJ_14do_memory_core8indexing14spatiotemporal5typesNtB5_8HourNode11add_episode
FN:134,_RNvMs2_NtNtNtCsl8fXSKtwgoJ_14do_memory_core8indexing14spatiotemporal5typesNtB5_8HourNode14remove_episode
FN:119,_RNvMs2_NtNtNtCsl8fXSKtwgoJ_14do_memory_core8indexing14spatiotemporal5typesNtB5_8HourNode3new
FN:144,_RNvMs2_NtNtNtCsl8fXSKtwgoJ_14do_memory_core8indexing14spatiotemporal5typesNtB5_8HourNode8is_empty
FN:249,_RNvMs4_NtNtNtCsl8fXSKtwgoJ_14do_memory_core8indexing14spatiotemporal5typesNtB5_9TimeRange10is_end_day
FN:244,_RNvMs4_NtNtNtCsl8fXSKtwgoJ_14do_memory_core8indexing14spatiotemporal5typesNtB5_9TimeRange12is_end_month
FN:239,_RNvMs4_NtNtNtCsl8fXSKtwgoJ_14do_memory_core8indexing14spatiotemporal5typesNtB5_9TimeRange12is_start_day
FN:229,_RNvMs4_NtNtNtCsl8fXSKtwgoJ_14do_memory_core8indexing14spatiotemporal5typesNtB5_9TimeRange13is_start_year
FN:234,_RNvMs4_NtNtNtCsl8fXSKtwgoJ_14do_memory_core8indexing14spatiotemporal5typesNtB5_9TimeRange14is_start_month
FN:203,_RNvMs4_NtNtNtCsl8fXSKtwgoJ_14do_memory_core8indexing14spatiotemporal5typesNtB5_9TimeRange15from_timestamps
FN:219,_RNvMs4_NtNtNtCsl8fXSKtwgoJ_14do_memory_core8indexing14spatiotemporal5typesNtB5_9TimeRange23extract_time_components
FN:49,_RNvMs_NtNtNtCsl8fXSKtwgoJ_14do_memory_core8indexing14spatiotemporal5typesNtB4_8YearNode3new
FN:25,_RNvXNtNtNtCsl8fXSKtwgoJ_14do_memory_core8indexing14spatiotemporal5typesNtB2_10IndexStatsNtNtCs4kUJL3MZFFz_4core7default7Default7default
FN:179,_RNvXs3_NtNtNtCsl8fXSKtwgoJ_14do_memory_core8indexing14spatiotemporal5typesNtB5_12QueryOptionsNtNtCs4kUJL3MZFFz_4core7default7Default7default
FN:179,_RNvXs3_NtNtNtCs46cA19QElOV_14do_memory_core8indexing14spatiotemporal5typesNtB5_12QueryOptionsNtNtCs4kUJL3MZFFz_4core7default7Default7default
FN:73,_RNvMs0_NtNtNtCs46cA19QElOV_14do_memory_core8indexing14spatiotemporal5typesNtB5_9MonthNode3new
FN:97,_RNvMs1_NtNtNtCs46cA19QElOV_14do_memory_core8indexing14spatiotemporal5typesNtB5_7DayNode3new
FN:127,_RNvMs2_NtNtNtCs46cA19QElOV_14do_memory_core8indexing14spatiotemporal5typesNtB5_8HourNode11add_episode
FN:134,_RNvMs2_NtNtNtCs46cA19QElOV_14do_memory_core8indexing14spatiotemporal5typesNtB5_8HourNode14remove_episode
FN:119,_RNvMs2_NtNtNtCs46cA19QElOV_14do_memory_core8indexing14spatiotemporal5typesNtB5_8HourNode3new
FN:144,_RNvMs2_NtNtNtCs46cA19QElOV_14do_memory_core8indexing14spatiotemporal5typesNtB5_8HourNode8is_empty
FN:249,_RNvMs4_NtNtNtCs46cA19QElOV_14do_memory_core8indexing14spatiotemporal5typesNtB5_9TimeRange10is_end_day
FN:244,_RNvMs4_NtNtNtCs46cA19QElOV_14do_memory_core8indexing14spatiotemporal5typesNtB5_9TimeRange12is_end_month
FN:239,_RNvMs4_NtNtNtCs46cA19QElOV_14do_memory_core8indexing14spatiotemporal5typesNtB5_9TimeRange12is_start_day
FN:229,_RNvMs4_NtNtNtCs46cA19QElOV_14do_memory_core8indexing14spatiotemporal5typesNtB5_9TimeRange13is_start_year
FN:234,_RNvMs4_NtNtNtCs46cA19QElOV_14do_memory_core8indexing14spatiotemporal5typesNtB5_9TimeRange14is_start_month
FN:203,_RNvMs4_NtNtNtCs46cA19QElOV_14do_memory_core8indexing14spatiotemporal5typesNtB5_9TimeRange15from_timestamps
FN:219,_RNvMs4_NtNtNtCs46cA19QElOV_14do_memory_core8indexing14spatiotemporal5typesNtB5_9TimeRange23extract_time_components
FN:49,_RNvMs_NtNtNtCs46cA19QElOV_14do_memory_core8indexing14spatiotemporal5typesNtB4_8YearNode3new
FN:25,_RNvXNtNtNtCs46cA19QElOV_14do_memory_core8indexing14spatiotemporal5typesNtB2_10IndexStatsNtNtCs4kUJL3MZFFz_4core7default7Default7default
FN:135,_RNCNvMs2_NtNtNtCs46cA19QElOV_14do_memory_core8indexing14spatiotemporal5typesNtB7_8HourNode14remove_episode0Bd_
FNDA:0,_RNCNvMs2_NtNtNtCsl8fXSKtwgoJ_14do_memory_core8indexing14spatiotemporal5typesNtB7_8HourNode14remove_episode0Bd_
FNDA:0,_RNvMs0_NtNtNtCsl8fXSKtwgoJ_14do_memory_core8indexing14spatiotemporal5typesNtB5_9MonthNode3new
FNDA:0,_RNvMs1_NtNtNtCsl8fXSKtwgoJ_14do_memory_core8indexing14spatiotemporal5typesNtB5_7DayNode3new
FNDA:0,_RNvMs2_NtNtNtCsl8fXSKtwgoJ_14do_memory_core8indexing14spatiotemporal5typesNtB5_8HourNode11add_episode
FNDA:0,_RNvMs2_NtNtNtCsl8fXSKtwgoJ_14do_memory_core8indexing14spatiotemporal5typesNtB5_8HourNode14remove_episode
FNDA:0,_RNvMs2_NtNtNtCsl8fXSKtwgoJ_14do_memory_core8indexing14spatiotemporal5typesNtB5_8HourNode3new
FNDA:0,_RNvMs2_NtNtNtCsl8fXSKtwgoJ_14do_memory_core8indexing14spatiotemporal5typesNtB5_8HourNode8is_empty
FNDA:0,_RNvMs4_NtNtNtCsl8fXSKtwgoJ_14do_memory_core8indexing14spatiotemporal5typesNtB5_9TimeRange10is_end_day
FNDA:0,_RNvMs4_NtNtNtCsl8fXSKtwgoJ_14do_memory_core8indexing14spatiotemporal5typesNtB5_9TimeRange12is_end_month
FNDA:0,_RNvMs4_NtNtNtCsl8fXSKtwgoJ_14do_memory_core8indexing14spatiotemporal5typesNtB5_9TimeRange12is_start_day
FNDA:0,_RNvMs4_NtNtNtCsl8fXSKtwgoJ_14do_memory_core8indexing14spatiotemporal5typesNtB5_9TimeRange13is_start_year
FNDA:0,_RNvMs4_NtNtNtCsl8fXSKtwgoJ_14do_memory_core8indexing14spatiotemporal5typesNtB5_9TimeRange14is_start_month
FNDA:0,_RNvMs4_NtNtNtCsl8fXSKtwgoJ_14do_memory_core8indexing14spatiotemporal5typesNtB5_9TimeRange15from_timestamps
FNDA:0,_RNvMs4_NtNtNtCsl8fXSKtwgoJ_14do_memory_core8indexing14spatiotemporal5typesNtB5_9TimeRange23extract_time_components
FNDA:0,_RNvMs_NtNtNtCsl8fXSKtwgoJ_14do_memory_core8indexing14spatiotemporal5typesNtB4_8YearNode3new
FNDA:0,_RNvXNtNtNtCsl8fXSKtwgoJ_14do_memory_core8indexing14spatiotemporal5typesNtB2_10IndexStatsNtNtCs4kUJL3MZFFz_4core7default7Default7default
FNDA:0,_RNvXs3_NtNtNtCsl8fXSKtwgoJ_14do_memory_core8indexing14spatiotemporal5typesNtB5_12QueryOptionsNtNtCs4kUJL3MZFFz_4core7default7Default7default
FNDA:0,_RNvXs3_NtNtNtCs46cA19QElOV_14do_memory_core8indexing14spatiotemporal5typesNtB5_12QueryOptionsNtNtCs4kUJL3MZFFz_4core7default7Default7default
FNDA:54,_RNvMs0_NtNtNtCs46cA19QElOV_14do_memory_core8indexing14spatiotemporal5typesNtB5_9MonthNode3new
FNDA:54,_RNvMs1_NtNtNtCs46cA19QElOV_14do_memory_core8indexing14spatiotemporal5typesNtB5_7DayNode3new
FNDA:548,_RNvMs2_NtNtNtCs46cA19QElOV_14do_memory_core8indexing14spatiotemporal5typesNtB5_8HourNode11add_episode
FNDA:4,_RNvMs2_NtNtNtCs46cA19QElOV_14do_memory_core8indexing14spatiotemporal5typesNtB5_8HourNode14remove_episode
FNDA:70,_RNvMs2_NtNtNtCs46cA19QElOV_14do_memory_core8indexing14spatiotemporal5typesNtB5_8HourNode3new
FNDA:4,_RNvMs2_NtNtNtCs46cA19QElOV_14do_memory_core8indexing14spatiotemporal5typesNtB5_8HourNode8is_empty
FNDA:9,_RNvMs4_NtNtNtCs46cA19QElOV_14do_memory_core8indexing14spatiotemporal5typesNtB5_9TimeRange10is_end_day
FNDA:18,_RNvMs4_NtNtNtCs46cA19QElOV_14do_memory_core8indexing14spatiotemporal5typesNtB5_9TimeRange12is_end_month
FNDA:9,_RNvMs4_NtNtNtCs46cA19QElOV_14do_memory_core8indexing14spatiotemporal5typesNtB5_9TimeRange12is_start_day
FNDA:9,_RNvMs4_NtNtNtCs46cA19QElOV_14do_memory_core8indexing14spatiotemporal5typesNtB5_9TimeRange13is_start_year
FNDA:9,_RNvMs4_NtNtNtCs46cA19QElOV_14do_memory_core8indexing14spatiotemporal5typesNtB5_9TimeRange14is_start_month
FNDA:9,_RNvMs4_NtNtNtCs46cA19QElOV_14do_memory_core8indexing14spatiotemporal5typesNtB5_9TimeRange15from_timestamps
FNDA:572,_RNvMs4_NtNtNtCs46cA19QElOV_14do_memory_core8indexing14spatiotemporal5typesNtB5_9TimeRange23extract_time_components
FNDA:54,_RNvMs_NtNtNtCs46cA19QElOV_14do_memory_core8indexing14spatiotemporal5typesNtB4_8YearNode3new
FNDA:58,_RNvXNtNtNtCs46cA19QElOV_14do_memory_core8indexing14spatiotemporal5typesNtB2_10IndexStatsNtNtCs4kUJL3MZFFz_4core7default7Default7default
FNDA:4,_RNCNvMs2_NtNtNtCs46cA19QElOV_14do_memory_core8indexing14spatiotemporal5typesNtB7_8HourNode14remove_episode0Bd_
FNF:17
FNH:16
DA:25,58
DA:26,58
DA:27,58
DA:28,58
DA:29,58
DA:30,58
DA:31,58
DA:32,58
DA:49,54
DA:50,54
DA:51,54
DA:52,54
DA:53,54
DA:54,54
DA:55,54
DA:56,54
DA:73,54
DA:74,54
DA:75,54
DA:76,54
DA:77,54
DA:78,54
DA:79,54
DA:80,54
DA:97,54
DA:98,54
DA:99,54
DA:100,54
DA:101,54
DA:102,54
DA:103,54
DA:104,54
DA:119,70
DA:120,70
DA:121,70
DA:122,70
DA:123,70
DA:124,70
DA:125,70
DA:127,548
DA:128,548
DA:129,548
DA:130,548
DA:131,548
DA:132,548
DA:134,4
DA:135,4
DA:136,4
DA:137,4
DA:138,4
DA:140,0
DA:142,4
DA:144,4
DA:145,4
DA:146,4
DA:179,0
DA:180,0
DA:181,0
DA:182,0
DA:183,0
DA:184,0
DA:185,0
DA:203,9
DA:204,9
DA:205,9
DA:206,9
DA:207,9
DA:208,9
DA:209,9
DA:210,9
DA:211,9
DA:212,9
DA:213,9
DA:214,9
DA:215,9
DA:216,9
DA:219,572
DA:220,572
DA:221,572
DA:222,572
DA:223,572
DA:224,572
DA:225,572
DA:226,572
DA:229,9
DA:230,9
DA:231,9
DA:234,9
DA:235,9
DA:236,9
DA:239,9
DA:240,9
DA:241,9
DA:244,18
DA:245,18
DA:246,18
DA:249,9
DA:250,9
DA:251,9
BRF:0
BRH:0
LF:100
LH:92
end_of_record
SF:/app/memory-core/src/learning/config.rs
FN:26,_RNvXNtNtCsl8fXSKtwgoJ_14do_memory_core8learning6configNtB2_11QueueConfigNtNtCs4kUJL3MZFFz_4core7default7Default7default
FN:26,_RNvXNtNtCs46cA19QElOV_14do_memory_core8learning6configNtB2_11QueueConfigNtNtCs4kUJL3MZFFz_4core7default7Default7default
FN:48,_RNvNtNtNtCs46cA19QElOV_14do_memory_core8learning6config5testss_18test_custom_config
FN:40,_RNvNtNtNtCs46cA19QElOV_14do_memory_core8learning6config5testss_19test_default_config
FNDA:0,_RNvXNtNtCsl8fXSKtwgoJ_14do_memory_core8learning6configNtB2_11QueueConfigNtNtCs4kUJL3MZFFz_4core7default7Default7default
FNDA:1,_RNvXNtNtCs46cA19QElOV_14do_memory_core8learning6configNtB2_11QueueConfigNtNtCs4kUJL3MZFFz_4core7default7Default7default
FNDA:1,_RNvNtNtNtCs46cA19QElOV_14do_memory_core8learning6config5testss_18test_custom_config
FNDA:1,_RNvNtNtNtCs46cA19QElOV_14do_memory_core8learning6config5testss_19test_default_config
FNF:3
FNH:3
DA:26,1
DA:27,1
DA:28,1
DA:29,1
DA:30,1
DA:31,1
DA:32,1
DA:40,1
DA:41,1
DA:42,1
DA:43,1
DA:44,1
DA:45,1
DA:48,1
DA:49,1
DA:50,1
DA:51,1
DA:52,1
DA:53,1
DA:54,1
DA:55,1
DA:56,1
DA:57,1
BRF:0
BRH:0
LF:23
LH:23
end_of_record
SF:/app/memory-core/src/learning/queue/operations.rs
FN:285,_RNCNvMNtNtNtCsl8fXSKtwgoJ_14do_memory_core8learning5queue10operationsNtB4_22PatternExtractionQueue10queue_size0Ba_
FN:73,_RNCNvMNtNtNtCsl8fXSKtwgoJ_14do_memory_core8learning5queue10operationsNtB4_22PatternExtractionQueue15enqueue_episode0Ba_
FN:312,_RNCNvMNtNtNtCsl8fXSKtwgoJ_14do_memory_core8learning5queue10operationsNtB4_22PatternExtractionQueue16wait_until_empty0Ba_
FN:294,_RNCNvMNtNtNtCsl8fXSKtwgoJ_14do_memory_core8learning5queue10operationsNtB4_22PatternExtractionQueue8shutdown0Ba_
FN:277,_RNCNvMNtNtNtCsl8fXSKtwgoJ_14do_memory_core8learning5queue10operationsNtB4_22PatternExtractionQueue9get_stats0Ba_
FN:129,_RNCNCNvMNtNtNtCsl8fXSKtwgoJ_14do_memory_core8learning5queue10operationsNtB6_22PatternExtractionQueue13start_workers00Bc_
FN:159,_RNCNvMNtNtNtCsl8fXSKtwgoJ_14do_memory_core8learning5queue10operationsNtB4_22PatternExtractionQueue11worker_loop0Ba_
FN:108,_RNCNvMNtNtNtCsl8fXSKtwgoJ_14do_memory_core8learning5queue10operationsNtB4_22PatternExtractionQueue13start_workers0Ba_
FN:246,_RNCNvMNtNtNtCsl8fXSKtwgoJ_14do_memory_core8learning5queue10operationsNtB4_22PatternExtractionQueue28extract_patterns_for_episode0Ba_
FN:285,_RNvMNtNtNtCsl8fXSKtwgoJ_14do_memory_core8learning5queue10operationsNtB2_22PatternExtractionQueue10queue_size
FN:151,_RNvMNtNtNtCsl8fXSKtwgoJ_14do_memory_core8learning5queue10operationsNtB2_22PatternExtractionQueue11worker_loop
FN:108,_RNvMNtNtNtCsl8fXSKtwgoJ_14do_memory_core8learning5queue10operationsNtB2_22PatternExtractionQueue13start_workers
FN:73,_RNvMNtNtNtCsl8fXSKtwgoJ_14do_memory_core8learning5queue10operationsNtB2_22PatternExtractionQueue15enqueue_episode
FN:312,_RNvMNtNtNtCsl8fXSKtwgoJ_14do_memory_core8learning5queue10operationsNtB2_22PatternExtractionQueue16wait_until_empty
FN:242,_RNvMNtNtNtCsl8fXSKtwgoJ_14do_memory_core8learning5queue10operationsNtB2_22PatternExtractionQueue28extract_patterns_for_episode
FN:44,_RNvMNtNtNtCsl8fXSKtwgoJ_14do_memory_core8learning5queue10operationsNtB2_22PatternExtractionQueue3new
FN:294,_RNvMNtNtNtCsl8fXSKtwgoJ_14do_memory_core8learning5queue10operationsNtB2_22PatternExtractionQueue8shutdown
FN:277,_RNvMNtNtNtCsl8fXSKtwgoJ_14do_memory_core8learning5queue10operationsNtB2_22PatternExtractionQueue9get_stats
FN:73,_RNCNvMNtNtNtCsl8fXSKtwgoJ_14do_memory_core8learning5queue10operationsNtB4_22PatternExtractionQueue15enqueue_episode0Csl2t77M2budw_16async_extraction
FN:277,_RNCNvMNtNtNtCsl8fXSKtwgoJ_14do_memory_core8learning5queue10operationsNtB4_22PatternExtractionQueue9get_stats0Csl2t77M2budw_16async_extraction
FN:73,_RNCNvMNtNtNtCsl8fXSKtwgoJ_14do_memory_core8learning5queue10operationsNtB4_22PatternExtractionQueue15enqueue_episode0Cs8Y0Nm3vik3R_10compliance
FN:129,_RNCNCNvMNtNtNtCs46cA19QElOV_14do_memory_core8learning5queue10operationsNtB6_22PatternExtractionQueue13start_workers00Bc_
FN:285,_RNCNvMNtNtNtCs46cA19QElOV_14do_memory_core8learning5queue10operationsNtB4_22PatternExtractionQueue10queue_size0Ba_
FN:159,_RNCNvMNtNtNtCs46cA19QElOV_14do_memory_core8learning5queue10operationsNtB4_22PatternExtractionQueue11worker_loop0Ba_
FN:108,_RNCNvMNtNtNtCs46cA19QElOV_14do_memory_core8learning5queue10operationsNtB4_22PatternExtractionQueue13start_workers0Ba_
FN:73,_RNCNvMNtNtNtCs46cA19QElOV_14do_memory_core8learning5queue10operationsNtB4_22PatternExtractionQueue15enqueue_episode0Ba_
FN:312,_RNCNvMNtNtNtCs46cA19QElOV_14do_memory_core8learning5queue10operationsNtB4_22PatternExtractionQueue16wait_until_empty0Ba_
FN:246,_RNCNvMNtNtNtCs46cA19QElOV_14do_memory_core8learning5queue10operationsNtB4_22PatternExtractionQueue28extract_patterns_for_episode0Ba_
FN:294,_RNCNvMNtNtNtCs46cA19QElOV_14do_memory_core8learning5queue10operationsNtB4_22PatternExtractionQueue8shutdown0Ba_
FN:277,_RNCNvMNtNtNtCs46cA19QElOV_14do_memory_core8learning5queue10operationsNtB4_22PatternExtractionQueue9get_stats0Ba_
FN:285,_RNvMNtNtNtCs46cA19QElOV_14do_memory_core8learning5queue10operationsNtB2_22PatternExtractionQueue10queue_size
FN:151,_RNvMNtNtNtCs46cA19QElOV_14do_memory_core8learning5queue10operationsNtB2_22PatternExtractionQueue11worker_loop
FN:108,_RNvMNtNtNtCs46cA19QElOV_14do_memory_core8learning5queue10operationsNtB2_22PatternExtractionQueue13start_workers
FN:73,_RNvMNtNtNtCs46cA19QElOV_14do_memory_core8learning5queue10operationsNtB2_22PatternExtractionQueue15enqueue_episode
FN:312,_RNvMNtNtNtCs46cA19QElOV_14do_memory_core8learning5queue10operationsNtB2_22PatternExtractionQueue16wait_until_empty
FN:242,_RNvMNtNtNtCs46cA19QElOV_14do_memory_core8learning5queue10operationsNtB2_22PatternExtractionQueue28extract_patterns_for_episode
FN:44,_RNvMNtNtNtCs46cA19QElOV_14do_memory_core8learning5queue10operationsNtB2_22PatternExtractionQueue3new
FN:294,_RNvMNtNtNtCs46cA19QElOV_14do_memory_core8learning5queue10operationsNtB2_22PatternExtractionQueue8shutdown
FN:277,_RNvMNtNtNtCs46cA19QElOV_14do_memory_core8learning5queue10operationsNtB2_22PatternExtractionQueue9get_stats
FN:73,_RNCNvMNtNtNtCsl8fXSKtwgoJ_14do_memory_core8learning5queue10operationsNtB4_22PatternExtractionQueue15enqueue_episode0CsgrBw30QCVrl_26embedding_integration_test
FN:73,_RNCNvMNtNtNtCsl8fXSKtwgoJ_14do_memory_core8learning5queue10operationsNtB4_22PatternExtractionQueue15enqueue_episode0Cs5rMxCUgDzf0_22episode_filtering_test
FN:73,_RNCNvMNtNtNtCsl8fXSKtwgoJ_14do_memory_core8learning5queue10operationsNtB4_22PatternExtractionQueue15enqueue_episode0Cs3Fo6gHJh4GI_24genesis_integration_test
FN:73,_RNCNvMNtNtNtCsl8fXSKtwgoJ_14do_memory_core8learning5queue10operationsNtB4_22PatternExtractionQueue15enqueue_episode0CsbMzWChOpjhm_18heuristic_learning
FN:73,_RNCNvMNtNtNtCsl8fXSKtwgoJ_14do_memory_core8learning5queue10operationsNtB4_22PatternExtractionQueue15enqueue_episode0CsaPsuztuIJpk_16input_validation
FN:73,_RNCNvMNtNtNtCsl8fXSKtwgoJ_14do_memory_core8learning5queue10operationsNtB4_22PatternExtractionQueue15enqueue_episode0Cs88LU71L0mqI_14learning_cycle
FN:73,_RNCNvMNtNtNtCsl8fXSKtwgoJ_14do_memory_core8learning5queue10operationsNtB4_22PatternExtractionQueue15enqueue_episode0Csl4UHWu7meyU_31pattern_search_integration_test
FN:73,_RNCNvMNtNtNtCsl8fXSKtwgoJ_14do_memory_core8learning5queue10operationsNtB4_22PatternExtractionQueue15enqueue_episode0Csk8xWN7fShrt_11performance
FN:73,_RNCNvMNtNtNtCsl8fXSKtwgoJ_14do_memory_core8learning5queue10operationsNtB4_22PatternExtractionQueue15enqueue_episode0Cs5rUVsF5rDW0_23premem_integration_test
FN:73,_RNCNvMNtNtNtCsl8fXSKtwgoJ_14do_memory_core8learning5queue10operationsNtB4_22PatternExtractionQueue15enqueue_episode0Csdoax4t5h3WK_10regression
FN:73,_RNCNvMNtNtNtCsl8fXSKtwgoJ_14do_memory_core8learning5queue10operationsNtB4_22PatternExtractionQueue15enqueue_episode0CsaoCCEImll0o_36semantic_hierarchical_retrieval_test
FN:73,_RNCNvMNtNtNtCsl8fXSKtwgoJ_14do_memory_core8learning5queue10operationsNtB4_22PatternExtractionQueue15enqueue_episode0CsbPJcDfmBHDL_13step_batching
FN:73,_RNCNvMNtNtNtCsl8fXSKtwgoJ_14do_memory_core8learning5queue10operationsNtB4_22PatternExtractionQueue15enqueue_episode0CsJzhEr7sGW1_19tag_operations_test
FNDA:0,_RNCNvMNtNtNtCsl8fXSKtwgoJ_14do_memory_core8learning5queue10operationsNtB4_22PatternExtractionQueue10queue_size0Ba_
FNDA:0,_RNCNvMNtNtNtCsl8fXSKtwgoJ_14do_memory_core8learning5queue10operationsNtB4_22PatternExtractionQueue15enqueue_episode0Ba_
FNDA:0,_RNCNvMNtNtNtCsl8fXSKtwgoJ_14do_memory_core8learning5queue10operationsNtB4_22PatternExtractionQueue16wait_until_empty0Ba_
FNDA:0,_RNCNvMNtNtNtCsl8fXSKtwgoJ_14do_memory_core8learning5queue10operationsNtB4_22PatternExtractionQueue8shutdown0Ba_
FNDA:0,_RNCNvMNtNtNtCsl8fXSKtwgoJ_14do_memory_core8learning5queue10operationsNtB4_22PatternExtractionQueue9get_stats0Ba_
FNDA:25,_RNCNCNvMNtNtNtCsl8fXSKtwgoJ_14do_memory_core8learning5queue10operationsNtB6_22PatternExtractionQueue13start_workers00Bc_
FNDA:25,_RNCNvMNtNtNtCsl8fXSKtwgoJ_14do_memory_core8learning5queue10operationsNtB4_22PatternExtractionQueue11worker_loop0Ba_
FNDA:8,_RNCNvMNtNtNtCsl8fXSKtwgoJ_14do_memory_core8learning5queue10operationsNtB4_22PatternExtractionQueue13start_workers0Ba_
FNDA:33,_RNCNvMNtNtNtCsl8fXSKtwgoJ_14do_memory_core8learning5queue10operationsNtB4_22PatternExtractionQueue28extract_patterns_for_episode0Ba_
FNDA:0,_RNvMNtNtNtCsl8fXSKtwgoJ_14do_memory_core8learning5queue10operationsNtB2_22PatternExtractionQueue10queue_size
FNDA:25,_RNvMNtNtNtCsl8fXSKtwgoJ_14do_memory_core8learning5queue10operationsNtB2_22PatternExtractionQueue11worker_loop
FNDA:8,_RNvMNtNtNtCsl8fXSKtwgoJ_14do_memory_core8learning5queue10operationsNtB2_22PatternExtractionQueue13start_workers
FNDA:34,_RNvMNtNtNtCsl8fXSKtwgoJ_14do_memory_core8learning5queue10operationsNtB2_22PatternExtractionQueue15enqueue_episode
FNDA:0,_RNvMNtNtNtCsl8fXSKtwgoJ_14do_memory_core8learning5queue10operationsNtB2_22PatternExtractionQueue16wait_until_empty
FNDA:33,_RNvMNtNtNtCsl8fXSKtwgoJ_14do_memory_core8learning5queue10operationsNtB2_22PatternExtractionQueue28extract_patterns_for_episode
FNDA:8,_RNvMNtNtNtCsl8fXSKtwgoJ_14do_memory_core8learning5queue10operationsNtB2_22PatternExtractionQueue3new
FNDA:0,_RNvMNtNtNtCsl8fXSKtwgoJ_14do_memory_core8learning5queue10operationsNtB2_22PatternExtractionQueue8shutdown
FNDA:10,_RNvMNtNtNtCsl8fXSKtwgoJ_14do_memory_core8learning5queue10operationsNtB2_22PatternExtractionQueue9get_stats
FNDA:34,_RNCNvMNtNtNtCsl8fXSKtwgoJ_14do_memory_core8learning5queue10operationsNtB4_22PatternExtractionQueue15enqueue_episode0Csl2t77M2budw_16async_extraction
FNDA:10,_RNCNvMNtNtNtCsl8fXSKtwgoJ_14do_memory_core8learning5queue10operationsNtB4_22PatternExtractionQueue9get_stats0Csl2t77M2budw_16async_extraction
FNDA:0,_RNCNvMNtNtNtCsl8fXSKtwgoJ_14do_memory_core8learning5queue10operationsNtB4_22PatternExtractionQueue15enqueue_episode0Cs8Y0Nm3vik3R_10compliance
FNDA:10,_RNCNCNvMNtNtNtCs46cA19QElOV_14do_memory_core8learning5queue10operationsNtB6_22PatternExtractionQueue13start_workers00Bc_
FNDA:8,_RNCNvMNtNtNtCs46cA19QElOV_14do_memory_core8learning5queue10operationsNtB4_22PatternExtractionQueue10queue_size0Ba_
FNDA:10,_RNCNvMNtNtNtCs46cA19QElOV_14do_memory_core8learning5queue10operationsNtB4_22PatternExtractionQueue11worker_loop0Ba_
FNDA:4,_RNCNvMNtNtNtCs46cA19QElOV_14do_memory_core8learning5queue10operationsNtB4_22PatternExtractionQueue13start_workers0Ba_
FNDA:27,_RNCNvMNtNtNtCs46cA19QElOV_14do_memory_core8learning5queue10operationsNtB4_22PatternExtractionQueue15enqueue_episode0Ba_
FNDA:2,_RNCNvMNtNtNtCs46cA19QElOV_14do_memory_core8learning5queue10operationsNtB4_22PatternExtractionQueue16wait_until_empty0Ba_
FNDA:8,_RNCNvMNtNtNtCs46cA19QElOV_14do_memory_core8learning5queue10operationsNtB4_22PatternExtractionQueue28extract_patterns_for_episode0Ba_
FNDA:1,_RNCNvMNtNtNtCs46cA19QElOV_14do_memory_core8learning5queue10operationsNtB4_22PatternExtractionQueue8shutdown0Ba_
FNDA:6,_RNCNvMNtNtNtCs46cA19QElOV_14do_memory_core8learning5queue10operationsNtB4_22PatternExtractionQueue9get_stats0Ba_
FNDA:8,_RNvMNtNtNtCs46cA19QElOV_14do_memory_core8learning5queue10operationsNtB2_22PatternExtractionQueue10queue_size
FNDA:10,_RNvMNtNtNtCs46cA19QElOV_14do_memory_core8learning5queue10operationsNtB2_22PatternExtractionQueue11worker_loop
FNDA:4,_RNvMNtNtNtCs46cA19QElOV_14do_memory_core8learning5queue10operationsNtB2_22PatternExtractionQueue13start_workers
FNDA:27,_RNvMNtNtNtCs46cA19QElOV_14do_memory_core8learning5queue10operationsNtB2_22PatternExtractionQueue15enqueue_episode
FNDA:2,_RNvMNtNtNtCs46cA19QElOV_14do_memory_core8learning5queue10operationsNtB2_22PatternExtractionQueue16wait_until_empty
FNDA:8,_RNvMNtNtNtCs46cA19QElOV_14do_memory_core8learning5queue10operationsNtB2_22PatternExtractionQueue28extract_patterns_for_episode
FNDA:8,_RNvMNtNtNtCs46cA19QElOV_14do_memory_core8learning5queue10operationsNtB2_22PatternExtractionQueue3new
FNDA:1,_RNvMNtNtNtCs46cA19QElOV_14do_memory_core8learning5queue10operationsNtB2_22PatternExtractionQueue8shutdown
FNDA:6,_RNvMNtNtNtCs46cA19QElOV_14do_memory_core8learning5queue10operationsNtB2_22PatternExtractionQueue9get_stats
FNDA:0,_RNCNvMNtNtNtCsl8fXSKtwgoJ_14do_memory_core8learning5queue10operationsNtB4_22PatternExtractionQueue15enqueue_episode0CsgrBw30QCVrl_26embedding_integration_test
FNDA:0,_RNCNvMNtNtNtCsl8fXSKtwgoJ_14do_memory_core8learning5queue10operationsNtB4_22PatternExtractionQueue15enqueue_episode0Cs5rMxCUgDzf0_22episode_filtering_test
FNDA:0,_RNCNvMNtNtNtCsl8fXSKtwgoJ_14do_memory_core8learning5queue10operationsNtB4_22PatternExtractionQueue15enqueue_episode0Cs3Fo6gHJh4GI_24genesis_integration_test
FNDA:0,_RNCNvMNtNtNtCsl8fXSKtwgoJ_14do_memory_core8learning5queue10operationsNtB4_22PatternExtractionQueue15enqueue_episode0CsbMzWChOpjhm_18heuristic_learning
FNDA:0,_RNCNvMNtNtNtCsl8fXSKtwgoJ_14do_memory_core8learning5queue10operationsNtB4_22PatternExtractionQueue15enqueue_episode0CsaPsuztuIJpk_16input_validation
FNDA:0,_RNCNvMNtNtNtCsl8fXSKtwgoJ_14do_memory_core8learning5queue10operationsNtB4_22PatternExtractionQueue15enqueue_episode0Cs88LU71L0mqI_14learning_cycle
FNDA:0,_RNCNvMNtNtNtCsl8fXSKtwgoJ_14do_memory_core8learning5queue10operationsNtB4_22PatternExtractionQueue15enqueue_episode0Csl4UHWu7meyU_31pattern_search_integration_test
FNDA:0,_RNCNvMNtNtNtCsl8fXSKtwgoJ_14do_memory_core8learning5queue10operationsNtB4_22PatternExtractionQueue15enqueue_episode0Csk8xWN7fShrt_11performance
FNDA:0,_RNCNvMNtNtNtCsl8fXSKtwgoJ_14do_memory_core8learning5queue10operationsNtB4_22PatternExtractionQueue15enqueue_episode0Cs5rUVsF5rDW0_23premem_integration_test
FNDA:0,_RNCNvMNtNtNtCsl8fXSKtwgoJ_14do_memory_core8learning5queue10operationsNtB4_22PatternExtractionQueue15enqueue_episode0Csdoax4t5h3WK_10regression
FNDA:0,_RNCNvMNtNtNtCsl8fXSKtwgoJ_14do_memory_core8learning5queue10operationsNtB4_22PatternExtractionQueue15enqueue_episode0CsaoCCEImll0o_36semantic_hierarchical_retrieval_test
FNDA:0,_RNCNvMNtNtNtCsl8fXSKtwgoJ_14do_memory_core8learning5queue10operationsNtB4_22PatternExtractionQueue15enqueue_episode0CsbPJcDfmBHDL_13step_batching
FNDA:0,_RNCNvMNtNtNtCsl8fXSKtwgoJ_14do_memory_core8learning5queue10operationsNtB4_22PatternExtractionQueue15enqueue_episode0CsJzhEr7sGW1_19tag_operations_test
FNF:18
FNH:18
DA:44,16
DA:45,16
DA:47,16
DA:48,16
DA:49,16
DA:50,16
DA:51,16
DA:52,16
DA:53,16
DA:54,16
DA:55,16
DA:56,16
DA:57,16
DA:58,16
DA:73,61
DA:102,61
DA:108,12
DA:109,12
DA:116,12
DA:117,12
DA:121,39
DA:122,39
DA:123,39
DA:124,39
DA:125,39
DA:126,39
DA:127,39
DA:129,39
DA:130,35
DA:131,35
DA:132,35
DA:133,35
DA:134,35
DA:135,35
DA:136,35
DA:137,35
DA:138,35
DA:139,35
DA:140,0
DA:143,12
DA:144,12
DA:151,35
DA:152,35
DA:153,35
DA:154,35
DA:155,35
DA:156,35
DA:157,35
DA:158,35
DA:159,35
DA:222,0
DA:242,41
DA:243,41
DA:244,41
DA:245,41
DA:246,41
DA:272,41
DA:277,16
DA:278,16
DA:279,16
DA:280,16
DA:285,8
DA:286,8
DA:287,8
DA:288,8
DA:294,1
DA:295,1
DA:296,1
DA:297,1
DA:298,1
DA:312,2
DA:313,2
DA:315,4
DA:316,4
DA:317,4
DA:318,2
DA:319,2
DA:321,2
DA:324,0
DA:325,2
BRF:0
BRH:0
LF:89
LH:86
end_of_record
SF:/app/memory-core/src/learning/queue/types.rs
FN:26,_RNvXNtNtNtCsl8fXSKtwgoJ_14do_memory_core8learning5queue5typesNtB2_11QueueConfigNtNtCs4kUJL3MZFFz_4core7default7Default7default
FN:26,_RNvXNtNtNtCs46cA19QElOV_14do_memory_core8learning5queue5typesNtB2_11QueueConfigNtNtCs4kUJL3MZFFz_4core7default7Default7default
FNDA:7,_RNvXNtNtNtCsl8fXSKtwgoJ_14do_memory_core8learning5queue5typesNtB2_11QueueConfigNtNtCs4kUJL3MZFFz_4core7default7Default7default
FNDA:8,_RNvXNtNtNtCs46cA19QElOV_14do_memory_core8learning5queue5typesNtB2_11QueueConfigNtNtCs4kUJL3MZFFz_4core7default7Default7default
FNF:1
FNH:1
DA:26,15
DA:27,15
DA:28,15
DA:29,15
DA:30,15
DA:31,15
DA:32,15
BRF:0
BRH:0
LF:7
LH:7
end_of_record
SF:/app/memory-core/src/learning/stats.rs
FN:35,_RNvNtNtNtCs46cA19QElOV_14do_memory_core8learning5stats5testss_16test_stats_clone
FN:25,_RNvNtNtNtCs46cA19QElOV_14do_memory_core8learning5stats5testss_18test_default_stats
FNDA:1,_RNvNtNtNtCs46cA19QElOV_14do_memory_core8learning5stats5testss_16test_stats_clone
FNDA:1,_RNvNtNtNtCs46cA19QElOV_14do_memory_core8learning5stats5testss_18test_default_stats
FNF:2
FNH:2
DA:25,1
DA:26,1
DA:27,1
DA:28,1
DA:29,1
DA:30,1
DA:31,1
DA:32,1
DA:35,1
DA:36,1
DA:37,1
DA:38,1
DA:39,1
DA:40,1
DA:41,1
DA:42,1
DA:44,1
DA:45,1
DA:46,1
DA:47,1
DA:48,1
DA:49,1
DA:50,1
BRF:0
BRH:0
LF:23
LH:23
end_of_record
SF:/app/memory-core/src/memory/api.rs
FN:63,_RNCNvMNtNtCsl8fXSKtwgoJ_14do_memory_core6memory3apiNtNtB6_5types18SelfLearningMemory17get_agent_metrics0B8_
FN:68,_RNCNvMNtNtCsl8fXSKtwgoJ_14do_memory_core6memory3apiNtNtB6_5types18SelfLearningMemory21get_all_agent_metrics0B8_
FN:73,_RNCNvMNtNtCsl8fXSKtwgoJ_14do_memory_core6memory3apiNtNtB6_5types18SelfLearningMemory22get_monitoring_summary0B8_
FN:32,_RNCNvMNtNtCsl8fXSKtwgoJ_14do_memory_core6memory3apiNtNtB6_5types18SelfLearningMemory22record_agent_execution0B8_
FN:50,_RNCNvMNtNtCsl8fXSKtwgoJ_14do_memory_core6memory3apiNtNtB6_5types18SelfLearningMemory31record_agent_execution_detailed0B8_
FN:22,_RNCNvMNtNtCsl8fXSKtwgoJ_14do_memory_core6memory3apiNtNtB6_5types18SelfLearningMemory9get_stats0B8_
FN:400,_RNCNvMs0_NtNtCsl8fXSKtwgoJ_14do_memory_core6memory3apiNtNtB9_5types18SelfLearningMemory24get_recommendation_stats0Bb_
FN:388,_RNCNvMs0_NtNtCsl8fXSKtwgoJ_14do_memory_core6memory3apiNtNtB9_5types18SelfLearningMemory27get_recommendation_feedback0Bb_
FN:306,_RNCNvMs0_NtNtCsl8fXSKtwgoJ_14do_memory_core6memory3apiNtNtB9_5types18SelfLearningMemory29record_recommendation_session0Bb_
FN:356,_RNCNvMs0_NtNtCsl8fXSKtwgoJ_14do_memory_core6memory3apiNtNtB9_5types18SelfLearningMemory30record_recommendation_feedback0Bb_
FN:371,_RNCNvMs0_NtNtCsl8fXSKtwgoJ_14do_memory_core6memory3apiNtNtB9_5types18SelfLearningMemory38get_recommendation_session_for_episode0Bb_
FN:191,_RNCNvMs_NtNtCsl8fXSKtwgoJ_14do_memory_core6memory3apiNtNtB8_5types18SelfLearningMemory27fetch_feedback_from_storage0Ba_
FN:95,_RNCNvMs_NtNtCsl8fXSKtwgoJ_14do_memory_core6memory3apiNtNtB8_5types18SelfLearningMemory30persist_recommendation_session0Ba_
FN:119,_RNCNvMs_NtNtCsl8fXSKtwgoJ_14do_memory_core6memory3apiNtNtB8_5types18SelfLearningMemory31persist_recommendation_feedback0Ba_
FN:144,_RNCNvMs_NtNtCsl8fXSKtwgoJ_14do_memory_core6memory3apiNtNtB8_5types18SelfLearningMemory38fetch_session_for_episode_from_storage0Ba_
FN:245,_RNCNvMs_NtNtCsl8fXSKtwgoJ_14do_memory_core6memory3apiNtNtB8_5types18SelfLearningMemory39fetch_recommendation_stats_from_storage0Ba_
FN:89,_RNvMNtNtCsl8fXSKtwgoJ_14do_memory_core6memory3apiNtNtB4_5types18SelfLearningMemory11clear_cache
FN:63,_RNvMNtNtCsl8fXSKtwgoJ_14do_memory_core6memory3apiNtNtB4_5types18SelfLearningMemory17get_agent_metrics
FN:79,_RNvMNtNtCsl8fXSKtwgoJ_14do_memory_core6memory3apiNtNtB4_5types18SelfLearningMemory17get_cache_metrics
FN:84,_RNvMNtNtCsl8fXSKtwgoJ_14do_memory_core6memory3apiNtNtB4_5types18SelfLearningMemory19clear_cache_metrics
FN:68,_RNvMNtNtCsl8fXSKtwgoJ_14do_memory_core6memory3apiNtNtB4_5types18SelfLearningMemory21get_all_agent_metrics
FN:73,_RNvMNtNtCsl8fXSKtwgoJ_14do_memory_core6memory3apiNtNtB4_5types18SelfLearningMemory22get_monitoring_summary
FN:27,_RNvMNtNtCsl8fXSKtwgoJ_14do_memory_core6memory3apiNtNtB4_5types18SelfLearningMemory22record_agent_execution
FN:43,_RNvMNtNtCsl8fXSKtwgoJ_14do_memory_core6memory3apiNtNtB4_5types18SelfLearningMemory31record_agent_execution_detailed
FN:22,_RNvMNtNtCsl8fXSKtwgoJ_14do_memory_core6memory3apiNtNtB4_5types18SelfLearningMemory9get_stats
FN:400,_RNvMs0_NtNtCsl8fXSKtwgoJ_14do_memory_core6memory3apiNtNtB7_5types18SelfLearningMemory24get_recommendation_stats
FN:385,_RNvMs0_NtNtCsl8fXSKtwgoJ_14do_memory_core6memory3apiNtNtB7_5types18SelfLearningMemory27get_recommendation_feedback
FN:306,_RNvMs0_NtNtCsl8fXSKtwgoJ_14do_memory_core6memory3apiNtNtB7_5types18SelfLearningMemory29record_recommendation_session
FN:353,_RNvMs0_NtNtCsl8fXSKtwgoJ_14do_memory_core6memory3apiNtNtB7_5types18SelfLearningMemory30record_recommendation_feedback
FN:368,_RNvMs0_NtNtCsl8fXSKtwgoJ_14do_memory_core6memory3apiNtNtB7_5types18SelfLearningMemory38get_recommendation_session_for_episode
FN:188,_RNvMs_NtNtCsl8fXSKtwgoJ_14do_memory_core6memory3apiNtNtB6_5types18SelfLearningMemory27fetch_feedback_from_storage
FN:95,_RNvMs_NtNtCsl8fXSKtwgoJ_14do_memory_core6memory3apiNtNtB6_5types18SelfLearningMemory30persist_recommendation_session
FN:119,_RNvMs_NtNtCsl8fXSKtwgoJ_14do_memory_core6memory3apiNtNtB6_5types18SelfLearningMemory31persist_recommendation_feedback
FN:141,_RNvMs_NtNtCsl8fXSKtwgoJ_14do_memory_core6memory3apiNtNtB6_5types18SelfLearningMemory38fetch_session_for_episode_from_storage
FN:245,_RNvMs_NtNtCsl8fXSKtwgoJ_14do_memory_core6memory3apiNtNtB6_5types18SelfLearningMemory39fetch_recommendation_stats_from_storage
FN:22,_RNCNvMNtNtCsl8fXSKtwgoJ_14do_memory_core6memory3apiNtNtB6_5types18SelfLearningMemory9get_stats0Cs8Y0Nm3vik3R_10compliance
FN:63,_RNCNvMNtNtCs46cA19QElOV_14do_memory_core6memory3apiNtNtB6_5types18SelfLearningMemory17get_agent_metrics0B8_
FN:68,_RNCNvMNtNtCs46cA19QElOV_14do_memory_core6memory3apiNtNtB6_5types18SelfLearningMemory21get_all_agent_metrics0B8_
FN:73,_RNCNvMNtNtCs46cA19QElOV_14do_memory_core6memory3apiNtNtB6_5types18SelfLearningMemory22get_monitoring_summary0B8_
FN:32,_RNCNvMNtNtCs46cA19QElOV_14do_memory_core6memory3apiNtNtB6_5types18SelfLearningMemory22record_agent_execution0B8_
FN:50,_RNCNvMNtNtCs46cA19QElOV_14do_memory_core6memory3apiNtNtB6_5types18SelfLearningMemory31record_agent_execution_detailed0B8_
FN:22,_RNCNvMNtNtCs46cA19QElOV_14do_memory_core6memory3apiNtNtB6_5types18SelfLearningMemory9get_stats0B8_
FN:400,_RNCNvMs0_NtNtCs46cA19QElOV_14do_memory_core6memory3apiNtNtB9_5types18SelfLearningMemory24get_recommendation_stats0Bb_
FN:388,_RNCNvMs0_NtNtCs46cA19QElOV_14do_memory_core6memory3apiNtNtB9_5types18SelfLearningMemory27get_recommendation_feedback0Bb_
FN:306,_RNCNvMs0_NtNtCs46cA19QElOV_14do_memory_core6memory3apiNtNtB9_5types18SelfLearningMemory29record_recommendation_session0Bb_
FN:356,_RNCNvMs0_NtNtCs46cA19QElOV_14do_memory_core6memory3apiNtNtB9_5types18SelfLearningMemory30record_recommendation_feedback0Bb_
FN:371,_RNCNvMs0_NtNtCs46cA19QElOV_14do_memory_core6memory3apiNtNtB9_5types18SelfLearningMemory38get_recommendation_session_for_episode0Bb_
FN:191,_RNCNvMs_NtNtCs46cA19QElOV_14do_memory_core6memory3apiNtNtB8_5types18SelfLearningMemory27fetch_feedback_from_storage0Ba_
FN:95,_RNCNvMs_NtNtCs46cA19QElOV_14do_memory_core6memory3apiNtNtB8_5types18SelfLearningMemory30persist_recommendation_session0Ba_
FN:119,_RNCNvMs_NtNtCs46cA19QElOV_14do_memory_core6memory3apiNtNtB8_5types18SelfLearningMemory31persist_recommendation_feedback0Ba_
FN:144,_RNCNvMs_NtNtCs46cA19QElOV_14do_memory_core6memory3apiNtNtB8_5types18SelfLearningMemory38fetch_session_for_episode_from_storage0Ba_
FN:245,_RNCNvMs_NtNtCs46cA19QElOV_14do_memory_core6memory3apiNtNtB8_5types18SelfLearningMemory39fetch_recommendation_stats_from_storage0Ba_
FN:89,_RNvMNtNtCs46cA19QElOV_14do_memory_core6memory3apiNtNtB4_5types18SelfLearningMemory11clear_cache
FN:63,_RNvMNtNtCs46cA19QElOV_14do_memory_core6memory3apiNtNtB4_5types18SelfLearningMemory17get_agent_metrics
FN:79,_RNvMNtNtCs46cA19QElOV_14do_memory_core6memory3apiNtNtB4_5types18SelfLearningMemory17get_cache_metrics
FN:84,_RNvMNtNtCs46cA19QElOV_14do_memory_core6memory3apiNtNtB4_5types18SelfLearningMemory19clear_cache_metrics
FN:68,_RNvMNtNtCs46cA19QElOV_14do_memory_core6memory3apiNtNtB4_5types18SelfLearningMemory21get_all_agent_metrics
FN:73,_RNvMNtNtCs46cA19QElOV_14do_memory_core6memory3apiNtNtB4_5types18SelfLearningMemory22get_monitoring_summary
FN:27,_RNvMNtNtCs46cA19QElOV_14do_memory_core6memory3apiNtNtB4_5types18SelfLearningMemory22record_agent_execution
FN:43,_RNvMNtNtCs46cA19QElOV_14do_memory_core6memory3apiNtNtB4_5types18SelfLearningMemory31record_agent_execution_detailed
FN:22,_RNvMNtNtCs46cA19QElOV_14do_memory_core6memory3apiNtNtB4_5types18SelfLearningMemory9get_stats
FN:400,_RNvMs0_NtNtCs46cA19QElOV_14do_memory_core6memory3apiNtNtB7_5types18SelfLearningMemory24get_recommendation_stats
FN:385,_RNvMs0_NtNtCs46cA19QElOV_14do_memory_core6memory3apiNtNtB7_5types18SelfLearningMemory27get_recommendation_feedback
FN:306,_RNvMs0_NtNtCs46cA19QElOV_14do_memory_core6memory3apiNtNtB7_5types18SelfLearningMemory29record_recommendation_session
FN:353,_RNvMs0_NtNtCs46cA19QElOV_14do_memory_core6memory3apiNtNtB7_5types18SelfLearningMemory30record_recommendation_feedback
FN:368,_RNvMs0_NtNtCs46cA19QElOV_14do_memory_core6memory3apiNtNtB7_5types18SelfLearningMemory38get_recommendation_session_for_episode
FN:188,_RNvMs_NtNtCs46cA19QElOV_14do_memory_core6memory3apiNtNtB6_5types18SelfLearningMemory27fetch_feedback_from_storage
FN:95,_RNvMs_NtNtCs46cA19QElOV_14do_memory_core6memory3apiNtNtB6_5types18SelfLearningMemory30persist_recommendation_session
FN:119,_RNvMs_NtNtCs46cA19QElOV_14do_memory_core6memory3apiNtNtB6_5types18SelfLearningMemory31persist_recommendation_feedback
FN:141,_RNvMs_NtNtCs46cA19QElOV_14do_memory_core6memory3apiNtNtB6_5types18SelfLearningMemory38fetch_session_for_episode_from_storage
FN:245,_RNvMs_NtNtCs46cA19QElOV_14do_memory_core6memory3apiNtNtB6_5types18SelfLearningMemory39fetch_recommendation_stats_from_storage
FN:22,_RNCNvMNtNtCsl8fXSKtwgoJ_14do_memory_core6memory3apiNtNtB6_5types18SelfLearningMemory9get_stats0Cs3Fo6gHJh4GI_24genesis_integration_test
FN:22,_RNCNvMNtNtCsl8fXSKtwgoJ_14do_memory_core6memory3apiNtNtB6_5types18SelfLearningMemory9get_stats0CsbMzWChOpjhm_18heuristic_learning
FN:22,_RNCNvMNtNtCsl8fXSKtwgoJ_14do_memory_core6memory3apiNtNtB6_5types18SelfLearningMemory9get_stats0CsaPsuztuIJpk_16input_validation
FN:22,_RNCNvMNtNtCsl8fXSKtwgoJ_14do_memory_core6memory3apiNtNtB6_5types18SelfLearningMemory9get_stats0Cs88LU71L0mqI_14learning_cycle
FN:22,_RNCNvMNtNtCsl8fXSKtwgoJ_14do_memory_core6memory3apiNtNtB6_5types18SelfLearningMemory9get_stats0Csk8xWN7fShrt_11performance
FN:22,_RNCNvMNtNtCsl8fXSKtwgoJ_14do_memory_core6memory3apiNtNtB6_5types18SelfLearningMemory9get_stats0Csdoax4t5h3WK_10regression
FN:22,_RNCNvMNtNtCsl8fXSKtwgoJ_14do_memory_core6memory3apiNtNtB6_5types18SelfLearningMemory9get_stats0CsbPJcDfmBHDL_13step_batching
FNDA:0,_RNCNvMNtNtCsl8fXSKtwgoJ_14do_memory_core6memory3apiNtNtB6_5types18SelfLearningMemory17get_agent_metrics0B8_
FNDA:0,_RNCNvMNtNtCsl8fXSKtwgoJ_14do_memory_core6memory3apiNtNtB6_5types18SelfLearningMemory21get_all_agent_metrics0B8_
FNDA:0,_RNCNvMNtNtCsl8fXSKtwgoJ_14do_memory_core6memory3apiNtNtB6_5types18SelfLearningMemory22get_monitoring_summary0B8_
FNDA:0,_RNCNvMNtNtCsl8fXSKtwgoJ_14do_memory_core6memory3apiNtNtB6_5types18SelfLearningMemory22record_agent_execution0B8_
FNDA:0,_RNCNvMNtNtCsl8fXSKtwgoJ_14do_memory_core6memory3apiNtNtB6_5types18SelfLearningMemory31record_agent_execution_detailed0B8_
FNDA:0,_RNCNvMNtNtCsl8fXSKtwgoJ_14do_memory_core6memory3apiNtNtB6_5types18SelfLearningMemory9get_stats0B8_
FNDA:0,_RNCNvMs0_NtNtCsl8fXSKtwgoJ_14do_memory_core6memory3apiNtNtB9_5types18SelfLearningMemory24get_recommendation_stats0Bb_
FNDA:0,_RNCNvMs0_NtNtCsl8fXSKtwgoJ_14do_memory_core6memory3apiNtNtB9_5types18SelfLearningMemory27get_recommendation_feedback0Bb_
FNDA:0,_RNCNvMs0_NtNtCsl8fXSKtwgoJ_14do_memory_core6memory3apiNtNtB9_5types18SelfLearningMemory29record_recommendation_session0Bb_
FNDA:0,_RNCNvMs0_NtNtCsl8fXSKtwgoJ_14do_memory_core6memory3apiNtNtB9_5types18SelfLearningMemory30record_recommendation_feedback0Bb_
FNDA:0,_RNCNvMs0_NtNtCsl8fXSKtwgoJ_14do_memory_core6memory3apiNtNtB9_5types18SelfLearningMemory38get_recommendation_session_for_episode0Bb_
FNDA:0,_RNCNvMs_NtNtCsl8fXSKtwgoJ_14do_memory_core6memory3apiNtNtB8_5types18SelfLearningMemory27fetch_feedback_from_storage0Ba_
FNDA:0,_RNCNvMs_NtNtCsl8fXSKtwgoJ_14do_memory_core6memory3apiNtNtB8_5types18SelfLearningMemory30persist_recommendation_session0Ba_
FNDA:0,_RNCNvMs_NtNtCsl8fXSKtwgoJ_14do_memory_core6memory3apiNtNtB8_5types18SelfLearningMemory31persist_recommendation_feedback0Ba_
FNDA:0,_RNCNvMs_NtNtCsl8fXSKtwgoJ_14do_memory_core6memory3apiNtNtB8_5types18SelfLearningMemory38fetch_session_for_episode_from_storage0Ba_
FNDA:0,_RNCNvMs_NtNtCsl8fXSKtwgoJ_14do_memory_core6memory3apiNtNtB8_5types18SelfLearningMemory39fetch_recommendation_stats_from_storage0Ba_
FNDA:0,_RNvMNtNtCsl8fXSKtwgoJ_14do_memory_core6memory3apiNtNtB4_5types18SelfLearningMemory11clear_cache
FNDA:0,_RNvMNtNtCsl8fXSKtwgoJ_14do_memory_core6memory3apiNtNtB4_5types18SelfLearningMemory17get_agent_metrics
FNDA:0,_RNvMNtNtCsl8fXSKtwgoJ_14do_memory_core6memory3apiNtNtB4_5types18SelfLearningMemory17get_cache_metrics
FNDA:0,_RNvMNtNtCsl8fXSKtwgoJ_14do_memory_core6memory3apiNtNtB4_5types18SelfLearningMemory19clear_cache_metrics
FNDA:0,_RNvMNtNtCsl8fXSKtwgoJ_14do_memory_core6memory3apiNtNtB4_5types18SelfLearningMemory21get_all_agent_metrics
FNDA:0,_RNvMNtNtCsl8fXSKtwgoJ_14do_memory_core6memory3apiNtNtB4_5types18SelfLearningMemory22get_monitoring_summary
FNDA:0,_RNvMNtNtCsl8fXSKtwgoJ_14do_memory_core6memory3apiNtNtB4_5types18SelfLearningMemory22record_agent_execution
FNDA:0,_RNvMNtNtCsl8fXSKtwgoJ_14do_memory_core6memory3apiNtNtB4_5types18SelfLearningMemory31record_agent_execution_detailed
FNDA:21,_RNvMNtNtCsl8fXSKtwgoJ_14do_memory_core6memory3apiNtNtB4_5types18SelfLearningMemory9get_stats
FNDA:0,_RNvMs0_NtNtCsl8fXSKtwgoJ_14do_memory_core6memory3apiNtNtB7_5types18SelfLearningMemory24get_recommendation_stats
FNDA:0,_RNvMs0_NtNtCsl8fXSKtwgoJ_14do_memory_core6memory3apiNtNtB7_5types18SelfLearningMemory27get_recommendation_feedback
FNDA:0,_RNvMs0_NtNtCsl8fXSKtwgoJ_14do_memory_core6memory3apiNtNtB7_5types18SelfLearningMemory29record_recommendation_session
FNDA:0,_RNvMs0_NtNtCsl8fXSKtwgoJ_14do_memory_core6memory3apiNtNtB7_5types18SelfLearningMemory30record_recommendation_feedback
FNDA:0,_RNvMs0_NtNtCsl8fXSKtwgoJ_14do_memory_core6memory3apiNtNtB7_5types18SelfLearningMemory38get_recommendation_session_for_episode
FNDA:0,_RNvMs_NtNtCsl8fXSKtwgoJ_14do_memory_core6memory3apiNtNtB6_5types18SelfLearningMemory27fetch_feedback_from_storage
FNDA:0,_RNvMs_NtNtCsl8fXSKtwgoJ_14do_memory_core6memory3apiNtNtB6_5types18SelfLearningMemory30persist_recommendation_session
FNDA:0,_RNvMs_NtNtCsl8fXSKtwgoJ_14do_memory_core6memory3apiNtNtB6_5types18SelfLearningMemory31persist_recommendation_feedback
FNDA:0,_RNvMs_NtNtCsl8fXSKtwgoJ_14do_memory_core6memory3apiNtNtB6_5types18SelfLearningMemory38fetch_session_for_episode_from_storage
FNDA:0,_RNvMs_NtNtCsl8fXSKtwgoJ_14do_memory_core6memory3apiNtNtB6_5types18SelfLearningMemory39fetch_recommendation_stats_from_storage
FNDA:4,_RNCNvMNtNtCsl8fXSKtwgoJ_14do_memory_core6memory3apiNtNtB6_5types18SelfLearningMemory9get_stats0Cs8Y0Nm3vik3R_10compliance
FNDA:0,_RNCNvMNtNtCs46cA19QElOV_14do_memory_core6memory3apiNtNtB6_5types18SelfLearningMemory17get_agent_metrics0B8_
FNDA:0,_RNCNvMNtNtCs46cA19QElOV_14do_memory_core6memory3apiNtNtB6_5types18SelfLearningMemory21get_all_agent_metrics0B8_
FNDA:0,_RNCNvMNtNtCs46cA19QElOV_14do_memory_core6memory3apiNtNtB6_5types18SelfLearningMemory22get_monitoring_summary0B8_
FNDA:0,_RNCNvMNtNtCs46cA19QElOV_14do_memory_core6memory3apiNtNtB6_5types18SelfLearningMemory22record_agent_execution0B8_
FNDA:0,_RNCNvMNtNtCs46cA19QElOV_14do_memory_core6memory3apiNtNtB6_5types18SelfLearningMemory31record_agent_execution_detailed0B8_
FNDA:0,_RNCNvMNtNtCs46cA19QElOV_14do_memory_core6memory3apiNtNtB6_5types18SelfLearningMemory9get_stats0B8_
FNDA:0,_RNCNvMs0_NtNtCs46cA19QElOV_14do_memory_core6memory3apiNtNtB9_5types18SelfLearningMemory24get_recommendation_stats0Bb_
FNDA:0,_RNCNvMs0_NtNtCs46cA19QElOV_14do_memory_core6memory3apiNtNtB9_5types18SelfLearningMemory27get_recommendation_feedback0Bb_
FNDA:0,_RNCNvMs0_NtNtCs46cA19QElOV_14do_memory_core6memory3apiNtNtB9_5types18SelfLearningMemory29record_recommendation_session0Bb_
FNDA:0,_RNCNvMs0_NtNtCs46cA19QElOV_14do_memory_core6memory3apiNtNtB9_5types18SelfLearningMemory30record_recommendation_feedback0Bb_
FNDA:0,_RNCNvMs0_NtNtCs46cA19QElOV_14do_memory_core6memory3apiNtNtB9_5types18SelfLearningMemory38get_recommendation_session_for_episode0Bb_
FNDA:0,_RNCNvMs_NtNtCs46cA19QElOV_14do_memory_core6memory3apiNtNtB8_5types18SelfLearningMemory27fetch_feedback_from_storage0Ba_
FNDA:0,_RNCNvMs_NtNtCs46cA19QElOV_14do_memory_core6memory3apiNtNtB8_5types18SelfLearningMemory30persist_recommendation_session0Ba_
FNDA:0,_RNCNvMs_NtNtCs46cA19QElOV_14do_memory_core6memory3apiNtNtB8_5types18SelfLearningMemory31persist_recommendation_feedback0Ba_
FNDA:0,_RNCNvMs_NtNtCs46cA19QElOV_14do_memory_core6memory3apiNtNtB8_5types18SelfLearningMemory38fetch_session_for_episode_from_storage0Ba_
FNDA:0,_RNCNvMs_NtNtCs46cA19QElOV_14do_memory_core6memory3apiNtNtB8_5types18SelfLearningMemory39fetch_recommendation_stats_from_storage0Ba_
FNDA:0,_RNvMNtNtCs46cA19QElOV_14do_memory_core6memory3apiNtNtB4_5types18SelfLearningMemory11clear_cache
FNDA:0,_RNvMNtNtCs46cA19QElOV_14do_memory_core6memory3apiNtNtB4_5types18SelfLearningMemory17get_agent_metrics
FNDA:0,_RNvMNtNtCs46cA19QElOV_14do_memory_core6memory3apiNtNtB4_5types18SelfLearningMemory17get_cache_metrics
FNDA:0,_RNvMNtNtCs46cA19QElOV_14do_memory_core6memory3apiNtNtB4_5types18SelfLearningMemory19clear_cache_metrics
FNDA:0,_RNvMNtNtCs46cA19QElOV_14do_memory_core6memory3apiNtNtB4_5types18SelfLearningMemory21get_all_agent_metrics
FNDA:0,_RNvMNtNtCs46cA19QElOV_14do_memory_core6memory3apiNtNtB4_5types18SelfLearningMemory22get_monitoring_summary
FNDA:0,_RNvMNtNtCs46cA19QElOV_14do_memory_core6memory3apiNtNtB4_5types18SelfLearningMemory22record_agent_execution
FNDA:0,_RNvMNtNtCs46cA19QElOV_14do_memory_core6memory3apiNtNtB4_5types18SelfLearningMemory31record_agent_execution_detailed
FNDA:0,_RNvMNtNtCs46cA19QElOV_14do_memory_core6memory3apiNtNtB4_5types18SelfLearningMemory9get_stats
FNDA:0,_RNvMs0_NtNtCs46cA19QElOV_14do_memory_core6memory3apiNtNtB7_5types18SelfLearningMemory24get_recommendation_stats
FNDA:0,_RNvMs0_NtNtCs46cA19QElOV_14do_memory_core6memory3apiNtNtB7_5types18SelfLearningMemory27get_recommendation_feedback
FNDA:0,_RNvMs0_NtNtCs46cA19QElOV_14do_memory_core6memory3apiNtNtB7_5types18SelfLearningMemory29record_recommendation_session
FNDA:0,_RNvMs0_NtNtCs46cA19QElOV_14do_memory_core6memory3apiNtNtB7_5types18SelfLearningMemory30record_recommendation_feedback
FNDA:0,_RNvMs0_NtNtCs46cA19QElOV_14do_memory_core6memory3apiNtNtB7_5types18SelfLearningMemory38get_recommendation_session_for_episode
FNDA:0,_RNvMs_NtNtCs46cA19QElOV_14do_memory_core6memory3apiNtNtB6_5types18SelfLearningMemory27fetch_feedback_from_storage
FNDA:0,_RNvMs_NtNtCs46cA19QElOV_14do_memory_core6memory3apiNtNtB6_5types18SelfLearningMemory30persist_recommendation_session
FNDA:0,_RNvMs_NtNtCs46cA19QElOV_14do_memory_core6memory3apiNtNtB6_5types18SelfLearningMemory31persist_recommendation_feedback
FNDA:0,_RNvMs_NtNtCs46cA19QElOV_14do_memory_core6memory3apiNtNtB6_5types18SelfLearningMemory38fetch_session_for_episode_from_storage
FNDA:0,_RNvMs_NtNtCs46cA19QElOV_14do_memory_core6memory3apiNtNtB6_5types18SelfLearningMemory39fetch_recommendation_stats_from_storage
FNDA:6,_RNCNvMNtNtCsl8fXSKtwgoJ_14do_memory_core6memory3apiNtNtB6_5types18SelfLearningMemory9get_stats0Cs3Fo6gHJh4GI_24genesis_integration_test
FNDA:2,_RNCNvMNtNtCsl8fXSKtwgoJ_14do_memory_core6memory3apiNtNtB6_5types18SelfLearningMemory9get_stats0CsbMzWChOpjhm_18heuristic_learning
FNDA:2,_RNCNvMNtNtCsl8fXSKtwgoJ_14do_memory_core6memory3apiNtNtB6_5types18SelfLearningMemory9get_stats0CsaPsuztuIJpk_16input_validation
FNDA:2,_RNCNvMNtNtCsl8fXSKtwgoJ_14do_memory_core6memory3apiNtNtB6_5types18SelfLearningMemory9get_stats0Cs88LU71L0mqI_14learning_cycle
FNDA:0,_RNCNvMNtNtCsl8fXSKtwgoJ_14do_memory_core6memory3apiNtNtB6_5types18SelfLearningMemory9get_stats0Csk8xWN7fShrt_11performance
FNDA:3,_RNCNvMNtNtCsl8fXSKtwgoJ_14do_memory_core6memory3apiNtNtB6_5types18SelfLearningMemory9get_stats0Csdoax4t5h3WK_10regression
FNDA:2,_RNCNvMNtNtCsl8fXSKtwgoJ_14do_memory_core6memory3apiNtNtB6_5types18SelfLearningMemory9get_stats0CsbPJcDfmBHDL_13step_batching
FNF:35
FNH:2
DA:22,21
DA:23,21
DA:24,21
DA:27,0
DA:28,0
DA:29,0
DA:30,0
DA:31,0
DA:32,0
DA:33,0
DA:34,0
DA:35,0
DA:36,0
DA:37,0
DA:38,0
DA:39,0
DA:40,0
DA:43,0
DA:44,0
DA:45,0
DA:46,0
DA:47,0
DA:48,0
DA:49,0
DA:50,0
DA:51,0
DA:52,0
DA:53,0
DA:54,0
DA:55,0
DA:56,0
DA:57,0
DA:58,0
DA:59,0
DA:60,0
DA:63,0
DA:64,0
DA:65,0
DA:68,0
DA:69,0
DA:70,0
DA:73,0
DA:74,0
DA:75,0
DA:79,0
DA:80,0
DA:81,0
DA:84,0
DA:85,0
DA:86,0
DA:89,0
DA:90,0
DA:91,0
DA:95,0
DA:96,0
DA:97,0
DA:98,0
DA:104,0
DA:105,0
DA:107,0
DA:108,0
DA:109,0
DA:115,0
DA:116,0
DA:117,0
DA:119,0
DA:120,0
DA:121,0
DA:122,0
DA:127,0
DA:128,0
DA:130,0
DA:131,0
DA:132,0
DA:137,0
DA:138,0
DA:139,0
DA:141,0
DA:142,0
DA:143,0
DA:144,0
DA:145,0
DA:146,0
DA:147,0
DA:148,0
DA:150,0
DA:151,0
DA:152,0
DA:153,0
DA:154,0
DA:156,0
DA:157,0
DA:163,0
DA:165,0
DA:166,0
DA:167,0
DA:168,0
DA:170,0
DA:171,0
DA:172,0
DA:173,0
DA:174,0
DA:176,0
DA:177,0
DA:183,0
DA:185,0
DA:186,0
DA:188,0
DA:189,0
DA:190,0
DA:191,0
DA:192,0
DA:193,0
DA:194,0
DA:195,0
DA:196,0
DA:197,0
DA:198,0
DA:200,0
DA:205,0
DA:206,0
DA:208,0
DA:209,0
DA:215,0
DA:217,0
DA:218,0
DA:219,0
DA:220,0
DA:221,0
DA:222,0
DA:223,0
DA:225,0
DA:230,0
DA:231,0
DA:233,0
DA:234,0
DA:240,0
DA:242,0
DA:243,0
DA:245,0
DA:246,0
DA:247,0
DA:248,0
DA:249,0
DA:254,0
DA:256,0
DA:257,0
DA:258,0
DA:259,0
DA:264,0
DA:266,0
DA:267,0
DA:306,0
DA:307,0
DA:308,0
DA:309,0
DA:310,0
DA:311,0
DA:353,0
DA:354,0
DA:355,0
DA:356,0
DA:357,0
DA:358,0
DA:359,0
DA:360,0
DA:361,0
DA:362,0
DA:368,0
DA:369,0
DA:370,0
DA:371,0
DA:372,0
DA:373,0
DA:374,0
DA:375,0
DA:377,0
DA:378,0
DA:380,0
DA:381,0
DA:382,0
DA:385,0
DA:386,0
DA:387,0
DA:388,0
DA:389,0
DA:390,0
DA:391,0
DA:393,0
DA:394,0
DA:400,0
DA:401,0
DA:402,0
DA:403,0
DA:405,0
DA:406,0
BRF:0
BRH:0
LF:212
LH:4
end_of_record
SF:/app/memory-core/src/memory/attribution/tracker.rs
FN:146,_RNCNvMs_NtNtNtCsl8fXSKtwgoJ_14do_memory_core6memory11attribution7trackerNtB6_21RecommendationTracker11get_session0Bc_
FN:153,_RNCNvMs_NtNtNtCsl8fXSKtwgoJ_14do_memory_core6memory11attribution7trackerNtB6_21RecommendationTracker12get_feedback0Bc_
FN:84,_RNCNvMs_NtNtNtCsl8fXSKtwgoJ_14do_memory_core6memory11attribution7trackerNtB6_21RecommendationTracker14record_session0Bc_
FN:118,_RNCNvMs_NtNtNtCsl8fXSKtwgoJ_14do_memory_core6memory11attribution7trackerNtB6_21RecommendationTracker15record_feedback0Bc_
FN:277,_RNCNvMs_NtNtNtCsl8fXSKtwgoJ_14do_memory_core6memory11attribution7trackerNtB6_21RecommendationTracker16get_all_feedback0Bc_
FN:271,_RNCNvMs_NtNtNtCsl8fXSKtwgoJ_14do_memory_core6memory11attribution7trackerNtB6_21RecommendationTracker16get_all_sessions0Bc_
FN:160,_RNCNvMs_NtNtNtCsl8fXSKtwgoJ_14do_memory_core6memory11attribution7trackerNtB6_21RecommendationTracker23get_session_for_episode0Bc_
FN:181,_RNCNvMs_NtNtNtCsl8fXSKtwgoJ_14do_memory_core6memory11attribution7trackerNtB6_21RecommendationTracker24get_feedback_for_episode0Bc_
FN:169,_RNCNvMs_NtNtNtCsl8fXSKtwgoJ_14do_memory_core6memory11attribution7trackerNtB6_21RecommendationTracker25get_session_with_feedback0Bc_
FN:258,_RNCNvMs_NtNtNtCsl8fXSKtwgoJ_14do_memory_core6memory11attribution7trackerNtB6_21RecommendationTracker5clear0Bc_
FN:188,_RNCNvMs_NtNtNtCsl8fXSKtwgoJ_14do_memory_core6memory11attribution7trackerNtB6_21RecommendationTracker9get_stats0Bc_
FN:146,_RNvMs_NtNtNtCsl8fXSKtwgoJ_14do_memory_core6memory11attribution7trackerNtB4_21RecommendationTracker11get_session
FN:153,_RNvMs_NtNtNtCsl8fXSKtwgoJ_14do_memory_core6memory11attribution7trackerNtB4_21RecommendationTracker12get_feedback
FN:84,_RNvMs_NtNtNtCsl8fXSKtwgoJ_14do_memory_core6memory11attribution7trackerNtB4_21RecommendationTracker14record_session
FN:118,_RNvMs_NtNtNtCsl8fXSKtwgoJ_14do_memory_core6memory11attribution7trackerNtB4_21RecommendationTracker15record_feedback
FN:277,_RNvMs_NtNtNtCsl8fXSKtwgoJ_14do_memory_core6memory11attribution7trackerNtB4_21RecommendationTracker16get_all_feedback
FN:271,_RNvMs_NtNtNtCsl8fXSKtwgoJ_14do_memory_core6memory11attribution7trackerNtB4_21RecommendationTracker16get_all_sessions
FN:160,_RNvMs_NtNtNtCsl8fXSKtwgoJ_14do_memory_core6memory11attribution7trackerNtB4_21RecommendationTracker23get_session_for_episode
FN:178,_RNvMs_NtNtNtCsl8fXSKtwgoJ_14do_memory_core6memory11attribution7trackerNtB4_21RecommendationTracker24get_feedback_for_episode
FN:169,_RNvMs_NtNtNtCsl8fXSKtwgoJ_14do_memory_core6memory11attribution7trackerNtB4_21RecommendationTracker25get_session_with_feedback
FN:68,_RNvMs_NtNtNtCsl8fXSKtwgoJ_14do_memory_core6memory11attribution7trackerNtB4_21RecommendationTracker3new
FN:258,_RNvMs_NtNtNtCsl8fXSKtwgoJ_14do_memory_core6memory11attribution7trackerNtB4_21RecommendationTracker5clear
FN:188,_RNvMs_NtNtNtCsl8fXSKtwgoJ_14do_memory_core6memory11attribution7trackerNtB4_21RecommendationTracker9get_stats
FN:60,_RNvXNtNtNtCsl8fXSKtwgoJ_14do_memory_core6memory11attribution7trackerNtB2_21RecommendationTrackerNtNtCs4kUJL3MZFFz_4core7default7Default7default
FN:277,_RNCNvMs_NtNtNtCs46cA19QElOV_14do_memory_core6memory11attribution7trackerNtB6_21RecommendationTracker16get_all_feedback0Bc_
FN:271,_RNCNvMs_NtNtNtCs46cA19QElOV_14do_memory_core6memory11attribution7trackerNtB6_21RecommendationTracker16get_all_sessions0Bc_
FN:181,_RNCNvMs_NtNtNtCs46cA19QElOV_14do_memory_core6memory11attribution7trackerNtB6_21RecommendationTracker24get_feedback_for_episode0Bc_
FN:169,_RNCNvMs_NtNtNtCs46cA19QElOV_14do_memory_core6memory11attribution7trackerNtB6_21RecommendationTracker25get_session_with_feedback0Bc_
FN:277,_RNvMs_NtNtNtCs46cA19QElOV_14do_memory_core6memory11attribution7trackerNtB4_21RecommendationTracker16get_all_feedback
FN:271,_RNvMs_NtNtNtCs46cA19QElOV_14do_memory_core6memory11attribution7trackerNtB4_21RecommendationTracker16get_all_sessions
FN:178,_RNvMs_NtNtNtCs46cA19QElOV_14do_memory_core6memory11attribution7trackerNtB4_21RecommendationTracker24get_feedback_for_episode
FN:169,_RNvMs_NtNtNtCs46cA19QElOV_14do_memory_core6memory11attribution7trackerNtB4_21RecommendationTracker25get_session_with_feedback
FN:60,_RNvXNtNtNtCs46cA19QElOV_14do_memory_core6memory11attribution7trackerNtB2_21RecommendationTrackerNtNtCs4kUJL3MZFFz_4core7default7Default7default
FN:146,_RNvMs_NtNtNtCs46cA19QElOV_14do_memory_core6memory11attribution7trackerNtB4_21RecommendationTracker11get_session
FN:153,_RNvMs_NtNtNtCs46cA19QElOV_14do_memory_core6memory11attribution7trackerNtB4_21RecommendationTracker12get_feedback
FN:84,_RNvMs_NtNtNtCs46cA19QElOV_14do_memory_core6memory11attribution7trackerNtB4_21RecommendationTracker14record_session
FN:118,_RNvMs_NtNtNtCs46cA19QElOV_14do_memory_core6memory11attribution7trackerNtB4_21RecommendationTracker15record_feedback
FN:160,_RNvMs_NtNtNtCs46cA19QElOV_14do_memory_core6memory11attribution7trackerNtB4_21RecommendationTracker23get_session_for_episode
FN:68,_RNvMs_NtNtNtCs46cA19QElOV_14do_memory_core6memory11attribution7trackerNtB4_21RecommendationTracker3new
FN:258,_RNvMs_NtNtNtCs46cA19QElOV_14do_memory_core6memory11attribution7trackerNtB4_21RecommendationTracker5clear
FN:188,_RNvMs_NtNtNtCs46cA19QElOV_14do_memory_core6memory11attribution7trackerNtB4_21RecommendationTracker9get_stats
FN:288,_RNvNtNtNtNtCs46cA19QElOV_14do_memory_core6memory11attribution7tracker5tests19create_test_session
FN:298,_RNvNtNtNtNtCs46cA19QElOV_14do_memory_core6memory11attribution7tracker5tests20create_test_feedback
FN:373,_RNvNtNtNtNtCs46cA19QElOV_14do_memory_core6memory11attribution7tracker5testss_10test_clear
FN:352,_RNvNtNtNtNtCs46cA19QElOV_14do_memory_core6memory11attribution7tracker5testss_14test_get_stats
FN:312,_RNvNtNtNtNtCs46cA19QElOV_14do_memory_core6memory11attribution7tracker5testss_27test_record_and_get_session
FN:340,_RNvNtNtNtNtCs46cA19QElOV_14do_memory_core6memory11attribution7tracker5testss_28test_get_session_for_episode
FN:325,_RNvNtNtNtNtCs46cA19QElOV_14do_memory_core6memory11attribution7tracker5testss_28test_record_and_get_feedback
FN:146,_RNCNvMs_NtNtNtCs46cA19QElOV_14do_memory_core6memory11attribution7trackerNtB6_21RecommendationTracker11get_session0Bc_
FN:153,_RNCNvMs_NtNtNtCs46cA19QElOV_14do_memory_core6memory11attribution7trackerNtB6_21RecommendationTracker12get_feedback0Bc_
FN:84,_RNCNvMs_NtNtNtCs46cA19QElOV_14do_memory_core6memory11attribution7trackerNtB6_21RecommendationTracker14record_session0Bc_
FN:118,_RNCNvMs_NtNtNtCs46cA19QElOV_14do_memory_core6memory11attribution7trackerNtB6_21RecommendationTracker15record_feedback0Bc_
FN:160,_RNCNvMs_NtNtNtCs46cA19QElOV_14do_memory_core6memory11attribution7trackerNtB6_21RecommendationTracker23get_session_for_episode0Bc_
FN:258,_RNCNvMs_NtNtNtCs46cA19QElOV_14do_memory_core6memory11attribution7trackerNtB6_21RecommendationTracker5clear0Bc_
FN:188,_RNCNvMs_NtNtNtCs46cA19QElOV_14do_memory_core6memory11attribution7trackerNtB6_21RecommendationTracker9get_stats0Bc_
FN:373,_RNCNvNtNtNtNtCs46cA19QElOV_14do_memory_core6memory11attribution7tracker5testss_10test_clear0Bb_
FN:352,_RNCNvNtNtNtNtCs46cA19QElOV_14do_memory_core6memory11attribution7tracker5testss_14test_get_stats0Bb_
FN:312,_RNCNvNtNtNtNtCs46cA19QElOV_14do_memory_core6memory11attribution7tracker5testss_27test_record_and_get_session0Bb_
FN:340,_RNCNvNtNtNtNtCs46cA19QElOV_14do_memory_core6memory11attribution7tracker5testss_28test_get_session_for_episode0Bb_
FN:325,_RNCNvNtNtNtNtCs46cA19QElOV_14do_memory_core6memory11attribution7tracker5testss_28test_record_and_get_feedback0Bb_
FNDA:0,_RNCNvMs_NtNtNtCsl8fXSKtwgoJ_14do_memory_core6memory11attribution7trackerNtB6_21RecommendationTracker11get_session0Bc_
FNDA:0,_RNCNvMs_NtNtNtCsl8fXSKtwgoJ_14do_memory_core6memory11attribution7trackerNtB6_21RecommendationTracker12get_feedback0Bc_
FNDA:0,_RNCNvMs_NtNtNtCsl8fXSKtwgoJ_14do_memory_core6memory11attribution7trackerNtB6_21RecommendationTracker14record_session0Bc_
FNDA:0,_RNCNvMs_NtNtNtCsl8fXSKtwgoJ_14do_memory_core6memory11attribution7trackerNtB6_21RecommendationTracker15record_feedback0Bc_
FNDA:0,_RNCNvMs_NtNtNtCsl8fXSKtwgoJ_14do_memory_core6memory11attribution7trackerNtB6_21RecommendationTracker16get_all_feedback0Bc_
FNDA:0,_RNCNvMs_NtNtNtCsl8fXSKtwgoJ_14do_memory_core6memory11attribution7trackerNtB6_21RecommendationTracker16get_all_sessions0Bc_
FNDA:0,_RNCNvMs_NtNtNtCsl8fXSKtwgoJ_14do_memory_core6memory11attribution7trackerNtB6_21RecommendationTracker23get_session_for_episode0Bc_
FNDA:0,_RNCNvMs_NtNtNtCsl8fXSKtwgoJ_14do_memory_core6memory11attribution7trackerNtB6_21RecommendationTracker24get_feedback_for_episode0Bc_
FNDA:0,_RNCNvMs_NtNtNtCsl8fXSKtwgoJ_14do_memory_core6memory11attribution7trackerNtB6_21RecommendationTracker25get_session_with_feedback0Bc_
FNDA:0,_RNCNvMs_NtNtNtCsl8fXSKtwgoJ_14do_memory_core6memory11attribution7trackerNtB6_21RecommendationTracker5clear0Bc_
FNDA:0,_RNCNvMs_NtNtNtCsl8fXSKtwgoJ_14do_memory_core6memory11attribution7trackerNtB6_21RecommendationTracker9get_stats0Bc_
FNDA:0,_RNvMs_NtNtNtCsl8fXSKtwgoJ_14do_memory_core6memory11attribution7trackerNtB4_21RecommendationTracker11get_session
FNDA:0,_RNvMs_NtNtNtCsl8fXSKtwgoJ_14do_memory_core6memory11attribution7trackerNtB4_21RecommendationTracker12get_feedback
FNDA:0,_RNvMs_NtNtNtCsl8fXSKtwgoJ_14do_memory_core6memory11attribution7trackerNtB4_21RecommendationTracker14record_session
FNDA:0,_RNvMs_NtNtNtCsl8fXSKtwgoJ_14do_memory_core6memory11attribution7trackerNtB4_21RecommendationTracker15record_feedback
FNDA:0,_RNvMs_NtNtNtCsl8fXSKtwgoJ_14do_memory_core6memory11attribution7trackerNtB4_21RecommendationTracker16get_all_feedback
FNDA:0,_RNvMs_NtNtNtCsl8fXSKtwgoJ_14do_memory_core6memory11attribution7trackerNtB4_21RecommendationTracker16get_all_sessions
FNDA:0,_RNvMs_NtNtNtCsl8fXSKtwgoJ_14do_memory_core6memory11attribution7trackerNtB4_21RecommendationTracker23get_session_for_episode
FNDA:0,_RNvMs_NtNtNtCsl8fXSKtwgoJ_14do_memory_core6memory11attribution7trackerNtB4_21RecommendationTracker24get_feedback_for_episode
FNDA:0,_RNvMs_NtNtNtCsl8fXSKtwgoJ_14do_memory_core6memory11attribution7trackerNtB4_21RecommendationTracker25get_session_with_feedback
FNDA:146,_RNvMs_NtNtNtCsl8fXSKtwgoJ_14do_memory_core6memory11attribution7trackerNtB4_21RecommendationTracker3new
FNDA:0,_RNvMs_NtNtNtCsl8fXSKtwgoJ_14do_memory_core6memory11attribution7trackerNtB4_21RecommendationTracker5clear
FNDA:0,_RNvMs_NtNtNtCsl8fXSKtwgoJ_14do_memory_core6memory11attribution7trackerNtB4_21RecommendationTracker9get_stats
FNDA:0,_RNvXNtNtNtCsl8fXSKtwgoJ_14do_memory_core6memory11attribution7trackerNtB2_21RecommendationTrackerNtNtCs4kUJL3MZFFz_4core7default7Default7default
FNDA:0,_RNCNvMs_NtNtNtCs46cA19QElOV_14do_memory_core6memory11attribution7trackerNtB6_21RecommendationTracker16get_all_feedback0Bc_
FNDA:0,_RNCNvMs_NtNtNtCs46cA19QElOV_14do_memory_core6memory11attribution7trackerNtB6_21RecommendationTracker16get_all_sessions0Bc_
FNDA:0,_RNCNvMs_NtNtNtCs46cA19QElOV_14do_memory_core6memory11attribution7trackerNtB6_21RecommendationTracker24get_feedback_for_episode0Bc_
FNDA:0,_RNCNvMs_NtNtNtCs46cA19QElOV_14do_memory_core6memory11attribution7trackerNtB6_21RecommendationTracker25get_session_with_feedback0Bc_
FNDA:0,_RNvMs_NtNtNtCs46cA19QElOV_14do_memory_core6memory11attribution7trackerNtB4_21RecommendationTracker16get_all_feedback
FNDA:0,_RNvMs_NtNtNtCs46cA19QElOV_14do_memory_core6memory11attribution7trackerNtB4_21RecommendationTracker16get_all_sessions
FNDA:0,_RNvMs_NtNtNtCs46cA19QElOV_14do_memory_core6memory11attribution7trackerNtB4_21RecommendationTracker24get_feedback_for_episode
FNDA:0,_RNvMs_NtNtNtCs46cA19QElOV_14do_memory_core6memory11attribution7trackerNtB4_21RecommendationTracker25get_session_with_feedback
FNDA:0,_RNvXNtNtNtCs46cA19QElOV_14do_memory_core6memory11attribution7trackerNtB2_21RecommendationTrackerNtNtCs4kUJL3MZFFz_4core7default7Default7default
FNDA:1,_RNvMs_NtNtNtCs46cA19QElOV_14do_memory_core6memory11attribution7trackerNtB4_21RecommendationTracker11get_session
FNDA:1,_RNvMs_NtNtNtCs46cA19QElOV_14do_memory_core6memory11attribution7trackerNtB4_21RecommendationTracker12get_feedback
FNDA:6,_RNvMs_NtNtNtCs46cA19QElOV_14do_memory_core6memory11attribution7trackerNtB4_21RecommendationTracker14record_session
FNDA:2,_RNvMs_NtNtNtCs46cA19QElOV_14do_memory_core6memory11attribution7trackerNtB4_21RecommendationTracker15record_feedback
FNDA:1,_RNvMs_NtNtNtCs46cA19QElOV_14do_memory_core6memory11attribution7trackerNtB4_21RecommendationTracker23get_session_for_episode
FNDA:52,_RNvMs_NtNtNtCs46cA19QElOV_14do_memory_core6memory11attribution7trackerNtB4_21RecommendationTracker3new
FNDA:1,_RNvMs_NtNtNtCs46cA19QElOV_14do_memory_core6memory11attribution7trackerNtB4_21RecommendationTracker5clear
FNDA:2,_RNvMs_NtNtNtCs46cA19QElOV_14do_memory_core6memory11attribution7trackerNtB4_21RecommendationTracker9get_stats
FNDA:5,_RNvNtNtNtNtCs46cA19QElOV_14do_memory_core6memory11attribution7tracker5tests19create_test_session
FNDA:2,_RNvNtNtNtNtCs46cA19QElOV_14do_memory_core6memory11attribution7tracker5tests20create_test_feedback
FNDA:1,_RNvNtNtNtNtCs46cA19QElOV_14do_memory_core6memory11attribution7tracker5testss_10test_clear
FNDA:1,_RNvNtNtNtNtCs46cA19QElOV_14do_memory_core6memory11attribution7tracker5testss_14test_get_stats
FNDA:1,_RNvNtNtNtNtCs46cA19QElOV_14do_memory_core6memory11attribution7tracker5testss_27test_record_and_get_session
FNDA:1,_RNvNtNtNtNtCs46cA19QElOV_14do_memory_core6memory11attribution7tracker5testss_28test_get_session_for_episode
FNDA:1,_RNvNtNtNtNtCs46cA19QElOV_14do_memory_core6memory11attribution7tracker5testss_28test_record_and_get_feedback
FNDA:1,_RNCNvMs_NtNtNtCs46cA19QElOV_14do_memory_core6memory11attribution7trackerNtB6_21RecommendationTracker11get_session0Bc_
FNDA:1,_RNCNvMs_NtNtNtCs46cA19QElOV_14do_memory_core6memory11attribution7trackerNtB6_21RecommendationTracker12get_feedback0Bc_
FNDA:6,_RNCNvMs_NtNtNtCs46cA19QElOV_14do_memory_core6memory11attribution7trackerNtB6_21RecommendationTracker14record_session0Bc_
FNDA:2,_RNCNvMs_NtNtNtCs46cA19QElOV_14do_memory_core6memory11attribution7trackerNtB6_21RecommendationTracker15record_feedback0Bc_
FNDA:1,_RNCNvMs_NtNtNtCs46cA19QElOV_14do_memory_core6memory11attribution7trackerNtB6_21RecommendationTracker23get_session_for_episode0Bc_
FNDA:1,_RNCNvMs_NtNtNtCs46cA19QElOV_14do_memory_core6memory11attribution7trackerNtB6_21RecommendationTracker5clear0Bc_
FNDA:2,_RNCNvMs_NtNtNtCs46cA19QElOV_14do_memory_core6memory11attribution7trackerNtB6_21RecommendationTracker9get_stats0Bc_
FNDA:1,_RNCNvNtNtNtNtCs46cA19QElOV_14do_memory_core6memory11attribution7tracker5testss_10test_clear0Bb_
FNDA:1,_RNCNvNtNtNtNtCs46cA19QElOV_14do_memory_core6memory11attribution7tracker5testss_14test_get_stats0Bb_
FNDA:1,_RNCNvNtNtNtNtCs46cA19QElOV_14do_memory_core6memory11attribution7tracker5testss_27test_record_and_get_session0Bb_
FNDA:1,_RNCNvNtNtNtNtCs46cA19QElOV_14do_memory_core6memory11attribution7tracker5testss_28test_get_session_for_episode0Bb_
FNDA:1,_RNCNvNtNtNtNtCs46cA19QElOV_14do_memory_core6memory11attribution7tracker5testss_28test_record_and_get_feedback0Bb_
FNF:36
FNH:27
DA:60,0
DA:61,0
DA:62,0
DA:68,198
DA:69,198
DA:70,198
DA:71,198
DA:72,198
DA:73,198
DA:74,198
DA:84,6
DA:85,6
DA:86,6
DA:103,6
DA:118,2
DA:119,2
DA:142,2
DA:146,1
DA:149,1
DA:153,1
DA:156,1
DA:160,1
DA:165,1
DA:169,0
DA:174,0
DA:178,0
DA:179,0
DA:180,0
DA:181,0
DA:184,0
DA:188,2
DA:254,2
DA:258,1
DA:268,1
DA:271,0
DA:272,0
DA:273,0
DA:274,0
DA:277,0
DA:278,0
DA:279,0
DA:280,0
DA:288,5
DA:289,5
DA:290,5
DA:291,5
DA:292,5
DA:293,5
DA:294,5
DA:295,5
DA:296,5
DA:298,2
DA:299,2
DA:300,2
DA:301,2
DA:302,2
DA:303,2
DA:304,2
DA:305,2
DA:306,2
DA:307,2
DA:308,2
DA:309,2
DA:312,1
DA:313,1
DA:314,1
DA:315,1
DA:317,1
DA:319,1
DA:320,1
DA:321,1
DA:322,1
DA:325,1
DA:326,1
DA:327,1
DA:328,1
DA:330,1
DA:332,1
DA:333,1
DA:335,1
DA:336,1
DA:337,1
DA:340,1
DA:341,1
DA:342,1
DA:343,1
DA:345,1
DA:347,1
DA:348,1
DA:349,1
DA:352,1
DA:353,1
DA:356,1
DA:357,1
DA:358,1
DA:361,1
DA:362,1
DA:364,1
DA:365,1
DA:366,1
DA:367,1
DA:368,1
DA:369,1
DA:370,1
DA:373,1
DA:374,1
DA:375,1
DA:377,1
DA:378,1
DA:380,1
DA:381,1
DA:382,1
BRF:0
BRH:0
LF:133
LH:111
end_of_record
SF:/app/memory-core/src/memory/attribution/types.rs
FN:105,_RNvXNtNtNtCsl8fXSKtwgoJ_14do_memory_core6memory11attribution5typesNtB2_19RecommendationStatsNtNtCs4kUJL3MZFFz_4core7default7Default7default
FN:105,_RNvXNtNtNtCs46cA19QElOV_14do_memory_core6memory11attribution5typesNtB2_19RecommendationStatsNtNtCs4kUJL3MZFFz_4core7default7Default7default
FN:162,_RNvNtNtNtNtCs46cA19QElOV_14do_memory_core6memory11attribution5types5testss_33test_recommendation_stats_default
FN:133,_RNvNtNtNtNtCs46cA19QElOV_14do_memory_core6memory11attribution5types5testss_36test_recommendation_session_creation
FN:146,_RNvNtNtNtNtCs46cA19QElOV_14do_memory_core6memory11attribution5types5testss_37test_recommendation_feedback_creation
FNDA:0,_RNvXNtNtNtCsl8fXSKtwgoJ_14do_memory_core6memory11attribution5typesNtB2_19RecommendationStatsNtNtCs4kUJL3MZFFz_4core7default7Default7default
FNDA:1,_RNvXNtNtNtCs46cA19QElOV_14do_memory_core6memory11attribution5typesNtB2_19RecommendationStatsNtNtCs4kUJL3MZFFz_4core7default7Default7default
FNDA:1,_RNvNtNtNtNtCs46cA19QElOV_14do_memory_core6memory11attribution5types5testss_33test_recommendation_stats_default
FNDA:1,_RNvNtNtNtNtCs46cA19QElOV_14do_memory_core6memory11attribution5types5testss_36test_recommendation_session_creation
FNDA:1,_RNvNtNtNtNtCs46cA19QElOV_14do_memory_core6memory11attribution5types5testss_37test_recommendation_feedback_creation
FNF:4
FNH:4
DA:105,1
DA:106,1
DA:107,1
DA:108,1
DA:109,1
DA:110,1
DA:111,1
DA:112,1
DA:113,1
DA:114,1
DA:115,1
DA:116,1
DA:133,1
DA:134,1
DA:135,1
DA:136,1
DA:137,1
DA:138,1
DA:139,1
DA:140,1
DA:142,1
DA:143,1
DA:146,1
DA:147,1
DA:148,1
DA:149,1
DA:150,1
DA:151,1
DA:152,1
DA:153,1
DA:154,1
DA:155,1
DA:156,1
DA:158,1
DA:159,1
DA:162,1
DA:163,1
DA:164,1
DA:165,1
DA:166,1
BRF:0
BRH:0
LF:40
LH:40
end_of_record
SF:/app/memory-core/src/memory/checkpoint/operations.rs
FN:317,_RNCNCNCNvNtNtNtCsl8fXSKtwgoJ_14do_memory_core6memory10checkpoint10operations23get_relevant_heuristics000Bd_
FN:257,_RNCNCNCNvNtNtNtCsl8fXSKtwgoJ_14do_memory_core6memory10checkpoint10operations29generate_suggested_next_steps000Bd_
FN:197,_RNCNCNvNtNtNtCsl8fXSKtwgoJ_14do_memory_core6memory10checkpoint10operations15find_checkpoint00Bb_
FN:312,_RNCNCNvNtNtNtCsl8fXSKtwgoJ_14do_memory_core6memory10checkpoint10operations23get_relevant_heuristics00Bb_
FN:257,_RNCNCNvNtNtNtCsl8fXSKtwgoJ_14do_memory_core6memory10checkpoint10operations29generate_suggested_next_steps00Bb_
FN:264,_RNCNCNvNtNtNtCsl8fXSKtwgoJ_14do_memory_core6memory10checkpoint10operations29generate_suggested_next_steps0s_0Bb_
FN:190,_RNCNvNtNtNtCsl8fXSKtwgoJ_14do_memory_core6memory10checkpoint10operations15find_checkpoint0B9_
FN:76,_RNCNvNtNtNtCsl8fXSKtwgoJ_14do_memory_core6memory10checkpoint10operations16get_handoff_pack0B9_
FN:25,_RNCNvNtNtNtCsl8fXSKtwgoJ_14do_memory_core6memory10checkpoint10operations18checkpoint_episode0B9_
FN:127,_RNCNvNtNtNtCsl8fXSKtwgoJ_14do_memory_core6memory10checkpoint10operations19resume_from_handoff0B9_
FN:292,_RNCNvNtNtNtCsl8fXSKtwgoJ_14do_memory_core6memory10checkpoint10operations21get_relevant_patterns0B9_
FN:307,_RNCNvNtNtNtCsl8fXSKtwgoJ_14do_memory_core6memory10checkpoint10operations23get_relevant_heuristics0B9_
FN:38,_RNCNvNtNtNtCsl8fXSKtwgoJ_14do_memory_core6memory10checkpoint10operations28checkpoint_episode_with_note0B9_
FN:247,_RNCNvNtNtNtCsl8fXSKtwgoJ_14do_memory_core6memory10checkpoint10operations29generate_suggested_next_steps0B9_
FN:208,_RNvNtNtNtCsl8fXSKtwgoJ_14do_memory_core6memory10checkpoint10operations15extract_lessons
FN:187,_RNvNtNtNtCsl8fXSKtwgoJ_14do_memory_core6memory10checkpoint10operations15find_checkpoint
FN:73,_RNvNtNtNtCsl8fXSKtwgoJ_14do_memory_core6memory10checkpoint10operations16get_handoff_pack
FN:21,_RNvNtNtNtCsl8fXSKtwgoJ_14do_memory_core6memory10checkpoint10operations18checkpoint_episode
FN:124,_RNvNtNtNtCsl8fXSKtwgoJ_14do_memory_core6memory10checkpoint10operations19resume_from_handoff
FN:289,_RNvNtNtNtCsl8fXSKtwgoJ_14do_memory_core6memory10checkpoint10operations21get_relevant_patterns
FN:304,_RNvNtNtNtCsl8fXSKtwgoJ_14do_memory_core6memory10checkpoint10operations23get_relevant_heuristics
FN:33,_RNvNtNtNtCsl8fXSKtwgoJ_14do_memory_core6memory10checkpoint10operations28checkpoint_episode_with_note
FN:244,_RNvNtNtNtCsl8fXSKtwgoJ_14do_memory_core6memory10checkpoint10operations29generate_suggested_next_steps
FN:124,_RNvNtNtNtCs46cA19QElOV_14do_memory_core6memory10checkpoint10operations19resume_from_handoff
FN:336,_RNCNvNtNtNtNtCs46cA19QElOV_14do_memory_core6memory10checkpoint10operations5testss_31test_get_handoff_pack_not_found0Bb_
FN:343,_RNCNvNtNtNtNtCs46cA19QElOV_14do_memory_core6memory10checkpoint10operations5testss_33test_checkpoint_completed_episode0Bb_
FN:329,_RNCNvNtNtNtNtCs46cA19QElOV_14do_memory_core6memory10checkpoint10operations5testss_33test_checkpoint_episode_not_found0Bb_
FN:317,_RNCNCNCNvNtNtNtCs46cA19QElOV_14do_memory_core6memory10checkpoint10operations23get_relevant_heuristics000Bd_
FN:257,_RNCNCNCNvNtNtNtCs46cA19QElOV_14do_memory_core6memory10checkpoint10operations29generate_suggested_next_steps000Bd_
FN:197,_RNCNCNvNtNtNtCs46cA19QElOV_14do_memory_core6memory10checkpoint10operations15find_checkpoint00Bb_
FN:312,_RNCNCNvNtNtNtCs46cA19QElOV_14do_memory_core6memory10checkpoint10operations23get_relevant_heuristics00Bb_
FN:257,_RNCNCNvNtNtNtCs46cA19QElOV_14do_memory_core6memory10checkpoint10operations29generate_suggested_next_steps00Bb_
FN:264,_RNCNCNvNtNtNtCs46cA19QElOV_14do_memory_core6memory10checkpoint10operations29generate_suggested_next_steps0s_0Bb_
FN:190,_RNCNvNtNtNtCs46cA19QElOV_14do_memory_core6memory10checkpoint10operations15find_checkpoint0B9_
FN:76,_RNCNvNtNtNtCs46cA19QElOV_14do_memory_core6memory10checkpoint10operations16get_handoff_pack0B9_
FN:25,_RNCNvNtNtNtCs46cA19QElOV_14do_memory_core6memory10checkpoint10operations18checkpoint_episode0B9_
FN:127,_RNCNvNtNtNtCs46cA19QElOV_14do_memory_core6memory10checkpoint10operations19resume_from_handoff0B9_
FN:292,_RNCNvNtNtNtCs46cA19QElOV_14do_memory_core6memory10checkpoint10operations21get_relevant_patterns0B9_
FN:307,_RNCNvNtNtNtCs46cA19QElOV_14do_memory_core6memory10checkpoint10operations23get_relevant_heuristics0B9_
FN:38,_RNCNvNtNtNtCs46cA19QElOV_14do_memory_core6memory10checkpoint10operations28checkpoint_episode_with_note0B9_
FN:247,_RNCNvNtNtNtCs46cA19QElOV_14do_memory_core6memory10checkpoint10operations29generate_suggested_next_steps0B9_
FN:336,_RNvNtNtNtNtCs46cA19QElOV_14do_memory_core6memory10checkpoint10operations5testss_31test_get_handoff_pack_not_found
FN:343,_RNvNtNtNtNtCs46cA19QElOV_14do_memory_core6memory10checkpoint10operations5testss_33test_checkpoint_completed_episode
FN:329,_RNvNtNtNtNtCs46cA19QElOV_14do_memory_core6memory10checkpoint10operations5testss_33test_checkpoint_episode_not_found
FN:208,_RNvNtNtNtCs46cA19QElOV_14do_memory_core6memory10checkpoint10operations15extract_lessons
FN:187,_RNvNtNtNtCs46cA19QElOV_14do_memory_core6memory10checkpoint10operations15find_checkpoint
FN:73,_RNvNtNtNtCs46cA19QElOV_14do_memory_core6memory10checkpoint10operations16get_handoff_pack
FN:21,_RNvNtNtNtCs46cA19QElOV_14do_memory_core6memory10checkpoint10operations18checkpoint_episode
FN:289,_RNvNtNtNtCs46cA19QElOV_14do_memory_core6memory10checkpoint10operations21get_relevant_patterns
FN:304,_RNvNtNtNtCs46cA19QElOV_14do_memory_core6memory10checkpoint10operations23get_relevant_heuristics
FN:33,_RNvNtNtNtCs46cA19QElOV_14do_memory_core6memory10checkpoint10operations28checkpoint_episode_with_note
FN:244,_RNvNtNtNtCs46cA19QElOV_14do_memory_core6memory10checkpoint10operations29generate_suggested_next_steps
FNDA:0,_RNCNCNCNvNtNtNtCsl8fXSKtwgoJ_14do_memory_core6memory10checkpoint10operations23get_relevant_heuristics000Bd_
FNDA:0,_RNCNCNCNvNtNtNtCsl8fXSKtwgoJ_14do_memory_core6memory10checkpoint10operations29generate_suggested_next_steps000Bd_
FNDA:0,_RNCNCNvNtNtNtCsl8fXSKtwgoJ_14do_memory_core6memory10checkpoint10operations15find_checkpoint00Bb_
FNDA:0,_RNCNCNvNtNtNtCsl8fXSKtwgoJ_14do_memory_core6memory10checkpoint10operations23get_relevant_heuristics00Bb_
FNDA:0,_RNCNCNvNtNtNtCsl8fXSKtwgoJ_14do_memory_core6memory10checkpoint10operations29generate_suggested_next_steps00Bb_
FNDA:0,_RNCNCNvNtNtNtCsl8fXSKtwgoJ_14do_memory_core6memory10checkpoint10operations29generate_suggested_next_steps0s_0Bb_
FNDA:0,_RNCNvNtNtNtCsl8fXSKtwgoJ_14do_memory_core6memory10checkpoint10operations15find_checkpoint0B9_
FNDA:0,_RNCNvNtNtNtCsl8fXSKtwgoJ_14do_memory_core6memory10checkpoint10operations16get_handoff_pack0B9_
FNDA:0,_RNCNvNtNtNtCsl8fXSKtwgoJ_14do_memory_core6memory10checkpoint10operations18checkpoint_episode0B9_
FNDA:0,_RNCNvNtNtNtCsl8fXSKtwgoJ_14do_memory_core6memory10checkpoint10operations19resume_from_handoff0B9_
FNDA:0,_RNCNvNtNtNtCsl8fXSKtwgoJ_14do_memory_core6memory10checkpoint10operations21get_relevant_patterns0B9_
FNDA:0,_RNCNvNtNtNtCsl8fXSKtwgoJ_14do_memory_core6memory10checkpoint10operations23get_relevant_heuristics0B9_
FNDA:0,_RNCNvNtNtNtCsl8fXSKtwgoJ_14do_memory_core6memory10checkpoint10operations28checkpoint_episode_with_note0B9_
FNDA:0,_RNCNvNtNtNtCsl8fXSKtwgoJ_14do_memory_core6memory10checkpoint10operations29generate_suggested_next_steps0B9_
FNDA:0,_RNvNtNtNtCsl8fXSKtwgoJ_14do_memory_core6memory10checkpoint10operations15extract_lessons
FNDA:0,_RNvNtNtNtCsl8fXSKtwgoJ_14do_memory_core6memory10checkpoint10operations15find_checkpoint
FNDA:0,_RNvNtNtNtCsl8fXSKtwgoJ_14do_memory_core6memory10checkpoint10operations16get_handoff_pack
FNDA:0,_RNvNtNtNtCsl8fXSKtwgoJ_14do_memory_core6memory10checkpoint10operations18checkpoint_episode
FNDA:0,_RNvNtNtNtCsl8fXSKtwgoJ_14do_memory_core6memory10checkpoint10operations19resume_from_handoff
FNDA:0,_RNvNtNtNtCsl8fXSKtwgoJ_14do_memory_core6memory10checkpoint10operations21get_relevant_patterns
FNDA:0,_RNvNtNtNtCsl8fXSKtwgoJ_14do_memory_core6memory10checkpoint10operations23get_relevant_heuristics
FNDA:0,_RNvNtNtNtCsl8fXSKtwgoJ_14do_memory_core6memory10checkpoint10operations28checkpoint_episode_with_note
FNDA:0,_RNvNtNtNtCsl8fXSKtwgoJ_14do_memory_core6memory10checkpoint10operations29generate_suggested_next_steps
FNDA:0,_RNvNtNtNtCs46cA19QElOV_14do_memory_core6memory10checkpoint10operations19resume_from_handoff
FNDA:1,_RNCNvNtNtNtNtCs46cA19QElOV_14do_memory_core6memory10checkpoint10operations5testss_31test_get_handoff_pack_not_found0Bb_
FNDA:1,_RNCNvNtNtNtNtCs46cA19QElOV_14do_memory_core6memory10checkpoint10operations5testss_33test_checkpoint_completed_episode0Bb_
FNDA:1,_RNCNvNtNtNtNtCs46cA19QElOV_14do_memory_core6memory10checkpoint10operations5testss_33test_checkpoint_episode_not_found0Bb_
FNDA:0,_RNCNCNCNvNtNtNtCs46cA19QElOV_14do_memory_core6memory10checkpoint10operations23get_relevant_heuristics000Bd_
FNDA:0,_RNCNCNCNvNtNtNtCs46cA19QElOV_14do_memory_core6memory10checkpoint10operations29generate_suggested_next_steps000Bd_
FNDA:0,_RNCNCNvNtNtNtCs46cA19QElOV_14do_memory_core6memory10checkpoint10operations15find_checkpoint00Bb_
FNDA:0,_RNCNCNvNtNtNtCs46cA19QElOV_14do_memory_core6memory10checkpoint10operations23get_relevant_heuristics00Bb_
FNDA:0,_RNCNCNvNtNtNtCs46cA19QElOV_14do_memory_core6memory10checkpoint10operations29generate_suggested_next_steps00Bb_
FNDA:0,_RNCNCNvNtNtNtCs46cA19QElOV_14do_memory_core6memory10checkpoint10operations29generate_suggested_next_steps0s_0Bb_
FNDA:1,_RNCNvNtNtNtCs46cA19QElOV_14do_memory_core6memory10checkpoint10operations15find_checkpoint0B9_
FNDA:1,_RNCNvNtNtNtCs46cA19QElOV_14do_memory_core6memory10checkpoint10operations16get_handoff_pack0B9_
FNDA:2,_RNCNvNtNtNtCs46cA19QElOV_14do_memory_core6memory10checkpoint10operations18checkpoint_episode0B9_
FNDA:0,_RNCNvNtNtNtCs46cA19QElOV_14do_memory_core6memory10checkpoint10operations19resume_from_handoff0B9_
FNDA:0,_RNCNvNtNtNtCs46cA19QElOV_14do_memory_core6memory10checkpoint10operations21get_relevant_patterns0B9_
FNDA:0,_RNCNvNtNtNtCs46cA19QElOV_14do_memory_core6memory10checkpoint10operations23get_relevant_heuristics0B9_
FNDA:2,_RNCNvNtNtNtCs46cA19QElOV_14do_memory_core6memory10checkpoint10operations28checkpoint_episode_with_note0B9_
FNDA:0,_RNCNvNtNtNtCs46cA19QElOV_14do_memory_core6memory10checkpoint10operations29generate_suggested_next_steps0B9_
FNDA:1,_RNvNtNtNtNtCs46cA19QElOV_14do_memory_core6memory10checkpoint10operations5testss_31test_get_handoff_pack_not_found
FNDA:1,_RNvNtNtNtNtCs46cA19QElOV_14do_memory_core6memory10checkpoint10operations5testss_33test_checkpoint_completed_episode
FNDA:1,_RNvNtNtNtNtCs46cA19QElOV_14do_memory_core6memory10checkpoint10operations5testss_33test_checkpoint_episode_not_found
FNDA:0,_RNvNtNtNtCs46cA19QElOV_14do_memory_core6memory10checkpoint10operations15extract_lessons
FNDA:1,_RNvNtNtNtCs46cA19QElOV_14do_memory_core6memory10checkpoint10operations15find_checkpoint
FNDA:1,_RNvNtNtNtCs46cA19QElOV_14do_memory_core6memory10checkpoint10operations16get_handoff_pack
FNDA:2,_RNvNtNtNtCs46cA19QElOV_14do_memory_core6memory10checkpoint10operations18checkpoint_episode
FNDA:0,_RNvNtNtNtCs46cA19QElOV_14do_memory_core6memory10checkpoint10operations21get_relevant_patterns
FNDA:0,_RNvNtNtNtCs46cA19QElOV_14do_memory_core6memory10checkpoint10operations23get_relevant_heuristics
FNDA:2,_RNvNtNtNtCs46cA19QElOV_14do_memory_core6memory10checkpoint10operations28checkpoint_episode_with_note
FNDA:0,_RNvNtNtNtCs46cA19QElOV_14do_memory_core6memory10checkpoint10operations29generate_suggested_next_steps
FNF:29
FNH:14
DA:21,2
DA:22,2
DA:23,2
DA:24,2
DA:25,2
DA:27,2
DA:33,2
DA:34,2
DA:35,2
DA:36,2
DA:37,2
DA:38,2
DA:65,2
DA:73,1
DA:74,1
DA:75,1
DA:76,1
DA:117,1
DA:124,0
DA:125,0
DA:126,0
DA:127,0
DA:184,0
DA:187,1
DA:188,1
DA:189,1
DA:190,1
DA:191,1
DA:193,1
DA:194,0
DA:195,0
DA:196,0
DA:197,0
DA:199,0
DA:200,0
DA:201,0
DA:204,1
DA:205,1
DA:208,0
DA:209,0
DA:210,0
DA:211,0
DA:212,0
DA:213,0
DA:214,0
DA:215,0
DA:217,0
DA:218,0
DA:220,0
DA:222,0
DA:223,0
DA:224,0
DA:225,0
DA:226,0
DA:227,0
DA:230,0
DA:231,0
DA:232,0
DA:233,0
DA:234,0
DA:235,0
DA:236,0
DA:237,0
DA:238,0
DA:240,0
DA:241,0
DA:244,0
DA:245,0
DA:246,0
DA:247,0
DA:248,0
DA:250,0
DA:252,0
DA:253,0
DA:254,0
DA:255,0
DA:256,0
DA:257,0
DA:258,0
DA:259,0
DA:260,0
DA:262,0
DA:263,0
DA:264,0
DA:265,0
DA:266,0
DA:268,0
DA:271,0
DA:272,0
DA:273,0
DA:274,0
DA:275,0
DA:279,0
DA:280,0
DA:281,0
DA:282,0
DA:284,0
DA:285,0
DA:286,0
DA:289,0
DA:290,0
DA:291,0
DA:292,0
DA:293,0
DA:294,0
DA:295,0
DA:296,0
DA:297,0
DA:298,0
DA:299,0
DA:300,0
DA:301,0
DA:304,0
DA:305,0
DA:306,0
DA:307,0
DA:308,0
DA:310,0
DA:311,0
DA:312,0
DA:313,0
DA:314,0
DA:315,0
DA:316,0
DA:317,0
DA:318,0
DA:319,0
DA:320,0
DA:321,0
DA:329,1
DA:330,1
DA:331,1
DA:332,1
DA:333,1
DA:336,1
DA:337,1
DA:338,1
DA:339,1
DA:340,1
DA:343,1
DA:348,1
DA:349,1
DA:350,1
DA:351,1
DA:352,1
DA:354,1
DA:355,1
DA:356,1
DA:357,1
DA:358,1
DA:359,1
DA:360,1
DA:362,1
DA:363,1
DA:364,1
DA:365,1
DA:366,1
DA:368,1
DA:369,1
DA:370,1
DA:371,1
DA:372,1
DA:373,1
DA:374,1
DA:375,1
DA:376,1
DA:377,1
DA:379,1
DA:380,1
DA:381,1
BRF:0
BRH:0
LF:190
LH:77
end_of_record
SF:/app/memory-core/src/memory/checkpoint/types.rs
FN:44,_RNvMNtNtNtCsl8fXSKtwgoJ_14do_memory_core6memory10checkpoint5typesNtB2_14CheckpointMeta3new
FN:93,_RNvMs_NtNtNtCsl8fXSKtwgoJ_14do_memory_core6memory10checkpoint5typesNtB4_11HandoffPack10step_count
FN:99,_RNvMs_NtNtNtCsl8fXSKtwgoJ_14do_memory_core6memory10checkpoint5typesNtB4_11HandoffPack11has_lessons
FN:105,_RNvMs_NtNtNtCsl8fXSKtwgoJ_14do_memory_core6memory10checkpoint5typesNtB4_11HandoffPack12has_guidance
FN:111,_RNvMs_NtNtNtCsl8fXSKtwgoJ_14do_memory_core6memory10checkpoint5typesNtB4_11HandoffPack7summary
FN:44,_RNvMNtNtNtCs46cA19QElOV_14do_memory_core6memory10checkpoint5typesNtB2_14CheckpointMeta3new
FN:93,_RNvMs_NtNtNtCs46cA19QElOV_14do_memory_core6memory10checkpoint5typesNtB4_11HandoffPack10step_count
FN:99,_RNvMs_NtNtNtCs46cA19QElOV_14do_memory_core6memory10checkpoint5typesNtB4_11HandoffPack11has_lessons
FN:105,_RNvMs_NtNtNtCs46cA19QElOV_14do_memory_core6memory10checkpoint5typesNtB4_11HandoffPack12has_guidance
FN:111,_RNvMs_NtNtNtCs46cA19QElOV_14do_memory_core6memory10checkpoint5typesNtB4_11HandoffPack7summary
FN:175,_RNvNtNtNtNtCs46cA19QElOV_14do_memory_core6memory10checkpoint5types5testss_25test_handoff_pack_summary
FN:165,_RNvNtNtNtNtCs46cA19QElOV_14do_memory_core6memory10checkpoint5types5testss_28test_checkpoint_meta_minimal
FN:151,_RNvNtNtNtNtCs46cA19QElOV_14do_memory_core6memory10checkpoint5types5testss_29test_checkpoint_meta_creation
FNDA:0,_RNvMNtNtNtCsl8fXSKtwgoJ_14do_memory_core6memory10checkpoint5typesNtB2_14CheckpointMeta3new
FNDA:0,_RNvMs_NtNtNtCsl8fXSKtwgoJ_14do_memory_core6memory10checkpoint5typesNtB4_11HandoffPack10step_count
FNDA:0,_RNvMs_NtNtNtCsl8fXSKtwgoJ_14do_memory_core6memory10checkpoint5typesNtB4_11HandoffPack11has_lessons
FNDA:0,_RNvMs_NtNtNtCsl8fXSKtwgoJ_14do_memory_core6memory10checkpoint5typesNtB4_11HandoffPack12has_guidance
FNDA:256,_RNvMs_NtNtNtCsl8fXSKtwgoJ_14do_memory_core6memory10checkpoint5typesNtB4_11HandoffPack7summary
FNDA:2,_RNvMNtNtNtCs46cA19QElOV_14do_memory_core6memory10checkpoint5typesNtB2_14CheckpointMeta3new
FNDA:0,_RNvMs_NtNtNtCs46cA19QElOV_14do_memory_core6memory10checkpoint5typesNtB4_11HandoffPack10step_count
FNDA:1,_RNvMs_NtNtNtCs46cA19QElOV_14do_memory_core6memory10checkpoint5typesNtB4_11HandoffPack11has_lessons
FNDA:1,_RNvMs_NtNtNtCs46cA19QElOV_14do_memory_core6memory10checkpoint5typesNtB4_11HandoffPack12has_guidance
FNDA:1,_RNvMs_NtNtNtCs46cA19QElOV_14do_memory_core6memory10checkpoint5typesNtB4_11HandoffPack7summary
FNDA:1,_RNvNtNtNtNtCs46cA19QElOV_14do_memory_core6memory10checkpoint5types5testss_25test_handoff_pack_summary
FNDA:1,_RNvNtNtNtNtCs46cA19QElOV_14do_memory_core6memory10checkpoint5types5testss_28test_checkpoint_meta_minimal
FNDA:1,_RNvNtNtNtNtCs46cA19QElOV_14do_memory_core6memory10checkpoint5types5testss_29test_checkpoint_meta_creation
FNF:8
FNH:7
DA:44,2
DA:45,2
DA:46,2
DA:47,2
DA:48,2
DA:49,2
DA:50,2
DA:51,2
DA:52,2
DA:93,0
DA:94,0
DA:95,0
DA:99,1
DA:100,1
DA:101,1
DA:105,1
DA:106,1
DA:107,1
DA:111,257
DA:112,257
DA:113,257
DA:114,257
DA:115,257
DA:116,257
DA:117,257
DA:118,257
DA:119,257
DA:120,257
DA:121,257
DA:122,257
DA:151,1
DA:152,1
DA:153,1
DA:155,1
DA:158,1
DA:159,1
DA:160,1
DA:161,1
DA:162,1
DA:165,1
DA:166,1
DA:168,1
DA:169,1
DA:170,1
DA:171,1
DA:172,1
DA:175,1
DA:176,1
DA:177,1
DA:178,1
DA:179,1
DA:180,1
DA:181,1
DA:182,1
DA:183,1
DA:184,1
DA:185,1
DA:186,1
DA:187,1
DA:188,1
DA:189,1
DA:190,1
DA:191,1
DA:193,1
DA:194,1
DA:195,1
DA:196,1
DA:197,1
DA:198,1
DA:199,1
BRF:0
BRH:0
LF:70
LH:67
end_of_record
SF:/app/memory-core/src/memory/completion.rs
FN:222,_RNCNCNCNvMNtNtCsl8fXSKtwgoJ_14do_memory_core6memory10completionNtNtBa_5types18SelfLearningMemory16complete_episode000Bc_
FN:223,_RNCNCNCNvMNtNtCsl8fXSKtwgoJ_14do_memory_core6memory10completionNtNtBa_5types18SelfLearningMemory16complete_episode00s_0Bc_
FN:85,_RNCNvMNtNtCsl8fXSKtwgoJ_14do_memory_core6memory10completionNtNtB6_5types18SelfLearningMemory16complete_episode0B8_
FN:85,_RNvMNtNtCsl8fXSKtwgoJ_14do_memory_core6memory10completionNtNtB4_5types18SelfLearningMemory16complete_episode
FN:222,_RNCNCNCNvMNtNtCsl8fXSKtwgoJ_14do_memory_core6memory10completionNtNtBa_5types18SelfLearningMemory16complete_episode000Csl2t77M2budw_16async_extraction
FN:223,_RNCNCNCNvMNtNtCsl8fXSKtwgoJ_14do_memory_core6memory10completionNtNtBa_5types18SelfLearningMemory16complete_episode00s_0Csl2t77M2budw_16async_extraction
FN:85,_RNCNvMNtNtCsl8fXSKtwgoJ_14do_memory_core6memory10completionNtNtB6_5types18SelfLearningMemory16complete_episode0Csl2t77M2budw_16async_extraction
FN:222,_RNCNCNCNvMNtNtCsl8fXSKtwgoJ_14do_memory_core6memory10completionNtNtBa_5types18SelfLearningMemory16complete_episode000Cs8Y0Nm3vik3R_10compliance
FN:223,_RNCNCNCNvMNtNtCsl8fXSKtwgoJ_14do_memory_core6memory10completionNtNtBa_5types18SelfLearningMemory16complete_episode00s_0Cs8Y0Nm3vik3R_10compliance
FN:85,_RNCNvMNtNtCsl8fXSKtwgoJ_14do_memory_core6memory10completionNtNtB6_5types18SelfLearningMemory16complete_episode0Cs8Y0Nm3vik3R_10compliance
FN:85,_RNvMNtNtCs46cA19QElOV_14do_memory_core6memory10completionNtNtB4_5types18SelfLearningMemory16complete_episode
FN:222,_RNCNCNCNvMNtNtCs46cA19QElOV_14do_memory_core6memory10completionNtNtBa_5types18SelfLearningMemory16complete_episode000Bc_
FN:223,_RNCNCNCNvMNtNtCs46cA19QElOV_14do_memory_core6memory10completionNtNtBa_5types18SelfLearningMemory16complete_episode00s_0Bc_
FN:85,_RNCNvMNtNtCs46cA19QElOV_14do_memory_core6memory10completionNtNtB6_5types18SelfLearningMemory16complete_episode0B8_
FN:222,_RNCNCNCNvMNtNtCsl8fXSKtwgoJ_14do_memory_core6memory10completionNtNtBa_5types18SelfLearningMemory16complete_episode000CsgrBw30QCVrl_26embedding_integration_test
FN:223,_RNCNCNCNvMNtNtCsl8fXSKtwgoJ_14do_memory_core6memory10completionNtNtBa_5types18SelfLearningMemory16complete_episode00s_0CsgrBw30QCVrl_26embedding_integration_test
FN:85,_RNCNvMNtNtCsl8fXSKtwgoJ_14do_memory_core6memory10completionNtNtB6_5types18SelfLearningMemory16complete_episode0CsgrBw30QCVrl_26embedding_integration_test
FN:222,_RNCNCNCNvMNtNtCsl8fXSKtwgoJ_14do_memory_core6memory10completionNtNtBa_5types18SelfLearningMemory16complete_episode000Cs5rMxCUgDzf0_22episode_filtering_test
FN:223,_RNCNCNCNvMNtNtCsl8fXSKtwgoJ_14do_memory_core6memory10completionNtNtBa_5types18SelfLearningMemory16complete_episode00s_0Cs5rMxCUgDzf0_22episode_filtering_test
FN:85,_RNCNvMNtNtCsl8fXSKtwgoJ_14do_memory_core6memory10completionNtNtB6_5types18SelfLearningMemory16complete_episode0Cs5rMxCUgDzf0_22episode_filtering_test
FN:222,_RNCNCNCNvMNtNtCsl8fXSKtwgoJ_14do_memory_core6memory10completionNtNtBa_5types18SelfLearningMemory16complete_episode000Cs3Fo6gHJh4GI_24genesis_integration_test
FN:223,_RNCNCNCNvMNtNtCsl8fXSKtwgoJ_14do_memory_core6memory10completionNtNtBa_5types18SelfLearningMemory16complete_episode00s_0Cs3Fo6gHJh4GI_24genesis_integration_test
FN:85,_RNCNvMNtNtCsl8fXSKtwgoJ_14do_memory_core6memory10completionNtNtB6_5types18SelfLearningMemory16complete_episode0Cs3Fo6gHJh4GI_24genesis_integration_test
FN:222,_RNCNCNCNvMNtNtCsl8fXSKtwgoJ_14do_memory_core6memory10completionNtNtBa_5types18SelfLearningMemory16complete_episode000CsbMzWChOpjhm_18heuristic_learning
FN:223,_RNCNCNCNvMNtNtCsl8fXSKtwgoJ_14do_memory_core6memory10completionNtNtBa_5types18SelfLearningMemory16complete_episode00s_0CsbMzWChOpjhm_18heuristic_learning
FN:85,_RNCNvMNtNtCsl8fXSKtwgoJ_14do_memory_core6memory10completionNtNtB6_5types18SelfLearningMemory16complete_episode0CsbMzWChOpjhm_18heuristic_learning
FN:222,_RNCNCNCNvMNtNtCsl8fXSKtwgoJ_14do_memory_core6memory10completionNtNtBa_5types18SelfLearningMemory16complete_episode000CsaPsuztuIJpk_16input_validation
FN:223,_RNCNCNCNvMNtNtCsl8fXSKtwgoJ_14do_memory_core6memory10completionNtNtBa_5types18SelfLearningMemory16complete_episode00s_0CsaPsuztuIJpk_16input_validation
FN:85,_RNCNvMNtNtCsl8fXSKtwgoJ_14do_memory_core6memory10completionNtNtB6_5types18SelfLearningMemory16complete_episode0CsaPsuztuIJpk_16input_validation
FN:222,_RNCNCNCNvMNtNtCsl8fXSKtwgoJ_14do_memory_core6memory10completionNtNtBa_5types18SelfLearningMemory16complete_episode000Cs88LU71L0mqI_14learning_cycle
FN:223,_RNCNCNCNvMNtNtCsl8fXSKtwgoJ_14do_memory_core6memory10completionNtNtBa_5types18SelfLearningMemory16complete_episode00s_0Cs88LU71L0mqI_14learning_cycle
FN:85,_RNCNvMNtNtCsl8fXSKtwgoJ_14do_memory_core6memory10completionNtNtB6_5types18SelfLearningMemory16complete_episode0Cs88LU71L0mqI_14learning_cycle
FN:222,_RNCNCNCNvMNtNtCsl8fXSKtwgoJ_14do_memory_core6memory10completionNtNtBa_5types18SelfLearningMemory16complete_episode000Csl4UHWu7meyU_31pattern_search_integration_test
FN:223,_RNCNCNCNvMNtNtCsl8fXSKtwgoJ_14do_memory_core6memory10completionNtNtBa_5types18SelfLearningMemory16complete_episode00s_0Csl4UHWu7meyU_31pattern_search_integration_test
FN:85,_RNCNvMNtNtCsl8fXSKtwgoJ_14do_memory_core6memory10completionNtNtB6_5types18SelfLearningMemory16complete_episode0Csl4UHWu7meyU_31pattern_search_integration_test
FN:222,_RNCNCNCNvMNtNtCsl8fXSKtwgoJ_14do_memory_core6memory10completionNtNtBa_5types18SelfLearningMemory16complete_episode000Csk8xWN7fShrt_11performance
FN:223,_RNCNCNCNvMNtNtCsl8fXSKtwgoJ_14do_memory_core6memory10completionNtNtBa_5types18SelfLearningMemory16complete_episode00s_0Csk8xWN7fShrt_11performance
FN:85,_RNCNvMNtNtCsl8fXSKtwgoJ_14do_memory_core6memory10completionNtNtB6_5types18SelfLearningMemory16complete_episode0Csk8xWN7fShrt_11performance
FN:222,_RNCNCNCNvMNtNtCsl8fXSKtwgoJ_14do_memory_core6memory10completionNtNtBa_5types18SelfLearningMemory16complete_episode000Cs5rUVsF5rDW0_23premem_integration_test
FN:223,_RNCNCNCNvMNtNtCsl8fXSKtwgoJ_14do_memory_core6memory10completionNtNtBa_5types18SelfLearningMemory16complete_episode00s_0Cs5rUVsF5rDW0_23premem_integration_test
FN:85,_RNCNvMNtNtCsl8fXSKtwgoJ_14do_memory_core6memory10completionNtNtB6_5types18SelfLearningMemory16complete_episode0Cs5rUVsF5rDW0_23premem_integration_test
FN:222,_RNCNCNCNvMNtNtCsl8fXSKtwgoJ_14do_memory_core6memory10completionNtNtBa_5types18SelfLearningMemory16complete_episode000Csdoax4t5h3WK_10regression
FN:223,_RNCNCNCNvMNtNtCsl8fXSKtwgoJ_14do_memory_core6memory10completionNtNtBa_5types18SelfLearningMemory16complete_episode00s_0Csdoax4t5h3WK_10regression
FN:85,_RNCNvMNtNtCsl8fXSKtwgoJ_14do_memory_core6memory10completionNtNtB6_5types18SelfLearningMemory16complete_episode0Csdoax4t5h3WK_10regression
FN:222,_RNCNCNCNvMNtNtCsl8fXSKtwgoJ_14do_memory_core6memory10completionNtNtBa_5types18SelfLearningMemory16complete_episode000CsaoCCEImll0o_36semantic_hierarchical_retrieval_test
FN:223,_RNCNCNCNvMNtNtCsl8fXSKtwgoJ_14do_memory_core6memory10completionNtNtBa_5types18SelfLearningMemory16complete_episode00s_0CsaoCCEImll0o_36semantic_hierarchical_retrieval_test
FN:85,_RNCNvMNtNtCsl8fXSKtwgoJ_14do_memory_core6memory10completionNtNtB6_5types18SelfLearningMemory16complete_episode0CsaoCCEImll0o_36semantic_hierarchical_retrieval_test
FN:222,_RNCNCNCNvMNtNtCsl8fXSKtwgoJ_14do_memory_core6memory10completionNtNtBa_5types18SelfLearningMemory16complete_episode000CsbPJcDfmBHDL_13step_batching
FN:223,_RNCNCNCNvMNtNtCsl8fXSKtwgoJ_14do_memory_core6memory10completionNtNtBa_5types18SelfLearningMemory16complete_episode00s_0CsbPJcDfmBHDL_13step_batching
FN:85,_RNCNvMNtNtCsl8fXSKtwgoJ_14do_memory_core6memory10completionNtNtB6_5types18SelfLearningMemory16complete_episode0CsbPJcDfmBHDL_13step_batching
FN:222,_RNCNCNCNvMNtNtCsl8fXSKtwgoJ_14do_memory_core6memory10completionNtNtBa_5types18SelfLearningMemory16complete_episode000CsJzhEr7sGW1_19tag_operations_test
FN:223,_RNCNCNCNvMNtNtCsl8fXSKtwgoJ_14do_memory_core6memory10completionNtNtBa_5types18SelfLearningMemory16complete_episode00s_0CsJzhEr7sGW1_19tag_operations_test
FN:85,_RNCNvMNtNtCsl8fXSKtwgoJ_14do_memory_core6memory10completionNtNtB6_5types18SelfLearningMemory16complete_episode0CsJzhEr7sGW1_19tag_operations_test
FNDA:0,_RNCNCNCNvMNtNtCsl8fXSKtwgoJ_14do_memory_core6memory10completionNtNtBa_5types18SelfLearningMemory16complete_episode000Bc_
FNDA:0,_RNCNCNCNvMNtNtCsl8fXSKtwgoJ_14do_memory_core6memory10completionNtNtBa_5types18SelfLearningMemory16complete_episode00s_0Bc_
FNDA:0,_RNCNvMNtNtCsl8fXSKtwgoJ_14do_memory_core6memory10completionNtNtB6_5types18SelfLearningMemory16complete_episode0B8_
FNDA:2293,_RNvMNtNtCsl8fXSKtwgoJ_14do_memory_core6memory10completionNtNtB4_5types18SelfLearningMemory16complete_episode
FNDA:0,_RNCNCNCNvMNtNtCsl8fXSKtwgoJ_14do_memory_core6memory10completionNtNtBa_5types18SelfLearningMemory16complete_episode000Csl2t77M2budw_16async_extraction
FNDA:0,_RNCNCNCNvMNtNtCsl8fXSKtwgoJ_14do_memory_core6memory10completionNtNtBa_5types18SelfLearningMemory16complete_episode00s_0Csl2t77M2budw_16async_extraction
FNDA:36,_RNCNvMNtNtCsl8fXSKtwgoJ_14do_memory_core6memory10completionNtNtB6_5types18SelfLearningMemory16complete_episode0Csl2t77M2budw_16async_extraction
FNDA:0,_RNCNCNCNvMNtNtCsl8fXSKtwgoJ_14do_memory_core6memory10completionNtNtBa_5types18SelfLearningMemory16complete_episode000Cs8Y0Nm3vik3R_10compliance
FNDA:0,_RNCNCNCNvMNtNtCsl8fXSKtwgoJ_14do_memory_core6memory10completionNtNtBa_5types18SelfLearningMemory16complete_episode00s_0Cs8Y0Nm3vik3R_10compliance
FNDA:101,_RNCNvMNtNtCsl8fXSKtwgoJ_14do_memory_core6memory10completionNtNtB6_5types18SelfLearningMemory16complete_episode0Cs8Y0Nm3vik3R_10compliance
FNDA:26,_RNvMNtNtCs46cA19QElOV_14do_memory_core6memory10completionNtNtB4_5types18SelfLearningMemory16complete_episode
FNDA:0,_RNCNCNCNvMNtNtCs46cA19QElOV_14do_memory_core6memory10completionNtNtBa_5types18SelfLearningMemory16complete_episode000Bc_
FNDA:0,_RNCNCNCNvMNtNtCs46cA19QElOV_14do_memory_core6memory10completionNtNtBa_5types18SelfLearningMemory16complete_episode00s_0Bc_
FNDA:26,_RNCNvMNtNtCs46cA19QElOV_14do_memory_core6memory10completionNtNtB6_5types18SelfLearningMemory16complete_episode0B8_
FNDA:0,_RNCNCNCNvMNtNtCsl8fXSKtwgoJ_14do_memory_core6memory10completionNtNtBa_5types18SelfLearningMemory16complete_episode000CsgrBw30QCVrl_26embedding_integration_test
FNDA:0,_RNCNCNCNvMNtNtCsl8fXSKtwgoJ_14do_memory_core6memory10completionNtNtBa_5types18SelfLearningMemory16complete_episode00s_0CsgrBw30QCVrl_26embedding_integration_test
FNDA:7,_RNCNvMNtNtCsl8fXSKtwgoJ_14do_memory_core6memory10completionNtNtB6_5types18SelfLearningMemory16complete_episode0CsgrBw30QCVrl_26embedding_integration_test
FNDA:0,_RNCNCNCNvMNtNtCsl8fXSKtwgoJ_14do_memory_core6memory10completionNtNtBa_5types18SelfLearningMemory16complete_episode000Cs5rMxCUgDzf0_22episode_filtering_test
FNDA:0,_RNCNCNCNvMNtNtCsl8fXSKtwgoJ_14do_memory_core6memory10completionNtNtBa_5types18SelfLearningMemory16complete_episode00s_0Cs5rMxCUgDzf0_22episode_filtering_test
FNDA:5,_RNCNvMNtNtCsl8fXSKtwgoJ_14do_memory_core6memory10completionNtNtB6_5types18SelfLearningMemory16complete_episode0Cs5rMxCUgDzf0_22episode_filtering_test
FNDA:97,_RNCNCNCNvMNtNtCsl8fXSKtwgoJ_14do_memory_core6memory10completionNtNtBa_5types18SelfLearningMemory16complete_episode000Cs3Fo6gHJh4GI_24genesis_integration_test
FNDA:68,_RNCNCNCNvMNtNtCsl8fXSKtwgoJ_14do_memory_core6memory10completionNtNtBa_5types18SelfLearningMemory16complete_episode00s_0Cs3Fo6gHJh4GI_24genesis_integration_test
FNDA:45,_RNCNvMNtNtCsl8fXSKtwgoJ_14do_memory_core6memory10completionNtNtB6_5types18SelfLearningMemory16complete_episode0Cs3Fo6gHJh4GI_24genesis_integration_test
FNDA:0,_RNCNCNCNvMNtNtCsl8fXSKtwgoJ_14do_memory_core6memory10completionNtNtBa_5types18SelfLearningMemory16complete_episode000CsbMzWChOpjhm_18heuristic_learning
FNDA:0,_RNCNCNCNvMNtNtCsl8fXSKtwgoJ_14do_memory_core6memory10completionNtNtBa_5types18SelfLearningMemory16complete_episode00s_0CsbMzWChOpjhm_18heuristic_learning
FNDA:7,_RNCNvMNtNtCsl8fXSKtwgoJ_14do_memory_core6memory10completionNtNtB6_5types18SelfLearningMemory16complete_episode0CsbMzWChOpjhm_18heuristic_learning
FNDA:0,_RNCNCNCNvMNtNtCsl8fXSKtwgoJ_14do_memory_core6memory10completionNtNtBa_5types18SelfLearningMemory16complete_episode000CsaPsuztuIJpk_16input_validation
FNDA:0,_RNCNCNCNvMNtNtCsl8fXSKtwgoJ_14do_memory_core6memory10completionNtNtBa_5types18SelfLearningMemory16complete_episode00s_0CsaPsuztuIJpk_16input_validation
FNDA:7,_RNCNvMNtNtCsl8fXSKtwgoJ_14do_memory_core6memory10completionNtNtB6_5types18SelfLearningMemory16complete_episode0CsaPsuztuIJpk_16input_validation
FNDA:0,_RNCNCNCNvMNtNtCsl8fXSKtwgoJ_14do_memory_core6memory10completionNtNtBa_5types18SelfLearningMemory16complete_episode000Cs88LU71L0mqI_14learning_cycle
FNDA:0,_RNCNCNCNvMNtNtCsl8fXSKtwgoJ_14do_memory_core6memory10completionNtNtBa_5types18SelfLearningMemory16complete_episode00s_0Cs88LU71L0mqI_14learning_cycle
FNDA:7,_RNCNvMNtNtCsl8fXSKtwgoJ_14do_memory_core6memory10completionNtNtB6_5types18SelfLearningMemory16complete_episode0Cs88LU71L0mqI_14learning_cycle
FNDA:0,_RNCNCNCNvMNtNtCsl8fXSKtwgoJ_14do_memory_core6memory10completionNtNtBa_5types18SelfLearningMemory16complete_episode000Csl4UHWu7meyU_31pattern_search_integration_test
FNDA:0,_RNCNCNCNvMNtNtCsl8fXSKtwgoJ_14do_memory_core6memory10completionNtNtBa_5types18SelfLearningMemory16complete_episode00s_0Csl4UHWu7meyU_31pattern_search_integration_test
FNDA:1,_RNCNvMNtNtCsl8fXSKtwgoJ_14do_memory_core6memory10completionNtNtB6_5types18SelfLearningMemory16complete_episode0Csl4UHWu7meyU_31pattern_search_integration_test
FNDA:0,_RNCNCNCNvMNtNtCsl8fXSKtwgoJ_14do_memory_core6memory10completionNtNtBa_5types18SelfLearningMemory16complete_episode000Csk8xWN7fShrt_11performance
FNDA:0,_RNCNCNCNvMNtNtCsl8fXSKtwgoJ_14do_memory_core6memory10completionNtNtBa_5types18SelfLearningMemory16complete_episode00s_0Csk8xWN7fShrt_11performance
FNDA:1800,_RNCNvMNtNtCsl8fXSKtwgoJ_14do_memory_core6memory10completionNtNtB6_5types18SelfLearningMemory16complete_episode0Csk8xWN7fShrt_11performance
FNDA:0,_RNCNCNCNvMNtNtCsl8fXSKtwgoJ_14do_memory_core6memory10completionNtNtBa_5types18SelfLearningMemory16complete_episode000Cs5rUVsF5rDW0_23premem_integration_test
FNDA:0,_RNCNCNCNvMNtNtCsl8fXSKtwgoJ_14do_memory_core6memory10completionNtNtBa_5types18SelfLearningMemory16complete_episode00s_0Cs5rUVsF5rDW0_23premem_integration_test
FNDA:6,_RNCNvMNtNtCsl8fXSKtwgoJ_14do_memory_core6memory10completionNtNtB6_5types18SelfLearningMemory16complete_episode0Cs5rUVsF5rDW0_23premem_integration_test
FNDA:0,_RNCNCNCNvMNtNtCsl8fXSKtwgoJ_14do_memory_core6memory10completionNtNtBa_5types18SelfLearningMemory16complete_episode000Csdoax4t5h3WK_10regression
FNDA:0,_RNCNCNCNvMNtNtCsl8fXSKtwgoJ_14do_memory_core6memory10completionNtNtBa_5types18SelfLearningMemory16complete_episode00s_0Csdoax4t5h3WK_10regression
FNDA:133,_RNCNvMNtNtCsl8fXSKtwgoJ_14do_memory_core6memory10completionNtNtB6_5types18SelfLearningMemory16complete_episode0Csdoax4t5h3WK_10regression
FNDA:0,_RNCNCNCNvMNtNtCsl8fXSKtwgoJ_14do_memory_core6memory10completionNtNtBa_5types18SelfLearningMemory16complete_episode000CsaoCCEImll0o_36semantic_hierarchical_retrieval_test
FNDA:0,_RNCNCNCNvMNtNtCsl8fXSKtwgoJ_14do_memory_core6memory10completionNtNtBa_5types18SelfLearningMemory16complete_episode00s_0CsaoCCEImll0o_36semantic_hierarchical_retrieval_test
FNDA:130,_RNCNvMNtNtCsl8fXSKtwgoJ_14do_memory_core6memory10completionNtNtB6_5types18SelfLearningMemory16complete_episode0CsaoCCEImll0o_36semantic_hierarchical_retrieval_test
FNDA:0,_RNCNCNCNvMNtNtCsl8fXSKtwgoJ_14do_memory_core6memory10completionNtNtBa_5types18SelfLearningMemory16complete_episode000CsbPJcDfmBHDL_13step_batching
FNDA:0,_RNCNCNCNvMNtNtCsl8fXSKtwgoJ_14do_memory_core6memory10completionNtNtBa_5types18SelfLearningMemory16complete_episode00s_0CsbPJcDfmBHDL_13step_batching
FNDA:8,_RNCNvMNtNtCsl8fXSKtwgoJ_14do_memory_core6memory10completionNtNtB6_5types18SelfLearningMemory16complete_episode0CsbPJcDfmBHDL_13step_batching
FNDA:0,_RNCNCNCNvMNtNtCsl8fXSKtwgoJ_14do_memory_core6memory10completionNtNtBa_5types18SelfLearningMemory16complete_episode000CsJzhEr7sGW1_19tag_operations_test
FNDA:0,_RNCNCNCNvMNtNtCsl8fXSKtwgoJ_14do_memory_core6memory10completionNtNtBa_5types18SelfLearningMemory16complete_episode00s_0CsJzhEr7sGW1_19tag_operations_test
FNDA:0,_RNCNvMNtNtCsl8fXSKtwgoJ_14do_memory_core6memory10completionNtNtB6_5types18SelfLearningMemory16complete_episode0CsJzhEr7sGW1_19tag_operations_test
FNF:4
FNH:4
DA:85,2319
DA:189,2319
DA:215,2319
DA:222,97
DA:223,68
DA:256,2319
DA:310,2319
DA:332,2319
DA:396,2319
DA:401,2319
BRF:0
BRH:0
LF:11
LH:11
end_of_record
SF:/app/memory-core/src/memory/episode.rs
FN:222,_RNCNCNCNvMNtNtCsl8fXSKtwgoJ_14do_memory_core6memory7episodeNtNtBa_5types18SelfLearningMemory8log_step000Bc_
FN:312,_RNCNvMNtNtCsl8fXSKtwgoJ_14do_memory_core6memory7episodeNtNtB6_5types18SelfLearningMemory11flush_steps0B8_
FN:318,_RNCNvMNtNtCsl8fXSKtwgoJ_14do_memory_core6memory7episodeNtNtB6_5types18SelfLearningMemory20flush_steps_internal0B8_
FN:191,_RNCNvMNtNtCsl8fXSKtwgoJ_14do_memory_core6memory7episodeNtNtB6_5types18SelfLearningMemory8log_step0B8_
FN:312,_RNvMNtNtCsl8fXSKtwgoJ_14do_memory_core6memory7episodeNtNtB4_5types18SelfLearningMemory11flush_steps
FN:390,_RNvMNtNtCsl8fXSKtwgoJ_14do_memory_core6memory7episodeNtNtB4_5types18SelfLearningMemory11get_episode
FN:63,_RNvMNtNtCsl8fXSKtwgoJ_14do_memory_core6memory7episodeNtNtB4_5types18SelfLearningMemory13start_episode
FN:318,_RNvMNtNtCsl8fXSKtwgoJ_14do_memory_core6memory7episodeNtNtB4_5types18SelfLearningMemory20flush_steps_internal
FN:191,_RNvMNtNtCsl8fXSKtwgoJ_14do_memory_core6memory7episodeNtNtB4_5types18SelfLearningMemory8log_step
FN:390,_RNCNvMNtNtCsl8fXSKtwgoJ_14do_memory_core6memory7episodeNtNtB6_5types18SelfLearningMemory11get_episode0B8_
FN:68,_RNCNvMNtNtCsl8fXSKtwgoJ_14do_memory_core6memory7episodeNtNtB6_5types18SelfLearningMemory13start_episode0B8_
FN:222,_RNCNCNCNvMNtNtCsl8fXSKtwgoJ_14do_memory_core6memory7episodeNtNtBa_5types18SelfLearningMemory8log_step000Csl2t77M2budw_16async_extraction
FN:312,_RNCNvMNtNtCsl8fXSKtwgoJ_14do_memory_core6memory7episodeNtNtB6_5types18SelfLearningMemory11flush_steps0Csl2t77M2budw_16async_extraction
FN:318,_RNCNvMNtNtCsl8fXSKtwgoJ_14do_memory_core6memory7episodeNtNtB6_5types18SelfLearningMemory20flush_steps_internal0Csl2t77M2budw_16async_extraction
FN:191,_RNCNvMNtNtCsl8fXSKtwgoJ_14do_memory_core6memory7episodeNtNtB6_5types18SelfLearningMemory8log_step0Csl2t77M2budw_16async_extraction
FN:222,_RNCNCNCNvMNtNtCsl8fXSKtwgoJ_14do_memory_core6memory7episodeNtNtBa_5types18SelfLearningMemory8log_step000Cs5WLAsFSXtas_27bulk_episode_retrieval_test
FN:312,_RNCNvMNtNtCsl8fXSKtwgoJ_14do_memory_core6memory7episodeNtNtB6_5types18SelfLearningMemory11flush_steps0Cs5WLAsFSXtas_27bulk_episode_retrieval_test
FN:318,_RNCNvMNtNtCsl8fXSKtwgoJ_14do_memory_core6memory7episodeNtNtB6_5types18SelfLearningMemory20flush_steps_internal0Cs5WLAsFSXtas_27bulk_episode_retrieval_test
FN:191,_RNCNvMNtNtCsl8fXSKtwgoJ_14do_memory_core6memory7episodeNtNtB6_5types18SelfLearningMemory8log_step0Cs5WLAsFSXtas_27bulk_episode_retrieval_test
FN:222,_RNCNCNCNvMNtNtCsl8fXSKtwgoJ_14do_memory_core6memory7episodeNtNtBa_5types18SelfLearningMemory8log_step000Cs8Y0Nm3vik3R_10compliance
FN:312,_RNCNvMNtNtCsl8fXSKtwgoJ_14do_memory_core6memory7episodeNtNtB6_5types18SelfLearningMemory11flush_steps0Cs8Y0Nm3vik3R_10compliance
FN:318,_RNCNvMNtNtCsl8fXSKtwgoJ_14do_memory_core6memory7episodeNtNtB6_5types18SelfLearningMemory20flush_steps_internal0Cs8Y0Nm3vik3R_10compliance
FN:191,_RNCNvMNtNtCsl8fXSKtwgoJ_14do_memory_core6memory7episodeNtNtB6_5types18SelfLearningMemory8log_step0Cs8Y0Nm3vik3R_10compliance
FN:312,_RNvMNtNtCs46cA19QElOV_14do_memory_core6memory7episodeNtNtB4_5types18SelfLearningMemory11flush_steps
FN:390,_RNvMNtNtCs46cA19QElOV_14do_memory_core6memory7episodeNtNtB4_5types18SelfLearningMemory11get_episode
FN:63,_RNvMNtNtCs46cA19QElOV_14do_memory_core6memory7episodeNtNtB4_5types18SelfLearningMemory13start_episode
FN:318,_RNvMNtNtCs46cA19QElOV_14do_memory_core6memory7episodeNtNtB4_5types18SelfLearningMemory20flush_steps_internal
FN:191,_RNvMNtNtCs46cA19QElOV_14do_memory_core6memory7episodeNtNtB4_5types18SelfLearningMemory8log_step
FN:222,_RNCNCNCNvMNtNtCs46cA19QElOV_14do_memory_core6memory7episodeNtNtBa_5types18SelfLearningMemory8log_step000Bc_
FN:312,_RNCNvMNtNtCs46cA19QElOV_14do_memory_core6memory7episodeNtNtB6_5types18SelfLearningMemory11flush_steps0B8_
FN:390,_RNCNvMNtNtCs46cA19QElOV_14do_memory_core6memory7episodeNtNtB6_5types18SelfLearningMemory11get_episode0B8_
FN:68,_RNCNvMNtNtCs46cA19QElOV_14do_memory_core6memory7episodeNtNtB6_5types18SelfLearningMemory13start_episode0B8_
FN:318,_RNCNvMNtNtCs46cA19QElOV_14do_memory_core6memory7episodeNtNtB6_5types18SelfLearningMemory20flush_steps_internal0B8_
FN:191,_RNCNvMNtNtCs46cA19QElOV_14do_memory_core6memory7episodeNtNtB6_5types18SelfLearningMemory8log_step0B8_
FN:222,_RNCNCNCNvMNtNtCsl8fXSKtwgoJ_14do_memory_core6memory7episodeNtNtBa_5types18SelfLearningMemory8log_step000CsgrBw30QCVrl_26embedding_integration_test
FN:312,_RNCNvMNtNtCsl8fXSKtwgoJ_14do_memory_core6memory7episodeNtNtB6_5types18SelfLearningMemory11flush_steps0CsgrBw30QCVrl_26embedding_integration_test
FN:318,_RNCNvMNtNtCsl8fXSKtwgoJ_14do_memory_core6memory7episodeNtNtB6_5types18SelfLearningMemory20flush_steps_internal0CsgrBw30QCVrl_26embedding_integration_test
FN:191,_RNCNvMNtNtCsl8fXSKtwgoJ_14do_memory_core6memory7episodeNtNtB6_5types18SelfLearningMemory8log_step0CsgrBw30QCVrl_26embedding_integration_test
FN:222,_RNCNCNCNvMNtNtCsl8fXSKtwgoJ_14do_memory_core6memory7episodeNtNtBa_5types18SelfLearningMemory8log_step000Cs76BTXqc6TfY_21episode_deletion_test
FN:312,_RNCNvMNtNtCsl8fXSKtwgoJ_14do_memory_core6memory7episodeNtNtB6_5types18SelfLearningMemory11flush_steps0Cs76BTXqc6TfY_21episode_deletion_test
FN:318,_RNCNvMNtNtCsl8fXSKtwgoJ_14do_memory_core6memory7episodeNtNtB6_5types18SelfLearningMemory20flush_steps_internal0Cs76BTXqc6TfY_21episode_deletion_test
FN:191,_RNCNvMNtNtCsl8fXSKtwgoJ_14do_memory_core6memory7episodeNtNtB6_5types18SelfLearningMemory8log_step0Cs76BTXqc6TfY_21episode_deletion_test
FN:222,_RNCNCNCNvMNtNtCsl8fXSKtwgoJ_14do_memory_core6memory7episodeNtNtBa_5types18SelfLearningMemory8log_step000Cs5rMxCUgDzf0_22episode_filtering_test
FN:312,_RNCNvMNtNtCsl8fXSKtwgoJ_14do_memory_core6memory7episodeNtNtB6_5types18SelfLearningMemory11flush_steps0Cs5rMxCUgDzf0_22episode_filtering_test
FN:318,_RNCNvMNtNtCsl8fXSKtwgoJ_14do_memory_core6memory7episodeNtNtB6_5types18SelfLearningMemory20flush_steps_internal0Cs5rMxCUgDzf0_22episode_filtering_test
FN:191,_RNCNvMNtNtCsl8fXSKtwgoJ_14do_memory_core6memory7episodeNtNtB6_5types18SelfLearningMemory8log_step0Cs5rMxCUgDzf0_22episode_filtering_test
FN:222,_RNCNCNCNvMNtNtCsl8fXSKtwgoJ_14do_memory_core6memory7episodeNtNtBa_5types18SelfLearningMemory8log_step000Cs3Fo6gHJh4GI_24genesis_integration_test
FN:312,_RNCNvMNtNtCsl8fXSKtwgoJ_14do_memory_core6memory7episodeNtNtB6_5types18SelfLearningMemory11flush_steps0Cs3Fo6gHJh4GI_24genesis_integration_test
FN:318,_RNCNvMNtNtCsl8fXSKtwgoJ_14do_memory_core6memory7episodeNtNtB6_5types18SelfLearningMemory20flush_steps_internal0Cs3Fo6gHJh4GI_24genesis_integration_test
FN:191,_RNCNvMNtNtCsl8fXSKtwgoJ_14do_memory_core6memory7episodeNtNtB6_5types18SelfLearningMemory8log_step0Cs3Fo6gHJh4GI_24genesis_integration_test
FN:222,_RNCNCNCNvMNtNtCsl8fXSKtwgoJ_14do_memory_core6memory7episodeNtNtBa_5types18SelfLearningMemory8log_step000CsbMzWChOpjhm_18heuristic_learning
FN:312,_RNCNvMNtNtCsl8fXSKtwgoJ_14do_memory_core6memory7episodeNtNtB6_5types18SelfLearningMemory11flush_steps0CsbMzWChOpjhm_18heuristic_learning
FN:318,_RNCNvMNtNtCsl8fXSKtwgoJ_14do_memory_core6memory7episodeNtNtB6_5types18SelfLearningMemory20flush_steps_internal0CsbMzWChOpjhm_18heuristic_learning
FN:191,_RNCNvMNtNtCsl8fXSKtwgoJ_14do_memory_core6memory7episodeNtNtB6_5types18SelfLearningMemory8log_step0CsbMzWChOpjhm_18heuristic_learning
FN:222,_RNCNCNCNvMNtNtCsl8fXSKtwgoJ_14do_memory_core6memory7episodeNtNtBa_5types18SelfLearningMemory8log_step000CsaPsuztuIJpk_16input_validation
FN:312,_RNCNvMNtNtCsl8fXSKtwgoJ_14do_memory_core6memory7episodeNtNtB6_5types18SelfLearningMemory11flush_steps0CsaPsuztuIJpk_16input_validation
FN:318,_RNCNvMNtNtCsl8fXSKtwgoJ_14do_memory_core6memory7episodeNtNtB6_5types18SelfLearningMemory20flush_steps_internal0CsaPsuztuIJpk_16input_validation
FN:191,_RNCNvMNtNtCsl8fXSKtwgoJ_14do_memory_core6memory7episodeNtNtB6_5types18SelfLearningMemory8log_step0CsaPsuztuIJpk_16input_validation
FN:222,_RNCNCNCNvMNtNtCsl8fXSKtwgoJ_14do_memory_core6memory7episodeNtNtBa_5types18SelfLearningMemory8log_step000Cs88LU71L0mqI_14learning_cycle
FN:312,_RNCNvMNtNtCsl8fXSKtwgoJ_14do_memory_core6memory7episodeNtNtB6_5types18SelfLearningMemory11flush_steps0Cs88LU71L0mqI_14learning_cycle
FN:318,_RNCNvMNtNtCsl8fXSKtwgoJ_14do_memory_core6memory7episodeNtNtB6_5types18SelfLearningMemory20flush_steps_internal0Cs88LU71L0mqI_14learning_cycle
FN:191,_RNCNvMNtNtCsl8fXSKtwgoJ_14do_memory_core6memory7episodeNtNtB6_5types18SelfLearningMemory8log_step0Cs88LU71L0mqI_14learning_cycle
FN:222,_RNCNCNCNvMNtNtCsl8fXSKtwgoJ_14do_memory_core6memory7episodeNtNtBa_5types18SelfLearningMemory8log_step000Csl4UHWu7meyU_31pattern_search_integration_test
FN:312,_RNCNvMNtNtCsl8fXSKtwgoJ_14do_memory_core6memory7episodeNtNtB6_5types18SelfLearningMemory11flush_steps0Csl4UHWu7meyU_31pattern_search_integration_test
FN:318,_RNCNvMNtNtCsl8fXSKtwgoJ_14do_memory_core6memory7episodeNtNtB6_5types18SelfLearningMemory20flush_steps_internal0Csl4UHWu7meyU_31pattern_search_integration_test
FN:191,_RNCNvMNtNtCsl8fXSKtwgoJ_14do_memory_core6memory7episodeNtNtB6_5types18SelfLearningMemory8log_step0Csl4UHWu7meyU_31pattern_search_integration_test
FN:222,_RNCNCNCNvMNtNtCsl8fXSKtwgoJ_14do_memory_core6memory7episodeNtNtBa_5types18SelfLearningMemory8log_step000Csk8xWN7fShrt_11performance
FN:312,_RNCNvMNtNtCsl8fXSKtwgoJ_14do_memory_core6memory7episodeNtNtB6_5types18SelfLearningMemory11flush_steps0Csk8xWN7fShrt_11performance
FN:318,_RNCNvMNtNtCsl8fXSKtwgoJ_14do_memory_core6memory7episodeNtNtB6_5types18SelfLearningMemory20flush_steps_internal0Csk8xWN7fShrt_11performance
FN:191,_RNCNvMNtNtCsl8fXSKtwgoJ_14do_memory_core6memory7episodeNtNtB6_5types18SelfLearningMemory8log_step0Csk8xWN7fShrt_11performance
FN:222,_RNCNCNCNvMNtNtCsl8fXSKtwgoJ_14do_memory_core6memory7episodeNtNtBa_5types18SelfLearningMemory8log_step000Cs5rUVsF5rDW0_23premem_integration_test
FN:312,_RNCNvMNtNtCsl8fXSKtwgoJ_14do_memory_core6memory7episodeNtNtB6_5types18SelfLearningMemory11flush_steps0Cs5rUVsF5rDW0_23premem_integration_test
FN:318,_RNCNvMNtNtCsl8fXSKtwgoJ_14do_memory_core6memory7episodeNtNtB6_5types18SelfLearningMemory20flush_steps_internal0Cs5rUVsF5rDW0_23premem_integration_test
FN:191,_RNCNvMNtNtCsl8fXSKtwgoJ_14do_memory_core6memory7episodeNtNtB6_5types18SelfLearningMemory8log_step0Cs5rUVsF5rDW0_23premem_integration_test
FN:222,_RNCNCNCNvMNtNtCsl8fXSKtwgoJ_14do_memory_core6memory7episodeNtNtBa_5types18SelfLearningMemory8log_step000Csdoax4t5h3WK_10regression
FN:312,_RNCNvMNtNtCsl8fXSKtwgoJ_14do_memory_core6memory7episodeNtNtB6_5types18SelfLearningMemory11flush_steps0Csdoax4t5h3WK_10regression
FN:318,_RNCNvMNtNtCsl8fXSKtwgoJ_14do_memory_core6memory7episodeNtNtB6_5types18SelfLearningMemory20flush_steps_internal0Csdoax4t5h3WK_10regression
FN:191,_RNCNvMNtNtCsl8fXSKtwgoJ_14do_memory_core6memory7episodeNtNtB6_5types18SelfLearningMemory8log_step0Csdoax4t5h3WK_10regression
FN:222,_RNCNCNCNvMNtNtCsl8fXSKtwgoJ_14do_memory_core6memory7episodeNtNtBa_5types18SelfLearningMemory8log_step000CsaoCCEImll0o_36semantic_hierarchical_retrieval_test
FN:312,_RNCNvMNtNtCsl8fXSKtwgoJ_14do_memory_core6memory7episodeNtNtB6_5types18SelfLearningMemory11flush_steps0CsaoCCEImll0o_36semantic_hierarchical_retrieval_test
FN:318,_RNCNvMNtNtCsl8fXSKtwgoJ_14do_memory_core6memory7episodeNtNtB6_5types18SelfLearningMemory20flush_steps_internal0CsaoCCEImll0o_36semantic_hierarchical_retrieval_test
FN:191,_RNCNvMNtNtCsl8fXSKtwgoJ_14do_memory_core6memory7episodeNtNtB6_5types18SelfLearningMemory8log_step0CsaoCCEImll0o_36semantic_hierarchical_retrieval_test
FN:222,_RNCNCNCNvMNtNtCsl8fXSKtwgoJ_14do_memory_core6memory7episodeNtNtBa_5types18SelfLearningMemory8log_step000CsbPJcDfmBHDL_13step_batching
FN:312,_RNCNvMNtNtCsl8fXSKtwgoJ_14do_memory_core6memory7episodeNtNtB6_5types18SelfLearningMemory11flush_steps0CsbPJcDfmBHDL_13step_batching
FN:318,_RNCNvMNtNtCsl8fXSKtwgoJ_14do_memory_core6memory7episodeNtNtB6_5types18SelfLearningMemory20flush_steps_internal0CsbPJcDfmBHDL_13step_batching
FN:191,_RNCNvMNtNtCsl8fXSKtwgoJ_14do_memory_core6memory7episodeNtNtB6_5types18SelfLearningMemory8log_step0CsbPJcDfmBHDL_13step_batching
FN:222,_RNCNCNCNvMNtNtCsl8fXSKtwgoJ_14do_memory_core6memory7episodeNtNtBa_5types18SelfLearningMemory8log_step000CsJzhEr7sGW1_19tag_operations_test
FN:312,_RNCNvMNtNtCsl8fXSKtwgoJ_14do_memory_core6memory7episodeNtNtB6_5types18SelfLearningMemory11flush_steps0CsJzhEr7sGW1_19tag_operations_test
FN:318,_RNCNvMNtNtCsl8fXSKtwgoJ_14do_memory_core6memory7episodeNtNtB6_5types18SelfLearningMemory20flush_steps_internal0CsJzhEr7sGW1_19tag_operations_test
FN:191,_RNCNvMNtNtCsl8fXSKtwgoJ_14do_memory_core6memory7episodeNtNtB6_5types18SelfLearningMemory8log_step0CsJzhEr7sGW1_19tag_operations_test
FNDA:0,_RNCNCNCNvMNtNtCsl8fXSKtwgoJ_14do_memory_core6memory7episodeNtNtBa_5types18SelfLearningMemory8log_step000Bc_
FNDA:0,_RNCNvMNtNtCsl8fXSKtwgoJ_14do_memory_core6memory7episodeNtNtB6_5types18SelfLearningMemory11flush_steps0B8_
FNDA:0,_RNCNvMNtNtCsl8fXSKtwgoJ_14do_memory_core6memory7episodeNtNtB6_5types18SelfLearningMemory20flush_steps_internal0B8_
FNDA:0,_RNCNvMNtNtCsl8fXSKtwgoJ_14do_memory_core6memory7episodeNtNtB6_5types18SelfLearningMemory8log_step0B8_
FNDA:2311,_RNvMNtNtCsl8fXSKtwgoJ_14do_memory_core6memory7episodeNtNtB4_5types18SelfLearningMemory11flush_steps
FNDA:192,_RNvMNtNtCsl8fXSKtwgoJ_14do_memory_core6memory7episodeNtNtB4_5types18SelfLearningMemory11get_episode
FNDA:2644,_RNvMNtNtCsl8fXSKtwgoJ_14do_memory_core6memory7episodeNtNtB4_5types18SelfLearningMemory13start_episode
FNDA:2323,_RNvMNtNtCsl8fXSKtwgoJ_14do_memory_core6memory7episodeNtNtB4_5types18SelfLearningMemory20flush_steps_internal
FNDA:6637,_RNvMNtNtCsl8fXSKtwgoJ_14do_memory_core6memory7episodeNtNtB4_5types18SelfLearningMemory8log_step
FNDA:192,_RNCNvMNtNtCsl8fXSKtwgoJ_14do_memory_core6memory7episodeNtNtB6_5types18SelfLearningMemory11get_episode0B8_
FNDA:2644,_RNCNvMNtNtCsl8fXSKtwgoJ_14do_memory_core6memory7episodeNtNtB6_5types18SelfLearningMemory13start_episode0B8_
FNDA:36,_RNCNCNCNvMNtNtCsl8fXSKtwgoJ_14do_memory_core6memory7episodeNtNtBa_5types18SelfLearningMemory8log_step000Csl2t77M2budw_16async_extraction
FNDA:36,_RNCNvMNtNtCsl8fXSKtwgoJ_14do_memory_core6memory7episodeNtNtB6_5types18SelfLearningMemory11flush_steps0Csl2t77M2budw_16async_extraction
FNDA:36,_RNCNvMNtNtCsl8fXSKtwgoJ_14do_memory_core6memory7episodeNtNtB6_5types18SelfLearningMemory20flush_steps_internal0Csl2t77M2budw_16async_extraction
FNDA:100,_RNCNvMNtNtCsl8fXSKtwgoJ_14do_memory_core6memory7episodeNtNtB6_5types18SelfLearningMemory8log_step0Csl2t77M2budw_16async_extraction
FNDA:2,_RNCNCNCNvMNtNtCsl8fXSKtwgoJ_14do_memory_core6memory7episodeNtNtBa_5types18SelfLearningMemory8log_step000Cs5WLAsFSXtas_27bulk_episode_retrieval_test
FNDA:2,_RNCNvMNtNtCsl8fXSKtwgoJ_14do_memory_core6memory7episodeNtNtB6_5types18SelfLearningMemory11flush_steps0Cs5WLAsFSXtas_27bulk_episode_retrieval_test
FNDA:2,_RNCNvMNtNtCsl8fXSKtwgoJ_14do_memory_core6memory7episodeNtNtB6_5types18SelfLearningMemory20flush_steps_internal0Cs5WLAsFSXtas_27bulk_episode_retrieval_test
FNDA:11,_RNCNvMNtNtCsl8fXSKtwgoJ_14do_memory_core6memory7episodeNtNtB6_5types18SelfLearningMemory8log_step0Cs5WLAsFSXtas_27bulk_episode_retrieval_test
FNDA:80,_RNCNCNCNvMNtNtCsl8fXSKtwgoJ_14do_memory_core6memory7episodeNtNtBa_5types18SelfLearningMemory8log_step000Cs8Y0Nm3vik3R_10compliance
FNDA:104,_RNCNvMNtNtCsl8fXSKtwgoJ_14do_memory_core6memory7episodeNtNtB6_5types18SelfLearningMemory11flush_steps0Cs8Y0Nm3vik3R_10compliance
FNDA:104,_RNCNvMNtNtCsl8fXSKtwgoJ_14do_memory_core6memory7episodeNtNtB6_5types18SelfLearningMemory20flush_steps_internal0Cs8Y0Nm3vik3R_10compliance
FNDA:102,_RNCNvMNtNtCsl8fXSKtwgoJ_14do_memory_core6memory7episodeNtNtB6_5types18SelfLearningMemory8log_step0Cs8Y0Nm3vik3R_10compliance
FNDA:30,_RNvMNtNtCs46cA19QElOV_14do_memory_core6memory7episodeNtNtB4_5types18SelfLearningMemory11flush_steps
FNDA:45,_RNvMNtNtCs46cA19QElOV_14do_memory_core6memory7episodeNtNtB4_5types18SelfLearningMemory11get_episode
FNDA:48,_RNvMNtNtCs46cA19QElOV_14do_memory_core6memory7episodeNtNtB4_5types18SelfLearningMemory13start_episode
FNDA:30,_RNvMNtNtCs46cA19QElOV_14do_memory_core6memory7episodeNtNtB4_5types18SelfLearningMemory20flush_steps_internal
FNDA:352,_RNvMNtNtCs46cA19QElOV_14do_memory_core6memory7episodeNtNtB4_5types18SelfLearningMemory8log_step
FNDA:34,_RNCNCNCNvMNtNtCs46cA19QElOV_14do_memory_core6memory7episodeNtNtBa_5types18SelfLearningMemory8log_step000Bc_
FNDA:30,_RNCNvMNtNtCs46cA19QElOV_14do_memory_core6memory7episodeNtNtB6_5types18SelfLearningMemory11flush_steps0B8_
FNDA:45,_RNCNvMNtNtCs46cA19QElOV_14do_memory_core6memory7episodeNtNtB6_5types18SelfLearningMemory11get_episode0B8_
FNDA:48,_RNCNvMNtNtCs46cA19QElOV_14do_memory_core6memory7episodeNtNtB6_5types18SelfLearningMemory13start_episode0B8_
FNDA:30,_RNCNvMNtNtCs46cA19QElOV_14do_memory_core6memory7episodeNtNtB6_5types18SelfLearningMemory20flush_steps_internal0B8_
FNDA:352,_RNCNvMNtNtCs46cA19QElOV_14do_memory_core6memory7episodeNtNtB6_5types18SelfLearningMemory8log_step0B8_
FNDA:7,_RNCNCNCNvMNtNtCsl8fXSKtwgoJ_14do_memory_core6memory7episodeNtNtBa_5types18SelfLearningMemory8log_step000CsgrBw30QCVrl_26embedding_integration_test
FNDA:7,_RNCNvMNtNtCsl8fXSKtwgoJ_14do_memory_core6memory7episodeNtNtB6_5types18SelfLearningMemory11flush_steps0CsgrBw30QCVrl_26embedding_integration_test
FNDA:7,_RNCNvMNtNtCsl8fXSKtwgoJ_14do_memory_core6memory7episodeNtNtB6_5types18SelfLearningMemory20flush_steps_internal0CsgrBw30QCVrl_26embedding_integration_test
FNDA:35,_RNCNvMNtNtCsl8fXSKtwgoJ_14do_memory_core6memory7episodeNtNtB6_5types18SelfLearningMemory8log_step0CsgrBw30QCVrl_26embedding_integration_test
FNDA:1,_RNCNCNCNvMNtNtCsl8fXSKtwgoJ_14do_memory_core6memory7episodeNtNtBa_5types18SelfLearningMemory8log_step000Cs76BTXqc6TfY_21episode_deletion_test
FNDA:1,_RNCNvMNtNtCsl8fXSKtwgoJ_14do_memory_core6memory7episodeNtNtB6_5types18SelfLearningMemory11flush_steps0Cs76BTXqc6TfY_21episode_deletion_test
FNDA:1,_RNCNvMNtNtCsl8fXSKtwgoJ_14do_memory_core6memory7episodeNtNtB6_5types18SelfLearningMemory20flush_steps_internal0Cs76BTXqc6TfY_21episode_deletion_test
FNDA:5,_RNCNvMNtNtCsl8fXSKtwgoJ_14do_memory_core6memory7episodeNtNtB6_5types18SelfLearningMemory8log_step0Cs76BTXqc6TfY_21episode_deletion_test
FNDA:5,_RNCNCNCNvMNtNtCsl8fXSKtwgoJ_14do_memory_core6memory7episodeNtNtBa_5types18SelfLearningMemory8log_step000Cs5rMxCUgDzf0_22episode_filtering_test
FNDA:5,_RNCNvMNtNtCsl8fXSKtwgoJ_14do_memory_core6memory7episodeNtNtB6_5types18SelfLearningMemory11flush_steps0Cs5rMxCUgDzf0_22episode_filtering_test
FNDA:5,_RNCNvMNtNtCsl8fXSKtwgoJ_14do_memory_core6memory7episodeNtNtB6_5types18SelfLearningMemory20flush_steps_internal0Cs5rMxCUgDzf0_22episode_filtering_test
FNDA:15,_RNCNvMNtNtCsl8fXSKtwgoJ_14do_memory_core6memory7episodeNtNtB6_5types18SelfLearningMemory8log_step0Cs5rMxCUgDzf0_22episode_filtering_test
FNDA:45,_RNCNCNCNvMNtNtCsl8fXSKtwgoJ_14do_memory_core6memory7episodeNtNtBa_5types18SelfLearningMemory8log_step000Cs3Fo6gHJh4GI_24genesis_integration_test
FNDA:45,_RNCNvMNtNtCsl8fXSKtwgoJ_14do_memory_core6memory7episodeNtNtB6_5types18SelfLearningMemory11flush_steps0Cs3Fo6gHJh4GI_24genesis_integration_test
FNDA:45,_RNCNvMNtNtCsl8fXSKtwgoJ_14do_memory_core6memory7episodeNtNtB6_5types18SelfLearningMemory20flush_steps_internal0Cs3Fo6gHJh4GI_24genesis_integration_test
FNDA:374,_RNCNvMNtNtCsl8fXSKtwgoJ_14do_memory_core6memory7episodeNtNtB6_5types18SelfLearningMemory8log_step0Cs3Fo6gHJh4GI_24genesis_integration_test
FNDA:7,_RNCNCNCNvMNtNtCsl8fXSKtwgoJ_14do_memory_core6memory7episodeNtNtBa_5types18SelfLearningMemory8log_step000CsbMzWChOpjhm_18heuristic_learning
FNDA:7,_RNCNvMNtNtCsl8fXSKtwgoJ_14do_memory_core6memory7episodeNtNtB6_5types18SelfLearningMemory11flush_steps0CsbMzWChOpjhm_18heuristic_learning
FNDA:7,_RNCNvMNtNtCsl8fXSKtwgoJ_14do_memory_core6memory7episodeNtNtB6_5types18SelfLearningMemory20flush_steps_internal0CsbMzWChOpjhm_18heuristic_learning
FNDA:23,_RNCNvMNtNtCsl8fXSKtwgoJ_14do_memory_core6memory7episodeNtNtB6_5types18SelfLearningMemory8log_step0CsbMzWChOpjhm_18heuristic_learning
FNDA:7,_RNCNCNCNvMNtNtCsl8fXSKtwgoJ_14do_memory_core6memory7episodeNtNtBa_5types18SelfLearningMemory8log_step000CsaPsuztuIJpk_16input_validation
FNDA:8,_RNCNvMNtNtCsl8fXSKtwgoJ_14do_memory_core6memory7episodeNtNtB6_5types18SelfLearningMemory11flush_steps0CsaPsuztuIJpk_16input_validation
FNDA:8,_RNCNvMNtNtCsl8fXSKtwgoJ_14do_memory_core6memory7episodeNtNtB6_5types18SelfLearningMemory20flush_steps_internal0CsaPsuztuIJpk_16input_validation
FNDA:21,_RNCNvMNtNtCsl8fXSKtwgoJ_14do_memory_core6memory7episodeNtNtB6_5types18SelfLearningMemory8log_step0CsaPsuztuIJpk_16input_validation
FNDA:6,_RNCNCNCNvMNtNtCsl8fXSKtwgoJ_14do_memory_core6memory7episodeNtNtBa_5types18SelfLearningMemory8log_step000Cs88LU71L0mqI_14learning_cycle
FNDA:7,_RNCNvMNtNtCsl8fXSKtwgoJ_14do_memory_core6memory7episodeNtNtB6_5types18SelfLearningMemory11flush_steps0Cs88LU71L0mqI_14learning_cycle
FNDA:7,_RNCNvMNtNtCsl8fXSKtwgoJ_14do_memory_core6memory7episodeNtNtB6_5types18SelfLearningMemory20flush_steps_internal0Cs88LU71L0mqI_14learning_cycle
FNDA:20,_RNCNvMNtNtCsl8fXSKtwgoJ_14do_memory_core6memory7episodeNtNtB6_5types18SelfLearningMemory8log_step0Cs88LU71L0mqI_14learning_cycle
FNDA:1,_RNCNCNCNvMNtNtCsl8fXSKtwgoJ_14do_memory_core6memory7episodeNtNtBa_5types18SelfLearningMemory8log_step000Csl4UHWu7meyU_31pattern_search_integration_test
FNDA:1,_RNCNvMNtNtCsl8fXSKtwgoJ_14do_memory_core6memory7episodeNtNtB6_5types18SelfLearningMemory11flush_steps0Csl4UHWu7meyU_31pattern_search_integration_test
FNDA:1,_RNCNvMNtNtCsl8fXSKtwgoJ_14do_memory_core6memory7episodeNtNtB6_5types18SelfLearningMemory20flush_steps_internal0Csl4UHWu7meyU_31pattern_search_integration_test
FNDA:5,_RNCNvMNtNtCsl8fXSKtwgoJ_14do_memory_core6memory7episodeNtNtB6_5types18SelfLearningMemory8log_step0Csl4UHWu7meyU_31pattern_search_integration_test
FNDA:1801,_RNCNCNCNvMNtNtCsl8fXSKtwgoJ_14do_memory_core6memory7episodeNtNtBa_5types18SelfLearningMemory8log_step000Csk8xWN7fShrt_11performance
FNDA:1800,_RNCNvMNtNtCsl8fXSKtwgoJ_14do_memory_core6memory7episodeNtNtB6_5types18SelfLearningMemory11flush_steps0Csk8xWN7fShrt_11performance
FNDA:1802,_RNCNvMNtNtCsl8fXSKtwgoJ_14do_memory_core6memory7episodeNtNtB6_5types18SelfLearningMemory20flush_steps_internal0Csk8xWN7fShrt_11performance
FNDA:4498,_RNCNvMNtNtCsl8fXSKtwgoJ_14do_memory_core6memory7episodeNtNtB6_5types18SelfLearningMemory8log_step0Csk8xWN7fShrt_11performance
FNDA:6,_RNCNCNCNvMNtNtCsl8fXSKtwgoJ_14do_memory_core6memory7episodeNtNtBa_5types18SelfLearningMemory8log_step000Cs5rUVsF5rDW0_23premem_integration_test
FNDA:7,_RNCNvMNtNtCsl8fXSKtwgoJ_14do_memory_core6memory7episodeNtNtB6_5types18SelfLearningMemory11flush_steps0Cs5rUVsF5rDW0_23premem_integration_test
FNDA:7,_RNCNvMNtNtCsl8fXSKtwgoJ_14do_memory_core6memory7episodeNtNtB6_5types18SelfLearningMemory20flush_steps_internal0Cs5rUVsF5rDW0_23premem_integration_test
FNDA:36,_RNCNvMNtNtCsl8fXSKtwgoJ_14do_memory_core6memory7episodeNtNtB6_5types18SelfLearningMemory8log_step0Cs5rUVsF5rDW0_23premem_integration_test
FNDA:109,_RNCNCNCNvMNtNtCsl8fXSKtwgoJ_14do_memory_core6memory7episodeNtNtBa_5types18SelfLearningMemory8log_step000Csdoax4t5h3WK_10regression
FNDA:133,_RNCNvMNtNtCsl8fXSKtwgoJ_14do_memory_core6memory7episodeNtNtB6_5types18SelfLearningMemory11flush_steps0Csdoax4t5h3WK_10regression
FNDA:133,_RNCNvMNtNtCsl8fXSKtwgoJ_14do_memory_core6memory7episodeNtNtB6_5types18SelfLearningMemory20flush_steps_internal0Csdoax4t5h3WK_10regression
FNDA:328,_RNCNvMNtNtCsl8fXSKtwgoJ_14do_memory_core6memory7episodeNtNtB6_5types18SelfLearningMemory8log_step0Csdoax4t5h3WK_10regression
FNDA:130,_RNCNCNCNvMNtNtCsl8fXSKtwgoJ_14do_memory_core6memory7episodeNtNtBa_5types18SelfLearningMemory8log_step000CsaoCCEImll0o_36semantic_hierarchical_retrieval_test
FNDA:130,_RNCNvMNtNtCsl8fXSKtwgoJ_14do_memory_core6memory7episodeNtNtB6_5types18SelfLearningMemory11flush_steps0CsaoCCEImll0o_36semantic_hierarchical_retrieval_test
FNDA:130,_RNCNvMNtNtCsl8fXSKtwgoJ_14do_memory_core6memory7episodeNtNtB6_5types18SelfLearningMemory20flush_steps_internal0CsaoCCEImll0o_36semantic_hierarchical_retrieval_test
FNDA:730,_RNCNvMNtNtCsl8fXSKtwgoJ_14do_memory_core6memory7episodeNtNtB6_5types18SelfLearningMemory8log_step0CsaoCCEImll0o_36semantic_hierarchical_retrieval_test
FNDA:17,_RNCNCNCNvMNtNtCsl8fXSKtwgoJ_14do_memory_core6memory7episodeNtNtBa_5types18SelfLearningMemory8log_step000CsbPJcDfmBHDL_13step_batching
FNDA:18,_RNCNvMNtNtCsl8fXSKtwgoJ_14do_memory_core6memory7episodeNtNtB6_5types18SelfLearningMemory11flush_steps0CsbPJcDfmBHDL_13step_batching
FNDA:28,_RNCNvMNtNtCsl8fXSKtwgoJ_14do_memory_core6memory7episodeNtNtB6_5types18SelfLearningMemory20flush_steps_internal0CsbPJcDfmBHDL_13step_batching
FNDA:334,_RNCNvMNtNtCsl8fXSKtwgoJ_14do_memory_core6memory7episodeNtNtB6_5types18SelfLearningMemory8log_step0CsbPJcDfmBHDL_13step_batching
FNDA:0,_RNCNCNCNvMNtNtCsl8fXSKtwgoJ_14do_memory_core6memory7episodeNtNtBa_5types18SelfLearningMemory8log_step000CsJzhEr7sGW1_19tag_operations_test
FNDA:0,_RNCNvMNtNtCsl8fXSKtwgoJ_14do_memory_core6memory7episodeNtNtB6_5types18SelfLearningMemory11flush_steps0CsJzhEr7sGW1_19tag_operations_test
FNDA:0,_RNCNvMNtNtCsl8fXSKtwgoJ_14do_memory_core6memory7episodeNtNtB6_5types18SelfLearningMemory20flush_steps_internal0CsJzhEr7sGW1_19tag_operations_test
FNDA:0,_RNCNvMNtNtCsl8fXSKtwgoJ_14do_memory_core6memory7episodeNtNtB6_5types18SelfLearningMemory8log_step0CsJzhEr7sGW1_19tag_operations_test
FNF:11
FNH:11
DA:63,2692
DA:64,2692
DA:65,2692
DA:66,2692
DA:67,2692
DA:68,2692
DA:121,2692
DA:191,6989
DA:222,2294
DA:223,2294
DA:224,2294
DA:267,6989
DA:312,2341
DA:315,2341
DA:318,2353
DA:320,2295
DA:321,2353
DA:322,2353
DA:323,2299
DA:324,2299
DA:325,4
DA:326,2295
DA:327,2295
DA:329,0
DA:332,2295
DA:334,54
DA:340,2295
DA:341,2295
DA:344,2295
DA:345,2295
DA:346,2295
DA:347,6873
DA:348,6873
DA:349,6873
DA:352,2295
DA:353,0
DA:354,0
DA:355,0
DA:356,2295
DA:358,2295
DA:359,0
DA:360,0
DA:361,0
DA:362,2295
DA:365,2295
DA:367,2295
DA:373,0
DA:375,2353
DA:390,237
DA:392,219
DA:393,237
DA:394,237
DA:397,219
DA:398,18
DA:401,18
DA:402,0
DA:403,0
DA:405,0
DA:406,0
DA:407,0
DA:409,0
DA:410,0
DA:411,0
DA:412,0
DA:413,0
DA:414,0
DA:416,18
DA:419,18
DA:420,0
DA:421,0
DA:423,0
DA:424,0
DA:425,0
DA:427,0
DA:428,0
DA:430,18
DA:432,18
DA:433,237
BRF:0
BRH:0
LF:83
LH:57
end_of_record
SF:/app/memory-core/src/memory/filters/builder.rs
FN:95,_RNvMNtNtNtCsl8fXSKtwgoJ_14do_memory_core6memory7filters7builderNtB2_20EpisodeFilterBuilder10max_reward
FN:88,_RNvMNtNtNtCsl8fXSKtwgoJ_14do_memory_core6memory7filters7builderNtB2_20EpisodeFilterBuilder10min_reward
FN:32,_RNvMNtNtNtCsl8fXSKtwgoJ_14do_memory_core6memory7filters7builderNtB2_20EpisodeFilterBuilder10task_types
FN:116,_RNvMNtNtNtCsl8fXSKtwgoJ_14do_memory_core6memory7filters7builderNtB2_20EpisodeFilterBuilder11search_mode
FN:102,_RNvMNtNtNtCsl8fXSKtwgoJ_14do_memory_core6memory7filters7builderNtB2_20EpisodeFilterBuilder11search_text
FN:130,_RNvMNtNtNtCsl8fXSKtwgoJ_14do_memory_core6memory7filters7builderNtB2_20EpisodeFilterBuilder12fuzzy_search
FN:109,_RNvMNtNtNtCsl8fXSKtwgoJ_14do_memory_core6memory7filters7builderNtB2_20EpisodeFilterBuilder12outcome_type
FN:81,_RNvMNtNtNtCsl8fXSKtwgoJ_14do_memory_core6memory7filters7builderNtB2_20EpisodeFilterBuilder12success_only
FN:67,_RNvMNtNtNtCsl8fXSKtwgoJ_14do_memory_core6memory7filters7builderNtB2_20EpisodeFilterBuilder13archived_only
FN:123,_RNvMNtNtNtCsl8fXSKtwgoJ_14do_memory_core6memory7filters7builderNtB2_20EpisodeFilterBuilder13search_fields
FN:25,_RNvMNtNtNtCsl8fXSKtwgoJ_14do_memory_core6memory7filters7builderNtB2_20EpisodeFilterBuilder13with_all_tags
FN:18,_RNvMNtNtNtCsl8fXSKtwgoJ_14do_memory_core6memory7filters7builderNtB2_20EpisodeFilterBuilder13with_any_tags
FN:60,_RNvMNtNtNtCsl8fXSKtwgoJ_14do_memory_core6memory7filters7builderNtB2_20EpisodeFilterBuilder14completed_only
FN:74,_RNvMNtNtNtCsl8fXSKtwgoJ_14do_memory_core6memory7filters7builderNtB2_20EpisodeFilterBuilder16exclude_archived
FN:137,_RNvMNtNtNtCsl8fXSKtwgoJ_14do_memory_core6memory7filters7builderNtB2_20EpisodeFilterBuilder27fuzzy_search_with_threshold
FN:144,_RNvMNtNtNtCsl8fXSKtwgoJ_14do_memory_core6memory7filters7builderNtB2_20EpisodeFilterBuilder5build
FN:53,_RNvMNtNtNtCsl8fXSKtwgoJ_14do_memory_core6memory7filters7builderNtB2_20EpisodeFilterBuilder7date_to
FN:39,_RNvMNtNtNtCsl8fXSKtwgoJ_14do_memory_core6memory7filters7builderNtB2_20EpisodeFilterBuilder7domains
FN:46,_RNvMNtNtNtCsl8fXSKtwgoJ_14do_memory_core6memory7filters7builderNtB2_20EpisodeFilterBuilder9date_from
FN:95,_RNvMNtNtNtCs46cA19QElOV_14do_memory_core6memory7filters7builderNtB2_20EpisodeFilterBuilder10max_reward
FN:116,_RNvMNtNtNtCs46cA19QElOV_14do_memory_core6memory7filters7builderNtB2_20EpisodeFilterBuilder11search_mode
FN:102,_RNvMNtNtNtCs46cA19QElOV_14do_memory_core6memory7filters7builderNtB2_20EpisodeFilterBuilder11search_text
FN:130,_RNvMNtNtNtCs46cA19QElOV_14do_memory_core6memory7filters7builderNtB2_20EpisodeFilterBuilder12fuzzy_search
FN:109,_RNvMNtNtNtCs46cA19QElOV_14do_memory_core6memory7filters7builderNtB2_20EpisodeFilterBuilder12outcome_type
FN:67,_RNvMNtNtNtCs46cA19QElOV_14do_memory_core6memory7filters7builderNtB2_20EpisodeFilterBuilder13archived_only
FN:123,_RNvMNtNtNtCs46cA19QElOV_14do_memory_core6memory7filters7builderNtB2_20EpisodeFilterBuilder13search_fields
FN:74,_RNvMNtNtNtCs46cA19QElOV_14do_memory_core6memory7filters7builderNtB2_20EpisodeFilterBuilder16exclude_archived
FN:137,_RNvMNtNtNtCs46cA19QElOV_14do_memory_core6memory7filters7builderNtB2_20EpisodeFilterBuilder27fuzzy_search_with_threshold
FN:53,_RNvMNtNtNtCs46cA19QElOV_14do_memory_core6memory7filters7builderNtB2_20EpisodeFilterBuilder7date_to
FN:46,_RNvMNtNtNtCs46cA19QElOV_14do_memory_core6memory7filters7builderNtB2_20EpisodeFilterBuilder9date_from
FN:88,_RNvMNtNtNtCs46cA19QElOV_14do_memory_core6memory7filters7builderNtB2_20EpisodeFilterBuilder10min_reward
FN:32,_RNvMNtNtNtCs46cA19QElOV_14do_memory_core6memory7filters7builderNtB2_20EpisodeFilterBuilder10task_types
FN:81,_RNvMNtNtNtCs46cA19QElOV_14do_memory_core6memory7filters7builderNtB2_20EpisodeFilterBuilder12success_only
FN:25,_RNvMNtNtNtCs46cA19QElOV_14do_memory_core6memory7filters7builderNtB2_20EpisodeFilterBuilder13with_all_tags
FN:18,_RNvMNtNtNtCs46cA19QElOV_14do_memory_core6memory7filters7builderNtB2_20EpisodeFilterBuilder13with_any_tags
FN:60,_RNvMNtNtNtCs46cA19QElOV_14do_memory_core6memory7filters7builderNtB2_20EpisodeFilterBuilder14completed_only
FN:144,_RNvMNtNtNtCs46cA19QElOV_14do_memory_core6memory7filters7builderNtB2_20EpisodeFilterBuilder5build
FN:39,_RNvMNtNtNtCs46cA19QElOV_14do_memory_core6memory7filters7builderNtB2_20EpisodeFilterBuilder7domains
FNDA:0,_RNvMNtNtNtCsl8fXSKtwgoJ_14do_memory_core6memory7filters7builderNtB2_20EpisodeFilterBuilder10max_reward
FNDA:0,_RNvMNtNtNtCsl8fXSKtwgoJ_14do_memory_core6memory7filters7builderNtB2_20EpisodeFilterBuilder10min_reward
FNDA:2,_RNvMNtNtNtCsl8fXSKtwgoJ_14do_memory_core6memory7filters7builderNtB2_20EpisodeFilterBuilder10task_types
FNDA:0,_RNvMNtNtNtCsl8fXSKtwgoJ_14do_memory_core6memory7filters7builderNtB2_20EpisodeFilterBuilder11search_mode
FNDA:0,_RNvMNtNtNtCsl8fXSKtwgoJ_14do_memory_core6memory7filters7builderNtB2_20EpisodeFilterBuilder11search_text
FNDA:0,_RNvMNtNtNtCsl8fXSKtwgoJ_14do_memory_core6memory7filters7builderNtB2_20EpisodeFilterBuilder12fuzzy_search
FNDA:0,_RNvMNtNtNtCsl8fXSKtwgoJ_14do_memory_core6memory7filters7builderNtB2_20EpisodeFilterBuilder12outcome_type
FNDA:2,_RNvMNtNtNtCsl8fXSKtwgoJ_14do_memory_core6memory7filters7builderNtB2_20EpisodeFilterBuilder12success_only
FNDA:1,_RNvMNtNtNtCsl8fXSKtwgoJ_14do_memory_core6memory7filters7builderNtB2_20EpisodeFilterBuilder13archived_only
FNDA:0,_RNvMNtNtNtCsl8fXSKtwgoJ_14do_memory_core6memory7filters7builderNtB2_20EpisodeFilterBuilder13search_fields
FNDA:0,_RNvMNtNtNtCsl8fXSKtwgoJ_14do_memory_core6memory7filters7builderNtB2_20EpisodeFilterBuilder13with_all_tags
FNDA:2,_RNvMNtNtNtCsl8fXSKtwgoJ_14do_memory_core6memory7filters7builderNtB2_20EpisodeFilterBuilder13with_any_tags
FNDA:1,_RNvMNtNtNtCsl8fXSKtwgoJ_14do_memory_core6memory7filters7builderNtB2_20EpisodeFilterBuilder14completed_only
FNDA:1,_RNvMNtNtNtCsl8fXSKtwgoJ_14do_memory_core6memory7filters7builderNtB2_20EpisodeFilterBuilder16exclude_archived
FNDA:0,_RNvMNtNtNtCsl8fXSKtwgoJ_14do_memory_core6memory7filters7builderNtB2_20EpisodeFilterBuilder27fuzzy_search_with_threshold
FNDA:8,_RNvMNtNtNtCsl8fXSKtwgoJ_14do_memory_core6memory7filters7builderNtB2_20EpisodeFilterBuilder5build
FNDA:1,_RNvMNtNtNtCsl8fXSKtwgoJ_14do_memory_core6memory7filters7builderNtB2_20EpisodeFilterBuilder7date_to
FNDA:2,_RNvMNtNtNtCsl8fXSKtwgoJ_14do_memory_core6memory7filters7builderNtB2_20EpisodeFilterBuilder7domains
FNDA:2,_RNvMNtNtNtCsl8fXSKtwgoJ_14do_memory_core6memory7filters7builderNtB2_20EpisodeFilterBuilder9date_from
FNDA:0,_RNvMNtNtNtCs46cA19QElOV_14do_memory_core6memory7filters7builderNtB2_20EpisodeFilterBuilder10max_reward
FNDA:0,_RNvMNtNtNtCs46cA19QElOV_14do_memory_core6memory7filters7builderNtB2_20EpisodeFilterBuilder11search_mode
FNDA:0,_RNvMNtNtNtCs46cA19QElOV_14do_memory_core6memory7filters7builderNtB2_20EpisodeFilterBuilder11search_text
FNDA:0,_RNvMNtNtNtCs46cA19QElOV_14do_memory_core6memory7filters7builderNtB2_20EpisodeFilterBuilder12fuzzy_search
FNDA:0,_RNvMNtNtNtCs46cA19QElOV_14do_memory_core6memory7filters7builderNtB2_20EpisodeFilterBuilder12outcome_type
FNDA:0,_RNvMNtNtNtCs46cA19QElOV_14do_memory_core6memory7filters7builderNtB2_20EpisodeFilterBuilder13archived_only
FNDA:0,_RNvMNtNtNtCs46cA19QElOV_14do_memory_core6memory7filters7builderNtB2_20EpisodeFilterBuilder13search_fields
FNDA:0,_RNvMNtNtNtCs46cA19QElOV_14do_memory_core6memory7filters7builderNtB2_20EpisodeFilterBuilder16exclude_archived
FNDA:0,_RNvMNtNtNtCs46cA19QElOV_14do_memory_core6memory7filters7builderNtB2_20EpisodeFilterBuilder27fuzzy_search_with_threshold
FNDA:0,_RNvMNtNtNtCs46cA19QElOV_14do_memory_core6memory7filters7builderNtB2_20EpisodeFilterBuilder7date_to
FNDA:0,_RNvMNtNtNtCs46cA19QElOV_14do_memory_core6memory7filters7builderNtB2_20EpisodeFilterBuilder9date_from
FNDA:2,_RNvMNtNtNtCs46cA19QElOV_14do_memory_core6memory7filters7builderNtB2_20EpisodeFilterBuilder10min_reward
FNDA:2,_RNvMNtNtNtCs46cA19QElOV_14do_memory_core6memory7filters7builderNtB2_20EpisodeFilterBuilder10task_types
FNDA:2,_RNvMNtNtNtCs46cA19QElOV_14do_memory_core6memory7filters7builderNtB2_20EpisodeFilterBuilder12success_only
FNDA:1,_RNvMNtNtNtCs46cA19QElOV_14do_memory_core6memory7filters7builderNtB2_20EpisodeFilterBuilder13with_all_tags
FNDA:2,_RNvMNtNtNtCs46cA19QElOV_14do_memory_core6memory7filters7builderNtB2_20EpisodeFilterBuilder13with_any_tags
FNDA:2,_RNvMNtNtNtCs46cA19QElOV_14do_memory_core6memory7filters7builderNtB2_20EpisodeFilterBuilder14completed_only
FNDA:7,_RNvMNtNtNtCs46cA19QElOV_14do_memory_core6memory7filters7builderNtB2_20EpisodeFilterBuilder5build
FNDA:1,_RNvMNtNtNtCs46cA19QElOV_14do_memory_core6memory7filters7builderNtB2_20EpisodeFilterBuilder7domains
FNF:19
FNH:12
DA:18,4
DA:19,4
DA:20,4
DA:21,4
DA:25,1
DA:26,1
DA:27,1
DA:28,1
DA:32,4
DA:33,4
DA:34,4
DA:35,4
DA:39,3
DA:40,3
DA:41,3
DA:42,3
DA:46,2
DA:47,2
DA:48,2
DA:49,2
DA:53,1
DA:54,1
DA:55,1
DA:56,1
DA:60,3
DA:61,3
DA:62,3
DA:63,3
DA:67,1
DA:68,1
DA:69,1
DA:70,1
DA:74,1
DA:75,1
DA:76,1
DA:77,1
DA:81,4
DA:82,4
DA:83,4
DA:84,4
DA:88,2
DA:89,2
DA:90,2
DA:91,2
DA:95,0
DA:96,0
DA:97,0
DA:98,0
DA:102,0
DA:103,0
DA:104,0
DA:105,0
DA:109,0
DA:110,0
DA:111,0
DA:112,0
DA:116,0
DA:117,0
DA:118,0
DA:119,0
DA:123,0
DA:124,0
DA:125,0
DA:126,0
DA:130,0
DA:131,0
DA:132,0
DA:133,0
DA:137,0
DA:138,0
DA:139,0
DA:140,0
DA:144,15
DA:145,15
DA:146,15
BRF:0
BRH:0
LF:75
LH:47
end_of_record
SF:/app/memory-core/src/memory/filters/matcher.rs
FN:249,_RNCNCNvMNtNtNtCsl8fXSKtwgoJ_14do_memory_core6memory7filters7matcherNtNtB8_5types13EpisodeFilter15search_in_textss0_00Bc_
FN:275,_RNCNvMNtNtNtCsl8fXSKtwgoJ_14do_memory_core6memory7filters7matcherNtNtB6_5types13EpisodeFilter13count_matches0Ba_
FN:238,_RNCNvMNtNtNtCsl8fXSKtwgoJ_14do_memory_core6memory7filters7matcherNtNtB6_5types13EpisodeFilter15search_in_texts0Ba_
FN:247,_RNCNvMNtNtNtCsl8fXSKtwgoJ_14do_memory_core6memory7filters7matcherNtNtB6_5types13EpisodeFilter15search_in_textss0_0Ba_
FN:240,_RNCNvMNtNtNtCsl8fXSKtwgoJ_14do_memory_core6memory7filters7matcherNtNtB6_5types13EpisodeFilter15search_in_textss_0Ba_
FN:259,_RNCNvMNtNtNtCsl8fXSKtwgoJ_14do_memory_core6memory7filters7matcherNtNtB6_5types13EpisodeFilter5apply0Ba_
FN:17,_RNCNvMNtNtNtCsl8fXSKtwgoJ_14do_memory_core6memory7filters7matcherNtNtB6_5types13EpisodeFilter7matches0Ba_
FN:27,_RNCNvMNtNtNtCsl8fXSKtwgoJ_14do_memory_core6memory7filters7matcherNtNtB6_5types13EpisodeFilter7matchess_0Ba_
FN:269,_RNCNvMNtNtNtCsl8fXSKtwgoJ_14do_memory_core6memory7filters7matcherNtNtB6_5types13EpisodeFilter9apply_arc0Ba_
FN:274,_RNvMNtNtNtCsl8fXSKtwgoJ_14do_memory_core6memory7filters7matcherNtNtB4_5types13EpisodeFilter13count_matches
FN:232,_RNvMNtNtNtCsl8fXSKtwgoJ_14do_memory_core6memory7filters7matcherNtNtB4_5types13EpisodeFilter15search_in_texts
FN:200,_RNvMNtNtNtCsl8fXSKtwgoJ_14do_memory_core6memory7filters7matcherNtNtB4_5types13EpisodeFilter18collect_step_texts
FN:147,_RNvMNtNtNtCsl8fXSKtwgoJ_14do_memory_core6memory7filters7matcherNtNtB4_5types13EpisodeFilter19matches_search_text
FN:220,_RNvMNtNtNtCsl8fXSKtwgoJ_14do_memory_core6memory7filters7matcherNtNtB4_5types13EpisodeFilter20collect_outcome_text
FN:162,_RNvMNtNtNtCsl8fXSKtwgoJ_14do_memory_core6memory7filters7matcherNtNtB4_5types13EpisodeFilter24collect_searchable_texts
FN:258,_RNvMNtNtNtCsl8fXSKtwgoJ_14do_memory_core6memory7filters7matcherNtNtB4_5types13EpisodeFilter5apply
FN:13,_RNvMNtNtNtCsl8fXSKtwgoJ_14do_memory_core6memory7filters7matcherNtNtB4_5types13EpisodeFilter7matches
FN:265,_RNvMNtNtNtCsl8fXSKtwgoJ_14do_memory_core6memory7filters7matcherNtNtB4_5types13EpisodeFilter9apply_arc
FN:275,_RNCNvMNtNtNtCs46cA19QElOV_14do_memory_core6memory7filters7matcherNtNtB6_5types13EpisodeFilter13count_matches0Ba_
FN:269,_RNCNvMNtNtNtCs46cA19QElOV_14do_memory_core6memory7filters7matcherNtNtB6_5types13EpisodeFilter9apply_arc0Ba_
FN:274,_RNvMNtNtNtCs46cA19QElOV_14do_memory_core6memory7filters7matcherNtNtB4_5types13EpisodeFilter13count_matches
FN:265,_RNvMNtNtNtCs46cA19QElOV_14do_memory_core6memory7filters7matcherNtNtB4_5types13EpisodeFilter9apply_arc
FN:249,_RNCNCNvMNtNtNtCs46cA19QElOV_14do_memory_core6memory7filters7matcherNtNtB8_5types13EpisodeFilter15search_in_textss0_00Bc_
FN:238,_RNCNvMNtNtNtCs46cA19QElOV_14do_memory_core6memory7filters7matcherNtNtB6_5types13EpisodeFilter15search_in_texts0Ba_
FN:247,_RNCNvMNtNtNtCs46cA19QElOV_14do_memory_core6memory7filters7matcherNtNtB6_5types13EpisodeFilter15search_in_textss0_0Ba_
FN:240,_RNCNvMNtNtNtCs46cA19QElOV_14do_memory_core6memory7filters7matcherNtNtB6_5types13EpisodeFilter15search_in_textss_0Ba_
FN:259,_RNCNvMNtNtNtCs46cA19QElOV_14do_memory_core6memory7filters7matcherNtNtB6_5types13EpisodeFilter5apply0Ba_
FN:17,_RNCNvMNtNtNtCs46cA19QElOV_14do_memory_core6memory7filters7matcherNtNtB6_5types13EpisodeFilter7matches0Ba_
FN:27,_RNCNvMNtNtNtCs46cA19QElOV_14do_memory_core6memory7filters7matcherNtNtB6_5types13EpisodeFilter7matchess_0Ba_
FN:232,_RNvMNtNtNtCs46cA19QElOV_14do_memory_core6memory7filters7matcherNtNtB4_5types13EpisodeFilter15search_in_texts
FN:200,_RNvMNtNtNtCs46cA19QElOV_14do_memory_core6memory7filters7matcherNtNtB4_5types13EpisodeFilter18collect_step_texts
FN:147,_RNvMNtNtNtCs46cA19QElOV_14do_memory_core6memory7filters7matcherNtNtB4_5types13EpisodeFilter19matches_search_text
FN:220,_RNvMNtNtNtCs46cA19QElOV_14do_memory_core6memory7filters7matcherNtNtB4_5types13EpisodeFilter20collect_outcome_text
FN:162,_RNvMNtNtNtCs46cA19QElOV_14do_memory_core6memory7filters7matcherNtNtB4_5types13EpisodeFilter24collect_searchable_texts
FN:258,_RNvMNtNtNtCs46cA19QElOV_14do_memory_core6memory7filters7matcherNtNtB4_5types13EpisodeFilter5apply
FN:13,_RNvMNtNtNtCs46cA19QElOV_14do_memory_core6memory7filters7matcherNtNtB4_5types13EpisodeFilter7matches
FNDA:0,_RNCNCNvMNtNtNtCsl8fXSKtwgoJ_14do_memory_core6memory7filters7matcherNtNtB8_5types13EpisodeFilter15search_in_textss0_00Bc_
FNDA:0,_RNCNvMNtNtNtCsl8fXSKtwgoJ_14do_memory_core6memory7filters7matcherNtNtB6_5types13EpisodeFilter13count_matches0Ba_
FNDA:0,_RNCNvMNtNtNtCsl8fXSKtwgoJ_14do_memory_core6memory7filters7matcherNtNtB6_5types13EpisodeFilter15search_in_texts0Ba_
FNDA:0,_RNCNvMNtNtNtCsl8fXSKtwgoJ_14do_memory_core6memory7filters7matcherNtNtB6_5types13EpisodeFilter15search_in_textss0_0Ba_
FNDA:0,_RNCNvMNtNtNtCsl8fXSKtwgoJ_14do_memory_core6memory7filters7matcherNtNtB6_5types13EpisodeFilter15search_in_textss_0Ba_
FNDA:25,_RNCNvMNtNtNtCsl8fXSKtwgoJ_14do_memory_core6memory7filters7matcherNtNtB6_5types13EpisodeFilter5apply0Ba_
FNDA:5,_RNCNvMNtNtNtCsl8fXSKtwgoJ_14do_memory_core6memory7filters7matcherNtNtB6_5types13EpisodeFilter7matches0Ba_
FNDA:0,_RNCNvMNtNtNtCsl8fXSKtwgoJ_14do_memory_core6memory7filters7matcherNtNtB6_5types13EpisodeFilter7matchess_0Ba_
FNDA:0,_RNCNvMNtNtNtCsl8fXSKtwgoJ_14do_memory_core6memory7filters7matcherNtNtB6_5types13EpisodeFilter9apply_arc0Ba_
FNDA:0,_RNvMNtNtNtCsl8fXSKtwgoJ_14do_memory_core6memory7filters7matcherNtNtB4_5types13EpisodeFilter13count_matches
FNDA:0,_RNvMNtNtNtCsl8fXSKtwgoJ_14do_memory_core6memory7filters7matcherNtNtB4_5types13EpisodeFilter15search_in_texts
FNDA:0,_RNvMNtNtNtCsl8fXSKtwgoJ_14do_memory_core6memory7filters7matcherNtNtB4_5types13EpisodeFilter18collect_step_texts
FNDA:0,_RNvMNtNtNtCsl8fXSKtwgoJ_14do_memory_core6memory7filters7matcherNtNtB4_5types13EpisodeFilter19matches_search_text
FNDA:0,_RNvMNtNtNtCsl8fXSKtwgoJ_14do_memory_core6memory7filters7matcherNtNtB4_5types13EpisodeFilter20collect_outcome_text
FNDA:0,_RNvMNtNtNtCsl8fXSKtwgoJ_14do_memory_core6memory7filters7matcherNtNtB4_5types13EpisodeFilter24collect_searchable_texts
FNDA:10,_RNvMNtNtNtCsl8fXSKtwgoJ_14do_memory_core6memory7filters7matcherNtNtB4_5types13EpisodeFilter5apply
FNDA:25,_RNvMNtNtNtCsl8fXSKtwgoJ_14do_memory_core6memory7filters7matcherNtNtB4_5types13EpisodeFilter7matches
FNDA:0,_RNvMNtNtNtCsl8fXSKtwgoJ_14do_memory_core6memory7filters7matcherNtNtB4_5types13EpisodeFilter9apply_arc
FNDA:0,_RNCNvMNtNtNtCs46cA19QElOV_14do_memory_core6memory7filters7matcherNtNtB6_5types13EpisodeFilter13count_matches0Ba_
FNDA:0,_RNCNvMNtNtNtCs46cA19QElOV_14do_memory_core6memory7filters7matcherNtNtB6_5types13EpisodeFilter9apply_arc0Ba_
FNDA:0,_RNvMNtNtNtCs46cA19QElOV_14do_memory_core6memory7filters7matcherNtNtB4_5types13EpisodeFilter13count_matches
FNDA:0,_RNvMNtNtNtCs46cA19QElOV_14do_memory_core6memory7filters7matcherNtNtB4_5types13EpisodeFilter9apply_arc
FNDA:0,_RNCNCNvMNtNtNtCs46cA19QElOV_14do_memory_core6memory7filters7matcherNtNtB8_5types13EpisodeFilter15search_in_textss0_00Bc_
FNDA:0,_RNCNvMNtNtNtCs46cA19QElOV_14do_memory_core6memory7filters7matcherNtNtB6_5types13EpisodeFilter15search_in_texts0Ba_
FNDA:0,_RNCNvMNtNtNtCs46cA19QElOV_14do_memory_core6memory7filters7matcherNtNtB6_5types13EpisodeFilter15search_in_textss0_0Ba_
FNDA:0,_RNCNvMNtNtNtCs46cA19QElOV_14do_memory_core6memory7filters7matcherNtNtB6_5types13EpisodeFilter15search_in_textss_0Ba_
FNDA:0,_RNCNvMNtNtNtCs46cA19QElOV_14do_memory_core6memory7filters7matcherNtNtB6_5types13EpisodeFilter5apply0Ba_
FNDA:3,_RNCNvMNtNtNtCs46cA19QElOV_14do_memory_core6memory7filters7matcherNtNtB6_5types13EpisodeFilter7matches0Ba_
FNDA:4,_RNCNvMNtNtNtCs46cA19QElOV_14do_memory_core6memory7filters7matcherNtNtB6_5types13EpisodeFilter7matchess_0Ba_
FNDA:0,_RNvMNtNtNtCs46cA19QElOV_14do_memory_core6memory7filters7matcherNtNtB4_5types13EpisodeFilter15search_in_texts
FNDA:0,_RNvMNtNtNtCs46cA19QElOV_14do_memory_core6memory7filters7matcherNtNtB4_5types13EpisodeFilter18collect_step_texts
FNDA:0,_RNvMNtNtNtCs46cA19QElOV_14do_memory_core6memory7filters7matcherNtNtB4_5types13EpisodeFilter19matches_search_text
FNDA:0,_RNvMNtNtNtCs46cA19QElOV_14do_memory_core6memory7filters7matcherNtNtB4_5types13EpisodeFilter20collect_outcome_text
FNDA:0,_RNvMNtNtNtCs46cA19QElOV_14do_memory_core6memory7filters7matcherNtNtB4_5types13EpisodeFilter24collect_searchable_texts
FNDA:0,_RNvMNtNtNtCs46cA19QElOV_14do_memory_core6memory7filters7matcherNtNtB4_5types13EpisodeFilter5apply
FNDA:13,_RNvMNtNtNtCs46cA19QElOV_14do_memory_core6memory7filters7matcherNtNtB4_5types13EpisodeFilter7matches
FNF:18
FNH:5
DA:13,38
DA:15,38
DA:16,8
DA:17,8
DA:18,8
DA:19,3
DA:20,5
DA:21,0
DA:22,30
DA:25,35
DA:26,2
DA:27,4
DA:28,2
DA:29,1
DA:30,1
DA:31,0
DA:32,33
DA:35,34
DA:36,7
DA:37,3
DA:38,4
DA:39,27
DA:42,31
DA:43,3
DA:44,0
DA:45,3
DA:46,28
DA:49,31
DA:50,2
DA:51,1
DA:52,1
DA:53,29
DA:56,30
DA:57,1
DA:58,0
DA:59,1
DA:60,29
DA:63,30
DA:64,4
DA:65,1
DA:66,3
DA:67,26
DA:70,29
DA:72,29
DA:73,2
DA:74,1
DA:75,1
DA:76,27
DA:78,28
DA:79,2
DA:80,1
DA:81,1
DA:82,26
DA:85,27
DA:86,6
DA:87,6
DA:88,2
DA:89,4
DA:91,0
DA:93,21
DA:96,25
DA:97,0
DA:98,0
DA:99,0
DA:107,0
DA:108,0
DA:109,0
DA:111,0
DA:113,25
DA:116,25
DA:117,3
DA:118,3
DA:119,1
DA:120,2
DA:122,0
DA:124,22
DA:126,24
DA:127,0
DA:128,0
DA:129,0
DA:130,0
DA:132,0
DA:134,24
DA:137,24
DA:138,0
DA:139,0
DA:140,0
DA:141,24
DA:143,24
DA:144,38
DA:147,0
DA:148,0
DA:149,0
DA:150,0
DA:151,0
DA:152,0
DA:155,0
DA:158,0
DA:159,0
DA:162,0
DA:163,0
DA:164,0
DA:165,0
DA:166,0
DA:167,0
DA:169,0
DA:170,0
DA:171,0
DA:172,0
DA:173,0
DA:174,0
DA:175,0
DA:176,0
DA:177,0
DA:178,0
DA:179,0
DA:180,0
DA:181,0
DA:182,0
DA:183,0
DA:184,0
DA:185,0
DA:186,0
DA:187,0
DA:188,0
DA:189,0
DA:190,0
DA:191,0
DA:192,0
DA:196,0
DA:197,0
DA:200,0
DA:201,0
DA:202,0
DA:203,0
DA:204,0
DA:205,0
DA:206,0
DA:207,0
DA:208,0
DA:209,0
DA:210,0
DA:211,0
DA:212,0
DA:213,0
DA:215,0
DA:217,0
DA:220,0
DA:221,0
DA:222,0
DA:223,0
DA:224,0
DA:225,0
DA:227,0
DA:228,0
DA:229,0
DA:232,0
DA:233,0
DA:235,0
DA:236,0
DA:237,0
DA:238,0
DA:240,0
DA:242,0
DA:243,0
DA:244,0
DA:247,0
DA:248,0
DA:249,0
DA:250,0
DA:251,0
DA:254,0
DA:258,10
DA:259,25
DA:260,10
DA:265,0
DA:266,0
DA:267,0
DA:268,0
DA:269,0
DA:270,0
DA:274,0
DA:275,0
DA:276,0
BRF:0
BRH:0
LF:193
LH:65
end_of_record
SF:/app/memory-core/src/memory/filters/types.rs
FN:106,_RNvMNtNtNtCsl8fXSKtwgoJ_14do_memory_core6memory7filters5typesNtB2_13EpisodeFilter3new
FN:112,_RNvMNtNtNtCsl8fXSKtwgoJ_14do_memory_core6memory7filters5typesNtB2_13EpisodeFilter7builder
FN:106,_RNvMNtNtNtCs46cA19QElOV_14do_memory_core6memory7filters5typesNtB2_13EpisodeFilter3new
FN:112,_RNvMNtNtNtCs46cA19QElOV_14do_memory_core6memory7filters5typesNtB2_13EpisodeFilter7builder
FNDA:1,_RNvMNtNtNtCsl8fXSKtwgoJ_14do_memory_core6memory7filters5typesNtB2_13EpisodeFilter3new
FNDA:8,_RNvMNtNtNtCsl8fXSKtwgoJ_14do_memory_core6memory7filters5typesNtB2_13EpisodeFilter7builder
FNDA:0,_RNvMNtNtNtCs46cA19QElOV_14do_memory_core6memory7filters5typesNtB2_13EpisodeFilter3new
FNDA:7,_RNvMNtNtNtCs46cA19QElOV_14do_memory_core6memory7filters5typesNtB2_13EpisodeFilter7builder
FNF:2
FNH:2
DA:106,1
DA:107,1
DA:108,1
DA:112,15
DA:113,15
DA:114,15
BRF:0
BRH:0
LF:6
LH:6
end_of_record
SF:/app/memory-core/src/memory/init.rs
FN:290,_RNCNvNtNtCsl8fXSKtwgoJ_14do_memory_core6memory4init13start_workers0B7_
FN:22,_RNvNtNtCsl8fXSKtwgoJ_14do_memory_core6memory4init11with_config
FN:135,_RNvNtNtCsl8fXSKtwgoJ_14do_memory_core6memory4init12with_storage
FN:290,_RNvNtNtCsl8fXSKtwgoJ_14do_memory_core6memory4init13start_workers
FN:267,_RNvNtNtCsl8fXSKtwgoJ_14do_memory_core6memory4init20with_semantic_config
FN:278,_RNvNtNtCsl8fXSKtwgoJ_14do_memory_core6memory4init23enable_async_extraction
FN:135,_RNvNtNtCs46cA19QElOV_14do_memory_core6memory4init12with_storage
FN:290,_RNvNtNtCs46cA19QElOV_14do_memory_core6memory4init13start_workers
FN:278,_RNvNtNtCs46cA19QElOV_14do_memory_core6memory4init23enable_async_extraction
FN:290,_RNCNvNtNtCs46cA19QElOV_14do_memory_core6memory4init13start_workers0B7_
FN:22,_RNvNtNtCs46cA19QElOV_14do_memory_core6memory4init11with_config
FN:267,_RNvNtNtCs46cA19QElOV_14do_memory_core6memory4init20with_semantic_config
FNDA:8,_RNCNvNtNtCsl8fXSKtwgoJ_14do_memory_core6memory4init13start_workers0B7_
FNDA:146,_RNvNtNtCsl8fXSKtwgoJ_14do_memory_core6memory4init11with_config
FNDA:0,_RNvNtNtCsl8fXSKtwgoJ_14do_memory_core6memory4init12with_storage
FNDA:8,_RNvNtNtCsl8fXSKtwgoJ_14do_memory_core6memory4init13start_workers
FNDA:0,_RNvNtNtCsl8fXSKtwgoJ_14do_memory_core6memory4init20with_semantic_config
FNDA:8,_RNvNtNtCsl8fXSKtwgoJ_14do_memory_core6memory4init23enable_async_extraction
FNDA:0,_RNvNtNtCs46cA19QElOV_14do_memory_core6memory4init12with_storage
FNDA:0,_RNvNtNtCs46cA19QElOV_14do_memory_core6memory4init13start_workers
FNDA:0,_RNvNtNtCs46cA19QElOV_14do_memory_core6memory4init23enable_async_extraction
FNDA:0,_RNCNvNtNtCs46cA19QElOV_14do_memory_core6memory4init13start_workers0B7_
FNDA:47,_RNvNtNtCs46cA19QElOV_14do_memory_core6memory4init11with_config
FNDA:1,_RNvNtNtCs46cA19QElOV_14do_memory_core6memory4init20with_semantic_config
FNF:6
FNH:5
DA:22,193
DA:23,193
DA:24,193
DA:27,193
DA:28,193
DA:31,193
DA:34,193
DA:35,5
DA:36,5
DA:37,5
DA:38,5
DA:39,5
DA:40,5
DA:41,5
DA:43,188
DA:47,193
DA:48,166
DA:49,166
DA:50,166
DA:51,166
DA:52,166
DA:54,27
DA:58,193
DA:59,191
DA:60,191
DA:61,191
DA:63,2
DA:66,193
DA:67,191
DA:68,191
DA:69,191
DA:70,191
DA:72,2
DA:75,193
DA:76,191
DA:77,191
DA:78,191
DA:80,2
DA:84,193
DA:87,193
DA:90,193
DA:93,193
DA:96,193
DA:98,193
DA:99,193
DA:100,193
DA:101,193
DA:102,193
DA:103,193
DA:104,193
DA:105,193
DA:106,193
DA:107,193
DA:108,193
DA:109,193
DA:110,193
DA:111,193
DA:112,193
DA:113,193
DA:114,193
DA:115,193
DA:116,193
DA:117,193
DA:118,193
DA:119,193
DA:120,193
DA:121,193
DA:122,193
DA:123,193
DA:124,193
DA:125,193
DA:126,193
DA:127,193
DA:128,193
DA:129,193
DA:130,193
DA:131,193
DA:132,193
DA:135,0
DA:136,0
DA:137,0
DA:138,0
DA:139,0
DA:140,0
DA:141,0
DA:144,0
DA:145,0
DA:148,0
DA:151,0
DA:152,0
DA:153,0
DA:154,0
DA:155,0
DA:158,0
DA:159,0
DA:162,0
DA:163,0
DA:164,0
DA:165,0
DA:166,0
DA:167,0
DA:168,0
DA:169,0
DA:171,0
DA:175,0
DA:176,0
DA:177,0
DA:178,0
DA:179,0
DA:180,0
DA:182,0
DA:186,0
DA:187,0
DA:188,0
DA:189,0
DA:191,0
DA:194,0
DA:195,0
DA:196,0
DA:197,0
DA:198,0
DA:200,0
DA:203,0
DA:204,0
DA:205,0
DA:206,0
DA:208,0
DA:212,0
DA:215,0
DA:218,0
DA:221,0
DA:224,0
DA:227,0
DA:229,0
DA:230,0
DA:231,0
DA:232,0
DA:233,0
DA:234,0
DA:235,0
DA:236,0
DA:237,0
DA:238,0
DA:239,0
DA:240,0
DA:241,0
DA:242,0
DA:243,0
DA:244,0
DA:245,0
DA:246,0
DA:247,0
DA:248,0
DA:249,0
DA:250,0
DA:251,0
DA:252,0
DA:253,0
DA:254,0
DA:255,0
DA:256,0
DA:257,0
DA:258,0
DA:259,0
DA:260,0
DA:261,0
DA:262,0
DA:263,0
DA:267,1
DA:268,1
DA:269,1
DA:270,1
DA:271,1
DA:272,1
DA:273,1
DA:274,1
DA:278,8
DA:279,8
DA:280,8
DA:281,8
DA:282,8
DA:283,8
DA:284,8
DA:285,8
DA:286,8
DA:287,8
DA:290,8
DA:291,8
DA:292,8
DA:293,0
DA:294,8
BRF:0
BRH:0
LF:192
LH:101
end_of_record
SF:/app/memory-core/src/memory/learning.rs
FN:203,_RNCNvMNtNtCsl8fXSKtwgoJ_14do_memory_core6memory8learningNtNtB6_5types18SelfLearningMemory15get_queue_stats0B8_
FN:13,_RNCNvMNtNtCsl8fXSKtwgoJ_14do_memory_core6memory8learningNtNtB6_5types18SelfLearningMemory21extract_patterns_sync0B8_
FN:269,_RNCNvMNtNtCsl8fXSKtwgoJ_14do_memory_core6memory8learningNtNtB6_5types18SelfLearningMemory27update_heuristic_confidence0B8_
FN:139,_RNvMNtNtCsl8fXSKtwgoJ_14do_memory_core6memory8learningNtNtB4_5types18SelfLearningMemory14store_patterns
FN:203,_RNvMNtNtCsl8fXSKtwgoJ_14do_memory_core6memory8learningNtNtB4_5types18SelfLearningMemory15get_queue_stats
FN:13,_RNvMNtNtCsl8fXSKtwgoJ_14do_memory_core6memory8learningNtNtB4_5types18SelfLearningMemory21extract_patterns_sync
FN:264,_RNvMNtNtCsl8fXSKtwgoJ_14do_memory_core6memory8learningNtNtB4_5types18SelfLearningMemory27update_heuristic_confidence
FN:143,_RNCNvMNtNtCsl8fXSKtwgoJ_14do_memory_core6memory8learningNtNtB6_5types18SelfLearningMemory14store_patterns0B8_
FN:203,_RNCNvMNtNtCsl8fXSKtwgoJ_14do_memory_core6memory8learningNtNtB6_5types18SelfLearningMemory15get_queue_stats0Csl2t77M2budw_16async_extraction
FN:13,_RNCNvMNtNtCsl8fXSKtwgoJ_14do_memory_core6memory8learningNtNtB6_5types18SelfLearningMemory21extract_patterns_sync0Csl2t77M2budw_16async_extraction
FN:13,_RNCNvMNtNtCsl8fXSKtwgoJ_14do_memory_core6memory8learningNtNtB6_5types18SelfLearningMemory21extract_patterns_sync0Cs8Y0Nm3vik3R_10compliance
FN:203,_RNCNvMNtNtCs46cA19QElOV_14do_memory_core6memory8learningNtNtB6_5types18SelfLearningMemory15get_queue_stats0B8_
FN:203,_RNvMNtNtCs46cA19QElOV_14do_memory_core6memory8learningNtNtB4_5types18SelfLearningMemory15get_queue_stats
FN:139,_RNvMNtNtCs46cA19QElOV_14do_memory_core6memory8learningNtNtB4_5types18SelfLearningMemory14store_patterns
FN:13,_RNvMNtNtCs46cA19QElOV_14do_memory_core6memory8learningNtNtB4_5types18SelfLearningMemory21extract_patterns_sync
FN:264,_RNvMNtNtCs46cA19QElOV_14do_memory_core6memory8learningNtNtB4_5types18SelfLearningMemory27update_heuristic_confidence
FN:143,_RNCNvMNtNtCs46cA19QElOV_14do_memory_core6memory8learningNtNtB6_5types18SelfLearningMemory14store_patterns0B8_
FN:13,_RNCNvMNtNtCs46cA19QElOV_14do_memory_core6memory8learningNtNtB6_5types18SelfLearningMemory21extract_patterns_sync0B8_
FN:269,_RNCNvMNtNtCs46cA19QElOV_14do_memory_core6memory8learningNtNtB6_5types18SelfLearningMemory27update_heuristic_confidence0B8_
FN:13,_RNCNvMNtNtCsl8fXSKtwgoJ_14do_memory_core6memory8learningNtNtB6_5types18SelfLearningMemory21extract_patterns_sync0CsgrBw30QCVrl_26embedding_integration_test
FN:13,_RNCNvMNtNtCsl8fXSKtwgoJ_14do_memory_core6memory8learningNtNtB6_5types18SelfLearningMemory21extract_patterns_sync0Cs5rMxCUgDzf0_22episode_filtering_test
FN:13,_RNCNvMNtNtCsl8fXSKtwgoJ_14do_memory_core6memory8learningNtNtB6_5types18SelfLearningMemory21extract_patterns_sync0Cs3Fo6gHJh4GI_24genesis_integration_test
FN:13,_RNCNvMNtNtCsl8fXSKtwgoJ_14do_memory_core6memory8learningNtNtB6_5types18SelfLearningMemory21extract_patterns_sync0CsbMzWChOpjhm_18heuristic_learning
FN:269,_RNCNvMNtNtCsl8fXSKtwgoJ_14do_memory_core6memory8learningNtNtB6_5types18SelfLearningMemory27update_heuristic_confidence0CsbMzWChOpjhm_18heuristic_learning
FN:13,_RNCNvMNtNtCsl8fXSKtwgoJ_14do_memory_core6memory8learningNtNtB6_5types18SelfLearningMemory21extract_patterns_sync0CsaPsuztuIJpk_16input_validation
FN:13,_RNCNvMNtNtCsl8fXSKtwgoJ_14do_memory_core6memory8learningNtNtB6_5types18SelfLearningMemory21extract_patterns_sync0Cs88LU71L0mqI_14learning_cycle
FN:13,_RNCNvMNtNtCsl8fXSKtwgoJ_14do_memory_core6memory8learningNtNtB6_5types18SelfLearningMemory21extract_patterns_sync0Csl4UHWu7meyU_31pattern_search_integration_test
FN:13,_RNCNvMNtNtCsl8fXSKtwgoJ_14do_memory_core6memory8learningNtNtB6_5types18SelfLearningMemory21extract_patterns_sync0Csk8xWN7fShrt_11performance
FN:13,_RNCNvMNtNtCsl8fXSKtwgoJ_14do_memory_core6memory8learningNtNtB6_5types18SelfLearningMemory21extract_patterns_sync0Cs5rUVsF5rDW0_23premem_integration_test
FN:13,_RNCNvMNtNtCsl8fXSKtwgoJ_14do_memory_core6memory8learningNtNtB6_5types18SelfLearningMemory21extract_patterns_sync0Csdoax4t5h3WK_10regression
FN:13,_RNCNvMNtNtCsl8fXSKtwgoJ_14do_memory_core6memory8learningNtNtB6_5types18SelfLearningMemory21extract_patterns_sync0CsaoCCEImll0o_36semantic_hierarchical_retrieval_test
FN:13,_RNCNvMNtNtCsl8fXSKtwgoJ_14do_memory_core6memory8learningNtNtB6_5types18SelfLearningMemory21extract_patterns_sync0CsbPJcDfmBHDL_13step_batching
FN:13,_RNCNvMNtNtCsl8fXSKtwgoJ_14do_memory_core6memory8learningNtNtB6_5types18SelfLearningMemory21extract_patterns_sync0CsJzhEr7sGW1_19tag_operations_test
FNDA:0,_RNCNvMNtNtCsl8fXSKtwgoJ_14do_memory_core6memory8learningNtNtB6_5types18SelfLearningMemory15get_queue_stats0B8_
FNDA:0,_RNCNvMNtNtCsl8fXSKtwgoJ_14do_memory_core6memory8learningNtNtB6_5types18SelfLearningMemory21extract_patterns_sync0B8_
FNDA:0,_RNCNvMNtNtCsl8fXSKtwgoJ_14do_memory_core6memory8learningNtNtB6_5types18SelfLearningMemory27update_heuristic_confidence0B8_
FNDA:33,_RNvMNtNtCsl8fXSKtwgoJ_14do_memory_core6memory8learningNtNtB4_5types18SelfLearningMemory14store_patterns
FNDA:11,_RNvMNtNtCsl8fXSKtwgoJ_14do_memory_core6memory8learningNtNtB4_5types18SelfLearningMemory15get_queue_stats
FNDA:2255,_RNvMNtNtCsl8fXSKtwgoJ_14do_memory_core6memory8learningNtNtB4_5types18SelfLearningMemory21extract_patterns_sync
FNDA:0,_RNvMNtNtCsl8fXSKtwgoJ_14do_memory_core6memory8learningNtNtB4_5types18SelfLearningMemory27update_heuristic_confidence
FNDA:33,_RNCNvMNtNtCsl8fXSKtwgoJ_14do_memory_core6memory8learningNtNtB6_5types18SelfLearningMemory14store_patterns0B8_
FNDA:11,_RNCNvMNtNtCsl8fXSKtwgoJ_14do_memory_core6memory8learningNtNtB6_5types18SelfLearningMemory15get_queue_stats0Csl2t77M2budw_16async_extraction
FNDA:2,_RNCNvMNtNtCsl8fXSKtwgoJ_14do_memory_core6memory8learningNtNtB6_5types18SelfLearningMemory21extract_patterns_sync0Csl2t77M2budw_16async_extraction
FNDA:101,_RNCNvMNtNtCsl8fXSKtwgoJ_14do_memory_core6memory8learningNtNtB6_5types18SelfLearningMemory21extract_patterns_sync0Cs8Y0Nm3vik3R_10compliance
FNDA:0,_RNCNvMNtNtCs46cA19QElOV_14do_memory_core6memory8learningNtNtB6_5types18SelfLearningMemory15get_queue_stats0B8_
FNDA:0,_RNvMNtNtCs46cA19QElOV_14do_memory_core6memory8learningNtNtB4_5types18SelfLearningMemory15get_queue_stats
FNDA:6,_RNvMNtNtCs46cA19QElOV_14do_memory_core6memory8learningNtNtB4_5types18SelfLearningMemory14store_patterns
FNDA:26,_RNvMNtNtCs46cA19QElOV_14do_memory_core6memory8learningNtNtB4_5types18SelfLearningMemory21extract_patterns_sync
FNDA:1,_RNvMNtNtCs46cA19QElOV_14do_memory_core6memory8learningNtNtB4_5types18SelfLearningMemory27update_heuristic_confidence
FNDA:6,_RNCNvMNtNtCs46cA19QElOV_14do_memory_core6memory8learningNtNtB6_5types18SelfLearningMemory14store_patterns0B8_
FNDA:26,_RNCNvMNtNtCs46cA19QElOV_14do_memory_core6memory8learningNtNtB6_5types18SelfLearningMemory21extract_patterns_sync0B8_
FNDA:1,_RNCNvMNtNtCs46cA19QElOV_14do_memory_core6memory8learningNtNtB6_5types18SelfLearningMemory27update_heuristic_confidence0B8_
FNDA:7,_RNCNvMNtNtCsl8fXSKtwgoJ_14do_memory_core6memory8learningNtNtB6_5types18SelfLearningMemory21extract_patterns_sync0CsgrBw30QCVrl_26embedding_integration_test
FNDA:5,_RNCNvMNtNtCsl8fXSKtwgoJ_14do_memory_core6memory8learningNtNtB6_5types18SelfLearningMemory21extract_patterns_sync0Cs5rMxCUgDzf0_22episode_filtering_test
FNDA:45,_RNCNvMNtNtCsl8fXSKtwgoJ_14do_memory_core6memory8learningNtNtB6_5types18SelfLearningMemory21extract_patterns_sync0Cs3Fo6gHJh4GI_24genesis_integration_test
FNDA:7,_RNCNvMNtNtCsl8fXSKtwgoJ_14do_memory_core6memory8learningNtNtB6_5types18SelfLearningMemory21extract_patterns_sync0CsbMzWChOpjhm_18heuristic_learning
FNDA:0,_RNCNvMNtNtCsl8fXSKtwgoJ_14do_memory_core6memory8learningNtNtB6_5types18SelfLearningMemory27update_heuristic_confidence0CsbMzWChOpjhm_18heuristic_learning
FNDA:7,_RNCNvMNtNtCsl8fXSKtwgoJ_14do_memory_core6memory8learningNtNtB6_5types18SelfLearningMemory21extract_patterns_sync0CsaPsuztuIJpk_16input_validation
FNDA:7,_RNCNvMNtNtCsl8fXSKtwgoJ_14do_memory_core6memory8learningNtNtB6_5types18SelfLearningMemory21extract_patterns_sync0Cs88LU71L0mqI_14learning_cycle
FNDA:0,_RNCNvMNtNtCsl8fXSKtwgoJ_14do_memory_core6memory8learningNtNtB6_5types18SelfLearningMemory21extract_patterns_sync0Csl4UHWu7meyU_31pattern_search_integration_test
FNDA:1800,_RNCNvMNtNtCsl8fXSKtwgoJ_14do_memory_core6memory8learningNtNtB6_5types18SelfLearningMemory21extract_patterns_sync0Csk8xWN7fShrt_11performance
FNDA:3,_RNCNvMNtNtCsl8fXSKtwgoJ_14do_memory_core6memory8learningNtNtB6_5types18SelfLearningMemory21extract_patterns_sync0Cs5rUVsF5rDW0_23premem_integration_test
FNDA:133,_RNCNvMNtNtCsl8fXSKtwgoJ_14do_memory_core6memory8learningNtNtB6_5types18SelfLearningMemory21extract_patterns_sync0Csdoax4t5h3WK_10regression
FNDA:130,_RNCNvMNtNtCsl8fXSKtwgoJ_14do_memory_core6memory8learningNtNtB6_5types18SelfLearningMemory21extract_patterns_sync0CsaoCCEImll0o_36semantic_hierarchical_retrieval_test
FNDA:8,_RNCNvMNtNtCsl8fXSKtwgoJ_14do_memory_core6memory8learningNtNtB6_5types18SelfLearningMemory21extract_patterns_sync0CsbPJcDfmBHDL_13step_batching
FNDA:0,_RNCNvMNtNtCsl8fXSKtwgoJ_14do_memory_core6memory8learningNtNtB6_5types18SelfLearningMemory21extract_patterns_sync0CsJzhEr7sGW1_19tag_operations_test
FNF:8
FNH:8
DA:13,2281
DA:15,2281
DA:16,2281
DA:17,2281
DA:18,2281
DA:19,2281
DA:20,2281
DA:22,2281
DA:25,2281
DA:27,2281
DA:28,0
DA:33,2281
DA:34,2281
DA:36,4523
DA:37,4523
DA:38,4523
DA:41,4523
DA:42,0
DA:43,0
DA:44,0
DA:45,4523
DA:47,4523
DA:48,0
DA:49,0
DA:50,0
DA:51,4523
DA:53,4523
DA:56,2281
DA:59,2281
DA:60,2281
DA:61,2281
DA:62,0
DA:67,2281
DA:68,2281
DA:70,2281
DA:71,4
DA:74,4
DA:76,0
DA:77,0
DA:78,0
DA:79,4
DA:81,4
DA:83,0
DA:84,0
DA:85,0
DA:86,4
DA:89,4
DA:92,2281
DA:94,0
DA:95,0
DA:96,0
DA:101,2281
DA:102,0
DA:103,0
DA:107,0
DA:108,2281
DA:110,2281
DA:111,0
DA:112,0
DA:116,0
DA:117,2281
DA:120,2281
DA:121,2281
DA:123,2281
DA:124,2281
DA:139,39
DA:140,39
DA:141,39
DA:142,39
DA:143,39
DA:145,39
DA:146,39
DA:147,39
DA:148,39
DA:149,39
DA:150,39
DA:152,39
DA:154,39
DA:155,39
DA:157,78
DA:158,78
DA:159,78
DA:162,78
DA:163,0
DA:164,0
DA:165,0
DA:166,78
DA:168,78
DA:169,0
DA:170,0
DA:171,0
DA:172,78
DA:174,78
DA:177,39
DA:180,39
DA:181,0
DA:182,0
DA:183,0
DA:184,39
DA:186,39
DA:187,0
DA:188,0
DA:189,0
DA:190,39
DA:193,39
DA:194,39
DA:196,39
DA:197,39
DA:203,11
DA:204,11
DA:205,10
DA:207,1
DA:209,11
DA:264,1
DA:265,1
DA:266,1
DA:267,1
DA:268,1
DA:269,1
DA:278,1
DA:322,1
BRF:0
BRH:0
LF:125
LH:90
end_of_record
SF:/app/memory-core/src/memory/management.rs
FN:61,_RNCNvMNtNtCsl8fXSKtwgoJ_14do_memory_core6memory10managementNtNtB6_5types18SelfLearningMemory14delete_episode0B8_
FN:244,_RNCNvMNtNtCsl8fXSKtwgoJ_14do_memory_core6memory10managementNtNtB6_5types18SelfLearningMemory14update_episode0B8_
FN:126,_RNCNvMNtNtCsl8fXSKtwgoJ_14do_memory_core6memory10managementNtNtB6_5types18SelfLearningMemory15archive_episode0B8_
FN:182,_RNCNvMNtNtCsl8fXSKtwgoJ_14do_memory_core6memory10managementNtNtB6_5types18SelfLearningMemory15restore_episode0B8_
FN:61,_RNvMNtNtCsl8fXSKtwgoJ_14do_memory_core6memory10managementNtNtB4_5types18SelfLearningMemory14delete_episode
FN:239,_RNvMNtNtCsl8fXSKtwgoJ_14do_memory_core6memory10managementNtNtB4_5types18SelfLearningMemory14update_episode
FN:126,_RNvMNtNtCsl8fXSKtwgoJ_14do_memory_core6memory10managementNtNtB4_5types18SelfLearningMemory15archive_episode
FN:182,_RNvMNtNtCsl8fXSKtwgoJ_14do_memory_core6memory10managementNtNtB4_5types18SelfLearningMemory15restore_episode
FN:353,_RNvMNtNtCsl8fXSKtwgoJ_14do_memory_core6memory10managementNtNtB4_5types18SelfLearningMemory15search_patterns
FN:335,_RNvMNtNtCsl8fXSKtwgoJ_14do_memory_core6memory10managementNtNtB4_5types18SelfLearningMemory18get_all_heuristics
FN:324,_RNvMNtNtCsl8fXSKtwgoJ_14do_memory_core6memory10managementNtNtB4_5types18SelfLearningMemory19update_episode_full
FN:284,_RNvMNtNtCsl8fXSKtwgoJ_14do_memory_core6memory10managementNtNtB4_5types18SelfLearningMemory25update_episode_in_storage
FN:358,_RNCNvMNtNtCsl8fXSKtwgoJ_14do_memory_core6memory10managementNtNtB6_5types18SelfLearningMemory15search_patterns0B8_
FN:335,_RNCNvMNtNtCsl8fXSKtwgoJ_14do_memory_core6memory10managementNtNtB6_5types18SelfLearningMemory18get_all_heuristics0B8_
FN:324,_RNCNvMNtNtCsl8fXSKtwgoJ_14do_memory_core6memory10managementNtNtB6_5types18SelfLearningMemory19update_episode_full0B8_
FN:284,_RNCNvMNtNtCsl8fXSKtwgoJ_14do_memory_core6memory10managementNtNtB6_5types18SelfLearningMemory25update_episode_in_storage0B8_
FN:61,_RNCNvMNtNtCs46cA19QElOV_14do_memory_core6memory10managementNtNtB6_5types18SelfLearningMemory14delete_episode0B8_
FN:244,_RNCNvMNtNtCs46cA19QElOV_14do_memory_core6memory10managementNtNtB6_5types18SelfLearningMemory14update_episode0B8_
FN:126,_RNCNvMNtNtCs46cA19QElOV_14do_memory_core6memory10managementNtNtB6_5types18SelfLearningMemory15archive_episode0B8_
FN:182,_RNCNvMNtNtCs46cA19QElOV_14do_memory_core6memory10managementNtNtB6_5types18SelfLearningMemory15restore_episode0B8_
FN:61,_RNvMNtNtCs46cA19QElOV_14do_memory_core6memory10managementNtNtB4_5types18SelfLearningMemory14delete_episode
FN:239,_RNvMNtNtCs46cA19QElOV_14do_memory_core6memory10managementNtNtB4_5types18SelfLearningMemory14update_episode
FN:126,_RNvMNtNtCs46cA19QElOV_14do_memory_core6memory10managementNtNtB4_5types18SelfLearningMemory15archive_episode
FN:182,_RNvMNtNtCs46cA19QElOV_14do_memory_core6memory10managementNtNtB4_5types18SelfLearningMemory15restore_episode
FN:358,_RNCNvMNtNtCs46cA19QElOV_14do_memory_core6memory10managementNtNtB6_5types18SelfLearningMemory15search_patterns0B8_
FN:335,_RNCNvMNtNtCs46cA19QElOV_14do_memory_core6memory10managementNtNtB6_5types18SelfLearningMemory18get_all_heuristics0B8_
FN:324,_RNCNvMNtNtCs46cA19QElOV_14do_memory_core6memory10managementNtNtB6_5types18SelfLearningMemory19update_episode_full0B8_
FN:284,_RNCNvMNtNtCs46cA19QElOV_14do_memory_core6memory10managementNtNtB6_5types18SelfLearningMemory25update_episode_in_storage0B8_
FN:353,_RNvMNtNtCs46cA19QElOV_14do_memory_core6memory10managementNtNtB4_5types18SelfLearningMemory15search_patterns
FN:335,_RNvMNtNtCs46cA19QElOV_14do_memory_core6memory10managementNtNtB4_5types18SelfLearningMemory18get_all_heuristics
FN:324,_RNvMNtNtCs46cA19QElOV_14do_memory_core6memory10managementNtNtB4_5types18SelfLearningMemory19update_episode_full
FN:284,_RNvMNtNtCs46cA19QElOV_14do_memory_core6memory10managementNtNtB4_5types18SelfLearningMemory25update_episode_in_storage
FN:61,_RNCNvMNtNtCsl8fXSKtwgoJ_14do_memory_core6memory10managementNtNtB6_5types18SelfLearningMemory14delete_episode0Cs76BTXqc6TfY_21episode_deletion_test
FN:126,_RNCNvMNtNtCsl8fXSKtwgoJ_14do_memory_core6memory10managementNtNtB6_5types18SelfLearningMemory15archive_episode0Cs76BTXqc6TfY_21episode_deletion_test
FN:182,_RNCNvMNtNtCsl8fXSKtwgoJ_14do_memory_core6memory10managementNtNtB6_5types18SelfLearningMemory15restore_episode0Cs76BTXqc6TfY_21episode_deletion_test
FN:126,_RNCNvMNtNtCsl8fXSKtwgoJ_14do_memory_core6memory10managementNtNtB6_5types18SelfLearningMemory15archive_episode0Cs5rMxCUgDzf0_22episode_filtering_test
FNDA:0,_RNCNvMNtNtCsl8fXSKtwgoJ_14do_memory_core6memory10managementNtNtB6_5types18SelfLearningMemory14delete_episode0B8_
FNDA:0,_RNCNvMNtNtCsl8fXSKtwgoJ_14do_memory_core6memory10managementNtNtB6_5types18SelfLearningMemory14update_episode0B8_
FNDA:0,_RNCNvMNtNtCsl8fXSKtwgoJ_14do_memory_core6memory10managementNtNtB6_5types18SelfLearningMemory15archive_episode0B8_
FNDA:0,_RNCNvMNtNtCsl8fXSKtwgoJ_14do_memory_core6memory10managementNtNtB6_5types18SelfLearningMemory15restore_episode0B8_
FNDA:11,_RNvMNtNtCsl8fXSKtwgoJ_14do_memory_core6memory10managementNtNtB4_5types18SelfLearningMemory14delete_episode
FNDA:0,_RNvMNtNtCsl8fXSKtwgoJ_14do_memory_core6memory10managementNtNtB4_5types18SelfLearningMemory14update_episode
FNDA:3,_RNvMNtNtCsl8fXSKtwgoJ_14do_memory_core6memory10managementNtNtB4_5types18SelfLearningMemory15archive_episode
FNDA:3,_RNvMNtNtCsl8fXSKtwgoJ_14do_memory_core6memory10managementNtNtB4_5types18SelfLearningMemory15restore_episode
FNDA:0,_RNvMNtNtCsl8fXSKtwgoJ_14do_memory_core6memory10managementNtNtB4_5types18SelfLearningMemory15search_patterns
FNDA:0,_RNvMNtNtCsl8fXSKtwgoJ_14do_memory_core6memory10managementNtNtB4_5types18SelfLearningMemory18get_all_heuristics
FNDA:0,_RNvMNtNtCsl8fXSKtwgoJ_14do_memory_core6memory10managementNtNtB4_5types18SelfLearningMemory19update_episode_full
FNDA:0,_RNvMNtNtCsl8fXSKtwgoJ_14do_memory_core6memory10managementNtNtB4_5types18SelfLearningMemory25update_episode_in_storage
FNDA:0,_RNCNvMNtNtCsl8fXSKtwgoJ_14do_memory_core6memory10managementNtNtB6_5types18SelfLearningMemory15search_patterns0B8_
FNDA:0,_RNCNvMNtNtCsl8fXSKtwgoJ_14do_memory_core6memory10managementNtNtB6_5types18SelfLearningMemory18get_all_heuristics0B8_
FNDA:0,_RNCNvMNtNtCsl8fXSKtwgoJ_14do_memory_core6memory10managementNtNtB6_5types18SelfLearningMemory19update_episode_full0B8_
FNDA:0,_RNCNvMNtNtCsl8fXSKtwgoJ_14do_memory_core6memory10managementNtNtB6_5types18SelfLearningMemory25update_episode_in_storage0B8_
FNDA:0,_RNCNvMNtNtCs46cA19QElOV_14do_memory_core6memory10managementNtNtB6_5types18SelfLearningMemory14delete_episode0B8_
FNDA:0,_RNCNvMNtNtCs46cA19QElOV_14do_memory_core6memory10managementNtNtB6_5types18SelfLearningMemory14update_episode0B8_
FNDA:0,_RNCNvMNtNtCs46cA19QElOV_14do_memory_core6memory10managementNtNtB6_5types18SelfLearningMemory15archive_episode0B8_
FNDA:0,_RNCNvMNtNtCs46cA19QElOV_14do_memory_core6memory10managementNtNtB6_5types18SelfLearningMemory15restore_episode0B8_
FNDA:0,_RNvMNtNtCs46cA19QElOV_14do_memory_core6memory10managementNtNtB4_5types18SelfLearningMemory14delete_episode
FNDA:0,_RNvMNtNtCs46cA19QElOV_14do_memory_core6memory10managementNtNtB4_5types18SelfLearningMemory14update_episode
FNDA:0,_RNvMNtNtCs46cA19QElOV_14do_memory_core6memory10managementNtNtB4_5types18SelfLearningMemory15archive_episode
FNDA:0,_RNvMNtNtCs46cA19QElOV_14do_memory_core6memory10managementNtNtB4_5types18SelfLearningMemory15restore_episode
FNDA:0,_RNCNvMNtNtCs46cA19QElOV_14do_memory_core6memory10managementNtNtB6_5types18SelfLearningMemory15search_patterns0B8_
FNDA:0,_RNCNvMNtNtCs46cA19QElOV_14do_memory_core6memory10managementNtNtB6_5types18SelfLearningMemory18get_all_heuristics0B8_
FNDA:0,_RNCNvMNtNtCs46cA19QElOV_14do_memory_core6memory10managementNtNtB6_5types18SelfLearningMemory19update_episode_full0B8_
FNDA:0,_RNCNvMNtNtCs46cA19QElOV_14do_memory_core6memory10managementNtNtB6_5types18SelfLearningMemory25update_episode_in_storage0B8_
FNDA:0,_RNvMNtNtCs46cA19QElOV_14do_memory_core6memory10managementNtNtB4_5types18SelfLearningMemory15search_patterns
FNDA:0,_RNvMNtNtCs46cA19QElOV_14do_memory_core6memory10managementNtNtB4_5types18SelfLearningMemory18get_all_heuristics
FNDA:0,_RNvMNtNtCs46cA19QElOV_14do_memory_core6memory10managementNtNtB4_5types18SelfLearningMemory19update_episode_full
FNDA:0,_RNvMNtNtCs46cA19QElOV_14do_memory_core6memory10managementNtNtB4_5types18SelfLearningMemory25update_episode_in_storage
FNDA:11,_RNCNvMNtNtCsl8fXSKtwgoJ_14do_memory_core6memory10managementNtNtB6_5types18SelfLearningMemory14delete_episode0Cs76BTXqc6TfY_21episode_deletion_test
FNDA:2,_RNCNvMNtNtCsl8fXSKtwgoJ_14do_memory_core6memory10managementNtNtB6_5types18SelfLearningMemory15archive_episode0Cs76BTXqc6TfY_21episode_deletion_test
FNDA:3,_RNCNvMNtNtCsl8fXSKtwgoJ_14do_memory_core6memory10managementNtNtB6_5types18SelfLearningMemory15restore_episode0Cs76BTXqc6TfY_21episode_deletion_test
FNDA:1,_RNCNvMNtNtCsl8fXSKtwgoJ_14do_memory_core6memory10managementNtNtB6_5types18SelfLearningMemory15archive_episode0Cs5rMxCUgDzf0_22episode_filtering_test
FNF:16
FNH:6
DA:61,11
DA:62,11
DA:65,11
DA:66,11
DA:67,11
DA:70,11
DA:72,2
DA:73,2
DA:74,0
DA:75,9
DA:79,9
DA:80,9
DA:85,9
DA:86,9
DA:90,9
DA:91,0
DA:92,0
DA:94,0
DA:95,9
DA:98,9
DA:99,0
DA:100,0
DA:101,0
DA:102,0
DA:103,9
DA:105,9
DA:106,9
DA:107,11
DA:126,3
DA:127,3
DA:130,3
DA:133,3
DA:134,3
DA:135,3
DA:136,3
DA:137,3
DA:142,3
DA:143,3
DA:147,3
DA:148,0
DA:149,0
DA:150,0
DA:151,3
DA:154,3
DA:155,0
DA:156,0
DA:157,0
DA:158,0
DA:159,3
DA:161,3
DA:162,3
DA:163,3
DA:182,3
DA:183,3
DA:186,3
DA:189,2
DA:190,1
DA:191,1
DA:194,1
DA:195,1
DA:200,1
DA:201,1
DA:204,1
DA:205,0
DA:206,0
DA:207,0
DA:208,1
DA:210,1
DA:211,0
DA:212,0
DA:213,0
DA:214,0
DA:215,1
DA:217,1
DA:218,1
DA:219,3
DA:239,0
DA:240,0
DA:241,0
DA:242,0
DA:243,0
DA:244,0
DA:245,0
DA:248,0
DA:251,0
DA:254,0
DA:255,0
DA:256,0
DA:257,0
DA:258,0
DA:259,0
DA:260,0
DA:263,0
DA:264,0
DA:265,0
DA:266,0
DA:267,0
DA:268,0
DA:269,0
DA:271,0
DA:272,0
DA:273,0
DA:274,0
DA:277,0
DA:279,0
DA:280,0
DA:281,0
DA:284,0
DA:285,0
DA:289,0
DA:290,0
DA:294,0
DA:295,0
DA:296,0
DA:297,0
DA:298,0
DA:301,0
DA:302,0
DA:303,0
DA:305,0
DA:306,0
DA:324,0
DA:325,0
DA:326,0
DA:335,0
DA:336,0
DA:337,0
DA:338,0
DA:353,0
DA:354,0
DA:355,0
DA:356,0
DA:357,0
DA:358,0
DA:359,0
DA:360,0
DA:361,0
DA:362,0
DA:363,0
DA:364,0
DA:365,0
DA:366,0
DA:367,0
DA:368,0
DA:369,0
BRF:0
BRH:0
LF:153
LH:57
end_of_record
SF:/app/memory-core/src/memory/mod.rs
FN:129,_RNCNvMs_NtCsl8fXSKtwgoJ_14do_memory_core6memoryNtNtB6_5types18SelfLearningMemory13start_workers0B8_
FN:97,_RNvMs_NtCsl8fXSKtwgoJ_14do_memory_core6memoryNtNtB4_5types18SelfLearningMemory11with_config
FN:144,_RNvMs_NtCsl8fXSKtwgoJ_14do_memory_core6memoryNtNtB4_5types18SelfLearningMemory12batch_config
FN:102,_RNvMs_NtCsl8fXSKtwgoJ_14do_memory_core6memoryNtNtB4_5types18SelfLearningMemory12with_storage
FN:129,_RNvMs_NtCsl8fXSKtwgoJ_14do_memory_core6memoryNtNtB4_5types18SelfLearningMemory13start_workers
FN:135,_RNvMs_NtCsl8fXSKtwgoJ_14do_memory_core6memoryNtNtB4_5types18SelfLearningMemory16semantic_service
FN:154,_RNvMs_NtCsl8fXSKtwgoJ_14do_memory_core6memoryNtNtB4_5types18SelfLearningMemory17quality_threshold
FN:112,_RNvMs_NtCsl8fXSKtwgoJ_14do_memory_core6memoryNtNtB4_5types18SelfLearningMemory20with_semantic_config
FN:121,_RNvMs_NtCsl8fXSKtwgoJ_14do_memory_core6memoryNtNtB4_5types18SelfLearningMemory23enable_async_extraction
FN:91,_RNvMs_NtCsl8fXSKtwgoJ_14do_memory_core6memoryNtNtB4_5types18SelfLearningMemory3new
FN:83,_RNvXNtCsl8fXSKtwgoJ_14do_memory_core6memoryNtNtB2_5types18SelfLearningMemoryNtNtCs4kUJL3MZFFz_4core7default7Default7default
FN:129,_RNCNvMs_NtCsl8fXSKtwgoJ_14do_memory_core6memoryNtNtB6_5types18SelfLearningMemory13start_workers0Csl2t77M2budw_16async_extraction
FN:129,_RNCNvMs_NtCs46cA19QElOV_14do_memory_core6memoryNtNtB6_5types18SelfLearningMemory13start_workers0B8_
FN:102,_RNvMs_NtCs46cA19QElOV_14do_memory_core6memoryNtNtB4_5types18SelfLearningMemory12with_storage
FN:129,_RNvMs_NtCs46cA19QElOV_14do_memory_core6memoryNtNtB4_5types18SelfLearningMemory13start_workers
FN:135,_RNvMs_NtCs46cA19QElOV_14do_memory_core6memoryNtNtB4_5types18SelfLearningMemory16semantic_service
FN:121,_RNvMs_NtCs46cA19QElOV_14do_memory_core6memoryNtNtB4_5types18SelfLearningMemory23enable_async_extraction
FN:83,_RNvXNtCs46cA19QElOV_14do_memory_core6memoryNtNtB2_5types18SelfLearningMemoryNtNtCs4kUJL3MZFFz_4core7default7Default7default
FN:97,_RNvMs_NtCs46cA19QElOV_14do_memory_core6memoryNtNtB4_5types18SelfLearningMemory11with_config
FN:144,_RNvMs_NtCs46cA19QElOV_14do_memory_core6memoryNtNtB4_5types18SelfLearningMemory12batch_config
FN:154,_RNvMs_NtCs46cA19QElOV_14do_memory_core6memoryNtNtB4_5types18SelfLearningMemory17quality_threshold
FN:112,_RNvMs_NtCs46cA19QElOV_14do_memory_core6memoryNtNtB4_5types18SelfLearningMemory20with_semantic_config
FN:91,_RNvMs_NtCs46cA19QElOV_14do_memory_core6memoryNtNtB4_5types18SelfLearningMemory3new
FNDA:0,_RNCNvMs_NtCsl8fXSKtwgoJ_14do_memory_core6memoryNtNtB6_5types18SelfLearningMemory13start_workers0B8_
FNDA:107,_RNvMs_NtCsl8fXSKtwgoJ_14do_memory_core6memoryNtNtB4_5types18SelfLearningMemory11with_config
FNDA:8930,_RNvMs_NtCsl8fXSKtwgoJ_14do_memory_core6memoryNtNtB4_5types18SelfLearningMemory12batch_config
FNDA:0,_RNvMs_NtCsl8fXSKtwgoJ_14do_memory_core6memoryNtNtB4_5types18SelfLearningMemory12with_storage
FNDA:8,_RNvMs_NtCsl8fXSKtwgoJ_14do_memory_core6memoryNtNtB4_5types18SelfLearningMemory13start_workers
FNDA:0,_RNvMs_NtCsl8fXSKtwgoJ_14do_memory_core6memoryNtNtB4_5types18SelfLearningMemory16semantic_service
FNDA:2297,_RNvMs_NtCsl8fXSKtwgoJ_14do_memory_core6memoryNtNtB4_5types18SelfLearningMemory17quality_threshold
FNDA:0,_RNvMs_NtCsl8fXSKtwgoJ_14do_memory_core6memoryNtNtB4_5types18SelfLearningMemory20with_semantic_config
FNDA:8,_RNvMs_NtCsl8fXSKtwgoJ_14do_memory_core6memoryNtNtB4_5types18SelfLearningMemory23enable_async_extraction
FNDA:39,_RNvMs_NtCsl8fXSKtwgoJ_14do_memory_core6memoryNtNtB4_5types18SelfLearningMemory3new
FNDA:0,_RNvXNtCsl8fXSKtwgoJ_14do_memory_core6memoryNtNtB2_5types18SelfLearningMemoryNtNtCs4kUJL3MZFFz_4core7default7Default7default
FNDA:8,_RNCNvMs_NtCsl8fXSKtwgoJ_14do_memory_core6memoryNtNtB6_5types18SelfLearningMemory13start_workers0Csl2t77M2budw_16async_extraction
FNDA:0,_RNCNvMs_NtCs46cA19QElOV_14do_memory_core6memoryNtNtB6_5types18SelfLearningMemory13start_workers0B8_
FNDA:0,_RNvMs_NtCs46cA19QElOV_14do_memory_core6memoryNtNtB4_5types18SelfLearningMemory12with_storage
FNDA:0,_RNvMs_NtCs46cA19QElOV_14do_memory_core6memoryNtNtB4_5types18SelfLearningMemory13start_workers
FNDA:0,_RNvMs_NtCs46cA19QElOV_14do_memory_core6memoryNtNtB4_5types18SelfLearningMemory16semantic_service
FNDA:0,_RNvMs_NtCs46cA19QElOV_14do_memory_core6memoryNtNtB4_5types18SelfLearningMemory23enable_async_extraction
FNDA:0,_RNvXNtCs46cA19QElOV_14do_memory_core6memoryNtNtB2_5types18SelfLearningMemoryNtNtCs4kUJL3MZFFz_4core7default7Default7default
FNDA:22,_RNvMs_NtCs46cA19QElOV_14do_memory_core6memoryNtNtB4_5types18SelfLearningMemory11with_config
FNDA:378,_RNvMs_NtCs46cA19QElOV_14do_memory_core6memoryNtNtB4_5types18SelfLearningMemory12batch_config
FNDA:26,_RNvMs_NtCs46cA19QElOV_14do_memory_core6memoryNtNtB4_5types18SelfLearningMemory17quality_threshold
FNDA:1,_RNvMs_NtCs46cA19QElOV_14do_memory_core6memoryNtNtB4_5types18SelfLearningMemory20with_semantic_config
FNDA:24,_RNvMs_NtCs46cA19QElOV_14do_memory_core6memoryNtNtB4_5types18SelfLearningMemory3new
FNF:11
FNH:8
DA:83,0
DA:84,0
DA:85,0
DA:91,63
DA:92,63
DA:93,63
DA:97,129
DA:98,129
DA:99,129
DA:102,0
DA:103,0
DA:104,0
DA:105,0
DA:106,0
DA:107,0
DA:108,0
DA:112,1
DA:113,1
DA:114,1
DA:115,1
DA:116,1
DA:117,1
DA:121,8
DA:122,8
DA:123,8
DA:124,8
DA:125,8
DA:126,8
DA:129,8
DA:130,8
DA:131,8
DA:135,0
DA:136,0
DA:137,0
DA:144,9308
DA:145,9308
DA:146,9308
DA:154,2323
DA:155,2323
DA:156,2323
BRF:0
BRH:0
LF:41
LH:28
end_of_record
SF:/app/memory-core/src/memory/monitoring.rs
FN:28,_RNCNCNvNtNtCsl8fXSKtwgoJ_14do_memory_core6memory10monitoring9get_stats00B9_
FN:78,_RNCNvNtNtCsl8fXSKtwgoJ_14do_memory_core6memory10monitoring17get_agent_metrics0B7_
FN:87,_RNCNvNtNtCsl8fXSKtwgoJ_14do_memory_core6memory10monitoring21get_all_agent_metrics0B7_
FN:97,_RNCNvNtNtCsl8fXSKtwgoJ_14do_memory_core6memory10monitoring22get_monitoring_summary0B7_
FN:43,_RNCNvNtNtCsl8fXSKtwgoJ_14do_memory_core6memory10monitoring22record_agent_execution0B7_
FN:59,_RNCNvNtNtCsl8fXSKtwgoJ_14do_memory_core6memory10monitoring31record_agent_execution_detailed0B7_
FN:23,_RNCNvNtNtCsl8fXSKtwgoJ_14do_memory_core6memory10monitoring9get_stats0B7_
FN:121,_RNvNtNtCsl8fXSKtwgoJ_14do_memory_core6memory10monitoring11clear_cache
FN:75,_RNvNtNtCsl8fXSKtwgoJ_14do_memory_core6memory10monitoring17get_agent_metrics
FN:105,_RNvNtNtCsl8fXSKtwgoJ_14do_memory_core6memory10monitoring17get_cache_metrics
FN:113,_RNvNtNtCsl8fXSKtwgoJ_14do_memory_core6memory10monitoring19clear_cache_metrics
FN:85,_RNvNtNtCsl8fXSKtwgoJ_14do_memory_core6memory10monitoring21get_all_agent_metrics
FN:95,_RNvNtNtCsl8fXSKtwgoJ_14do_memory_core6memory10monitoring22get_monitoring_summary
FN:38,_RNvNtNtCsl8fXSKtwgoJ_14do_memory_core6memory10monitoring22record_agent_execution
FN:52,_RNvNtNtCsl8fXSKtwgoJ_14do_memory_core6memory10monitoring31record_agent_execution_detailed
FN:18,_RNvNtNtCsl8fXSKtwgoJ_14do_memory_core6memory10monitoring9get_stats
FN:121,_RNvNtNtCs46cA19QElOV_14do_memory_core6memory10monitoring11clear_cache
FN:75,_RNvNtNtCs46cA19QElOV_14do_memory_core6memory10monitoring17get_agent_metrics
FN:105,_RNvNtNtCs46cA19QElOV_14do_memory_core6memory10monitoring17get_cache_metrics
FN:113,_RNvNtNtCs46cA19QElOV_14do_memory_core6memory10monitoring19clear_cache_metrics
FN:85,_RNvNtNtCs46cA19QElOV_14do_memory_core6memory10monitoring21get_all_agent_metrics
FN:95,_RNvNtNtCs46cA19QElOV_14do_memory_core6memory10monitoring22get_monitoring_summary
FN:38,_RNvNtNtCs46cA19QElOV_14do_memory_core6memory10monitoring22record_agent_execution
FN:52,_RNvNtNtCs46cA19QElOV_14do_memory_core6memory10monitoring31record_agent_execution_detailed
FN:18,_RNvNtNtCs46cA19QElOV_14do_memory_core6memory10monitoring9get_stats
FN:28,_RNCNCNvNtNtCs46cA19QElOV_14do_memory_core6memory10monitoring9get_stats00B9_
FN:78,_RNCNvNtNtCs46cA19QElOV_14do_memory_core6memory10monitoring17get_agent_metrics0B7_
FN:87,_RNCNvNtNtCs46cA19QElOV_14do_memory_core6memory10monitoring21get_all_agent_metrics0B7_
FN:97,_RNCNvNtNtCs46cA19QElOV_14do_memory_core6memory10monitoring22get_monitoring_summary0B7_
FN:43,_RNCNvNtNtCs46cA19QElOV_14do_memory_core6memory10monitoring22record_agent_execution0B7_
FN:59,_RNCNvNtNtCs46cA19QElOV_14do_memory_core6memory10monitoring31record_agent_execution_detailed0B7_
FN:23,_RNCNvNtNtCs46cA19QElOV_14do_memory_core6memory10monitoring9get_stats0B7_
FNDA:80,_RNCNCNvNtNtCsl8fXSKtwgoJ_14do_memory_core6memory10monitoring9get_stats00B9_
FNDA:0,_RNCNvNtNtCsl8fXSKtwgoJ_14do_memory_core6memory10monitoring17get_agent_metrics0B7_
FNDA:0,_RNCNvNtNtCsl8fXSKtwgoJ_14do_memory_core6memory10monitoring21get_all_agent_metrics0B7_
FNDA:0,_RNCNvNtNtCsl8fXSKtwgoJ_14do_memory_core6memory10monitoring22get_monitoring_summary0B7_
FNDA:0,_RNCNvNtNtCsl8fXSKtwgoJ_14do_memory_core6memory10monitoring22record_agent_execution0B7_
FNDA:0,_RNCNvNtNtCsl8fXSKtwgoJ_14do_memory_core6memory10monitoring31record_agent_execution_detailed0B7_
FNDA:21,_RNCNvNtNtCsl8fXSKtwgoJ_14do_memory_core6memory10monitoring9get_stats0B7_
FNDA:0,_RNvNtNtCsl8fXSKtwgoJ_14do_memory_core6memory10monitoring11clear_cache
FNDA:0,_RNvNtNtCsl8fXSKtwgoJ_14do_memory_core6memory10monitoring17get_agent_metrics
FNDA:0,_RNvNtNtCsl8fXSKtwgoJ_14do_memory_core6memory10monitoring17get_cache_metrics
FNDA:0,_RNvNtNtCsl8fXSKtwgoJ_14do_memory_core6memory10monitoring19clear_cache_metrics
FNDA:0,_RNvNtNtCsl8fXSKtwgoJ_14do_memory_core6memory10monitoring21get_all_agent_metrics
FNDA:0,_RNvNtNtCsl8fXSKtwgoJ_14do_memory_core6memory10monitoring22get_monitoring_summary
FNDA:0,_RNvNtNtCsl8fXSKtwgoJ_14do_memory_core6memory10monitoring22record_agent_execution
FNDA:0,_RNvNtNtCsl8fXSKtwgoJ_14do_memory_core6memory10monitoring31record_agent_execution_detailed
FNDA:21,_RNvNtNtCsl8fXSKtwgoJ_14do_memory_core6memory10monitoring9get_stats
FNDA:0,_RNvNtNtCs46cA19QElOV_14do_memory_core6memory10monitoring11clear_cache
FNDA:0,_RNvNtNtCs46cA19QElOV_14do_memory_core6memory10monitoring17get_agent_metrics
FNDA:0,_RNvNtNtCs46cA19QElOV_14do_memory_core6memory10monitoring17get_cache_metrics
FNDA:0,_RNvNtNtCs46cA19QElOV_14do_memory_core6memory10monitoring19clear_cache_metrics
FNDA:0,_RNvNtNtCs46cA19QElOV_14do_memory_core6memory10monitoring21get_all_agent_metrics
FNDA:0,_RNvNtNtCs46cA19QElOV_14do_memory_core6memory10monitoring22get_monitoring_summary
FNDA:0,_RNvNtNtCs46cA19QElOV_14do_memory_core6memory10monitoring22record_agent_execution
FNDA:0,_RNvNtNtCs46cA19QElOV_14do_memory_core6memory10monitoring31record_agent_execution_detailed
FNDA:0,_RNvNtNtCs46cA19QElOV_14do_memory_core6memory10monitoring9get_stats
FNDA:0,_RNCNCNvNtNtCs46cA19QElOV_14do_memory_core6memory10monitoring9get_stats00B9_
FNDA:0,_RNCNvNtNtCs46cA19QElOV_14do_memory_core6memory10monitoring17get_agent_metrics0B7_
FNDA:0,_RNCNvNtNtCs46cA19QElOV_14do_memory_core6memory10monitoring21get_all_agent_metrics0B7_
FNDA:0,_RNCNvNtNtCs46cA19QElOV_14do_memory_core6memory10monitoring22get_monitoring_summary0B7_
FNDA:0,_RNCNvNtNtCs46cA19QElOV_14do_memory_core6memory10monitoring22record_agent_execution0B7_
FNDA:0,_RNCNvNtNtCs46cA19QElOV_14do_memory_core6memory10monitoring31record_agent_execution_detailed0B7_
FNDA:0,_RNCNvNtNtCs46cA19QElOV_14do_memory_core6memory10monitoring9get_stats0B7_
FNF:16
FNH:3
DA:18,21
DA:19,21
DA:20,21
DA:21,21
DA:22,21
DA:23,21
DA:24,21
DA:25,21
DA:27,21
DA:28,80
DA:29,21
DA:31,21
DA:32,21
DA:38,0
DA:39,0
DA:40,0
DA:41,0
DA:42,0
DA:43,0
DA:44,0
DA:45,0
DA:46,0
DA:47,0
DA:52,0
DA:53,0
DA:54,0
DA:55,0
DA:56,0
DA:57,0
DA:58,0
DA:59,0
DA:60,0
DA:61,0
DA:62,0
DA:63,0
DA:64,0
DA:65,0
DA:66,0
DA:67,0
DA:68,0
DA:69,0
DA:75,0
DA:76,0
DA:77,0
DA:78,0
DA:79,0
DA:80,0
DA:85,0
DA:86,0
DA:87,0
DA:88,0
DA:89,0
DA:95,0
DA:96,0
DA:97,0
DA:98,0
DA:99,0
DA:105,0
DA:106,0
DA:107,0
DA:113,0
DA:114,0
DA:115,0
DA:121,0
DA:122,0
DA:123,0
BRF:0
BRH:0
LF:73
LH:15
end_of_record
SF:/app/memory-core/src/memory/pattern_api.rs
FN:55,_RNCNvMNtNtCsl8fXSKtwgoJ_14do_memory_core6memory11pattern_apiNtNtB6_5types18SelfLearningMemory24search_patterns_semantic0B8_
FN:180,_RNCNvMNtNtCsl8fXSKtwgoJ_14do_memory_core6memory11pattern_apiNtNtB6_5types18SelfLearningMemory27discover_analogous_patterns0B8_
FN:129,_RNCNvMNtNtCsl8fXSKtwgoJ_14do_memory_core6memory11pattern_apiNtNtB6_5types18SelfLearningMemory27recommend_patterns_for_task0B8_
FN:75,_RNCNvMNtNtCsl8fXSKtwgoJ_14do_memory_core6memory11pattern_apiNtNtB6_5types18SelfLearningMemory27search_patterns_with_config0B8_
FN:50,_RNvMNtNtCsl8fXSKtwgoJ_14do_memory_core6memory11pattern_apiNtNtB4_5types18SelfLearningMemory24search_patterns_semantic
FN:175,_RNvMNtNtCsl8fXSKtwgoJ_14do_memory_core6memory11pattern_apiNtNtB4_5types18SelfLearningMemory27discover_analogous_patterns
FN:124,_RNvMNtNtCsl8fXSKtwgoJ_14do_memory_core6memory11pattern_apiNtNtB4_5types18SelfLearningMemory27recommend_patterns_for_task
FN:69,_RNvMNtNtCsl8fXSKtwgoJ_14do_memory_core6memory11pattern_apiNtNtB4_5types18SelfLearningMemory27search_patterns_with_config
FN:55,_RNCNvMNtNtCs46cA19QElOV_14do_memory_core6memory11pattern_apiNtNtB6_5types18SelfLearningMemory24search_patterns_semantic0B8_
FN:180,_RNCNvMNtNtCs46cA19QElOV_14do_memory_core6memory11pattern_apiNtNtB6_5types18SelfLearningMemory27discover_analogous_patterns0B8_
FN:129,_RNCNvMNtNtCs46cA19QElOV_14do_memory_core6memory11pattern_apiNtNtB6_5types18SelfLearningMemory27recommend_patterns_for_task0B8_
FN:75,_RNCNvMNtNtCs46cA19QElOV_14do_memory_core6memory11pattern_apiNtNtB6_5types18SelfLearningMemory27search_patterns_with_config0B8_
FN:50,_RNvMNtNtCs46cA19QElOV_14do_memory_core6memory11pattern_apiNtNtB4_5types18SelfLearningMemory24search_patterns_semantic
FN:175,_RNvMNtNtCs46cA19QElOV_14do_memory_core6memory11pattern_apiNtNtB4_5types18SelfLearningMemory27discover_analogous_patterns
FN:124,_RNvMNtNtCs46cA19QElOV_14do_memory_core6memory11pattern_apiNtNtB4_5types18SelfLearningMemory27recommend_patterns_for_task
FN:69,_RNvMNtNtCs46cA19QElOV_14do_memory_core6memory11pattern_apiNtNtB4_5types18SelfLearningMemory27search_patterns_with_config
FN:55,_RNCNvMNtNtCsl8fXSKtwgoJ_14do_memory_core6memory11pattern_apiNtNtB6_5types18SelfLearningMemory24search_patterns_semantic0Csl4UHWu7meyU_31pattern_search_integration_test
FN:180,_RNCNvMNtNtCsl8fXSKtwgoJ_14do_memory_core6memory11pattern_apiNtNtB6_5types18SelfLearningMemory27discover_analogous_patterns0Csl4UHWu7meyU_31pattern_search_integration_test
FN:129,_RNCNvMNtNtCsl8fXSKtwgoJ_14do_memory_core6memory11pattern_apiNtNtB6_5types18SelfLearningMemory27recommend_patterns_for_task0Csl4UHWu7meyU_31pattern_search_integration_test
FN:75,_RNCNvMNtNtCsl8fXSKtwgoJ_14do_memory_core6memory11pattern_apiNtNtB6_5types18SelfLearningMemory27search_patterns_with_config0Csl4UHWu7meyU_31pattern_search_integration_test
FNDA:0,_RNCNvMNtNtCsl8fXSKtwgoJ_14do_memory_core6memory11pattern_apiNtNtB6_5types18SelfLearningMemory24search_patterns_semantic0B8_
FNDA:0,_RNCNvMNtNtCsl8fXSKtwgoJ_14do_memory_core6memory11pattern_apiNtNtB6_5types18SelfLearningMemory27discover_analogous_patterns0B8_
FNDA:0,_RNCNvMNtNtCsl8fXSKtwgoJ_14do_memory_core6memory11pattern_apiNtNtB6_5types18SelfLearningMemory27recommend_patterns_for_task0B8_
FNDA:0,_RNCNvMNtNtCsl8fXSKtwgoJ_14do_memory_core6memory11pattern_apiNtNtB6_5types18SelfLearningMemory27search_patterns_with_config0B8_
FNDA:1,_RNvMNtNtCsl8fXSKtwgoJ_14do_memory_core6memory11pattern_apiNtNtB4_5types18SelfLearningMemory24search_patterns_semantic
FNDA:1,_RNvMNtNtCsl8fXSKtwgoJ_14do_memory_core6memory11pattern_apiNtNtB4_5types18SelfLearningMemory27discover_analogous_patterns
FNDA:1,_RNvMNtNtCsl8fXSKtwgoJ_14do_memory_core6memory11pattern_apiNtNtB4_5types18SelfLearningMemory27recommend_patterns_for_task
FNDA:1,_RNvMNtNtCsl8fXSKtwgoJ_14do_memory_core6memory11pattern_apiNtNtB4_5types18SelfLearningMemory27search_patterns_with_config
FNDA:0,_RNCNvMNtNtCs46cA19QElOV_14do_memory_core6memory11pattern_apiNtNtB6_5types18SelfLearningMemory24search_patterns_semantic0B8_
FNDA:0,_RNCNvMNtNtCs46cA19QElOV_14do_memory_core6memory11pattern_apiNtNtB6_5types18SelfLearningMemory27discover_analogous_patterns0B8_
FNDA:0,_RNCNvMNtNtCs46cA19QElOV_14do_memory_core6memory11pattern_apiNtNtB6_5types18SelfLearningMemory27recommend_patterns_for_task0B8_
FNDA:0,_RNCNvMNtNtCs46cA19QElOV_14do_memory_core6memory11pattern_apiNtNtB6_5types18SelfLearningMemory27search_patterns_with_config0B8_
FNDA:0,_RNvMNtNtCs46cA19QElOV_14do_memory_core6memory11pattern_apiNtNtB4_5types18SelfLearningMemory24search_patterns_semantic
FNDA:0,_RNvMNtNtCs46cA19QElOV_14do_memory_core6memory11pattern_apiNtNtB4_5types18SelfLearningMemory27discover_analogous_patterns
FNDA:0,_RNvMNtNtCs46cA19QElOV_14do_memory_core6memory11pattern_apiNtNtB4_5types18SelfLearningMemory27recommend_patterns_for_task
FNDA:0,_RNvMNtNtCs46cA19QElOV_14do_memory_core6memory11pattern_apiNtNtB4_5types18SelfLearningMemory27search_patterns_with_config
FNDA:1,_RNCNvMNtNtCsl8fXSKtwgoJ_14do_memory_core6memory11pattern_apiNtNtB6_5types18SelfLearningMemory24search_patterns_semantic0Csl4UHWu7meyU_31pattern_search_integration_test
FNDA:1,_RNCNvMNtNtCsl8fXSKtwgoJ_14do_memory_core6memory11pattern_apiNtNtB6_5types18SelfLearningMemory27discover_analogous_patterns0Csl4UHWu7meyU_31pattern_search_integration_test
FNDA:1,_RNCNvMNtNtCsl8fXSKtwgoJ_14do_memory_core6memory11pattern_apiNtNtB6_5types18SelfLearningMemory27recommend_patterns_for_task0Csl4UHWu7meyU_31pattern_search_integration_test
FNDA:1,_RNCNvMNtNtCsl8fXSKtwgoJ_14do_memory_core6memory11pattern_apiNtNtB6_5types18SelfLearningMemory27search_patterns_with_config0Csl4UHWu7meyU_31pattern_search_integration_test
FNF:8
FNH:8
DA:50,1
DA:51,1
DA:52,1
DA:53,1
DA:54,1
DA:55,1
DA:56,1
DA:57,1
DA:58,1
DA:59,1
DA:60,1
DA:61,1
DA:62,1
DA:63,1
DA:64,1
DA:65,1
DA:66,1
DA:69,1
DA:70,1
DA:71,1
DA:72,1
DA:73,1
DA:74,1
DA:75,1
DA:76,1
DA:77,1
DA:78,1
DA:79,1
DA:80,1
DA:81,1
DA:82,1
DA:83,1
DA:84,1
DA:85,1
DA:86,1
DA:124,1
DA:125,1
DA:126,1
DA:127,1
DA:128,1
DA:129,1
DA:130,1
DA:131,1
DA:132,1
DA:133,1
DA:134,1
DA:135,1
DA:136,1
DA:137,1
DA:138,1
DA:139,1
DA:175,1
DA:176,1
DA:177,1
DA:178,1
DA:179,1
DA:180,1
DA:181,1
DA:182,1
DA:183,1
DA:184,1
DA:185,1
DA:186,1
DA:187,1
DA:188,1
DA:189,1
DA:190,1
BRF:0
BRH:0
LF:71
LH:71
end_of_record
SF:/app/memory-core/src/memory/pattern_search/recommendation.rs
FN:176,_RNCNCNCNvNtNtNtCsl8fXSKtwgoJ_14do_memory_core6memory14pattern_search14recommendation27discover_analogous_patterns000Bd_
FN:105,_RNCNCNvNtNtNtCsl8fXSKtwgoJ_14do_memory_core6memory14pattern_search14recommendation24search_patterns_semantic00Bb_
FN:176,_RNCNCNvNtNtNtCsl8fXSKtwgoJ_14do_memory_core6memory14pattern_search14recommendation27discover_analogous_patterns00Bb_
FN:35,_RNCNvNtNtNtCsl8fXSKtwgoJ_14do_memory_core6memory14pattern_search14recommendation24search_patterns_semantic0B9_
FN:166,_RNCNvNtNtNtCsl8fXSKtwgoJ_14do_memory_core6memory14pattern_search14recommendation27discover_analogous_patterns0B9_
FN:129,_RNCNvNtNtNtCsl8fXSKtwgoJ_14do_memory_core6memory14pattern_search14recommendation27recommend_patterns_for_task0B9_
FN:28,_RNvNtNtNtCsl8fXSKtwgoJ_14do_memory_core6memory14pattern_search14recommendation24search_patterns_semantic
FN:160,_RNvNtNtNtCsl8fXSKtwgoJ_14do_memory_core6memory14pattern_search14recommendation27discover_analogous_patterns
FN:123,_RNvNtNtNtCsl8fXSKtwgoJ_14do_memory_core6memory14pattern_search14recommendation27recommend_patterns_for_task
FN:160,_RNvNtNtNtCs46cA19QElOV_14do_memory_core6memory14pattern_search14recommendation27discover_analogous_patterns
FN:123,_RNvNtNtNtCs46cA19QElOV_14do_memory_core6memory14pattern_search14recommendation27recommend_patterns_for_task
FN:219,_RNvNtNtNtNtCs46cA19QElOV_14do_memory_core6memory14pattern_search14recommendation5tests19create_test_pattern
FN:238,_RNvNtNtNtNtCs46cA19QElOV_14do_memory_core6memory14pattern_search14recommendation5testss_40test_search_patterns_semantic_no_service
FN:28,_RNvNtNtNtCs46cA19QElOV_14do_memory_core6memory14pattern_search14recommendation24search_patterns_semantic
FN:238,_RNCNvNtNtNtNtCs46cA19QElOV_14do_memory_core6memory14pattern_search14recommendation5testss_40test_search_patterns_semantic_no_service0Bb_
FN:176,_RNCNCNCNvNtNtNtCs46cA19QElOV_14do_memory_core6memory14pattern_search14recommendation27discover_analogous_patterns000Bd_
FN:105,_RNCNCNvNtNtNtCs46cA19QElOV_14do_memory_core6memory14pattern_search14recommendation24search_patterns_semantic00Bb_
FN:176,_RNCNCNvNtNtNtCs46cA19QElOV_14do_memory_core6memory14pattern_search14recommendation27discover_analogous_patterns00Bb_
FN:35,_RNCNvNtNtNtCs46cA19QElOV_14do_memory_core6memory14pattern_search14recommendation24search_patterns_semantic0B9_
FN:166,_RNCNvNtNtNtCs46cA19QElOV_14do_memory_core6memory14pattern_search14recommendation27discover_analogous_patterns0B9_
FN:129,_RNCNvNtNtNtCs46cA19QElOV_14do_memory_core6memory14pattern_search14recommendation27recommend_patterns_for_task0B9_
FNDA:0,_RNCNCNCNvNtNtNtCsl8fXSKtwgoJ_14do_memory_core6memory14pattern_search14recommendation27discover_analogous_patterns000Bd_
FNDA:0,_RNCNCNvNtNtNtCsl8fXSKtwgoJ_14do_memory_core6memory14pattern_search14recommendation24search_patterns_semantic00Bb_
FNDA:0,_RNCNCNvNtNtNtCsl8fXSKtwgoJ_14do_memory_core6memory14pattern_search14recommendation27discover_analogous_patterns00Bb_
FNDA:4,_RNCNvNtNtNtCsl8fXSKtwgoJ_14do_memory_core6memory14pattern_search14recommendation24search_patterns_semantic0B9_
FNDA:1,_RNCNvNtNtNtCsl8fXSKtwgoJ_14do_memory_core6memory14pattern_search14recommendation27discover_analogous_patterns0B9_
FNDA:1,_RNCNvNtNtNtCsl8fXSKtwgoJ_14do_memory_core6memory14pattern_search14recommendation27recommend_patterns_for_task0B9_
FNDA:4,_RNvNtNtNtCsl8fXSKtwgoJ_14do_memory_core6memory14pattern_search14recommendation24search_patterns_semantic
FNDA:1,_RNvNtNtNtCsl8fXSKtwgoJ_14do_memory_core6memory14pattern_search14recommendation27discover_analogous_patterns
FNDA:1,_RNvNtNtNtCsl8fXSKtwgoJ_14do_memory_core6memory14pattern_search14recommendation27recommend_patterns_for_task
FNDA:0,_RNvNtNtNtCs46cA19QElOV_14do_memory_core6memory14pattern_search14recommendation27discover_analogous_patterns
FNDA:0,_RNvNtNtNtCs46cA19QElOV_14do_memory_core6memory14pattern_search14recommendation27recommend_patterns_for_task
FNDA:2,_RNvNtNtNtNtCs46cA19QElOV_14do_memory_core6memory14pattern_search14recommendation5tests19create_test_pattern
FNDA:1,_RNvNtNtNtNtCs46cA19QElOV_14do_memory_core6memory14pattern_search14recommendation5testss_40test_search_patterns_semantic_no_service
FNDA:1,_RNvNtNtNtCs46cA19QElOV_14do_memory_core6memory14pattern_search14recommendation24search_patterns_semantic
FNDA:1,_RNCNvNtNtNtNtCs46cA19QElOV_14do_memory_core6memory14pattern_search14recommendation5testss_40test_search_patterns_semantic_no_service0Bb_
FNDA:0,_RNCNCNCNvNtNtNtCs46cA19QElOV_14do_memory_core6memory14pattern_search14recommendation27discover_analogous_patterns000Bd_
